ARM GAS  C:\Users\TGSPOC~1\AppData\Local\Temp\ccBCX0SZ.s 			page 1


   1              		.cpu cortex-m7
   2              		.arch armv7e-m
   3              		.fpu fpv5-d16
   4              		.eabi_attribute 28, 1
   5              		.eabi_attribute 20, 1
   6              		.eabi_attribute 21, 1
   7              		.eabi_attribute 23, 3
   8              		.eabi_attribute 24, 1
   9              		.eabi_attribute 25, 1
  10              		.eabi_attribute 26, 1
  11              		.eabi_attribute 30, 6
  12              		.eabi_attribute 34, 1
  13              		.eabi_attribute 18, 4
  14              		.file	"stm32h7xx_hal_tim_ex.c"
  15              		.text
  16              	.Ltext0:
  17              		.cfi_sections	.debug_frame
  18              		.file 1 "Drivers/STM32H7xx_HAL_Driver/Src/stm32h7xx_hal_tim_ex.c"
  19              		.section	.text.HAL_TIMEx_HallSensor_Init,"ax",%progbits
  20              		.align	1
  21              		.global	HAL_TIMEx_HallSensor_Init
  22              		.syntax unified
  23              		.thumb
  24              		.thumb_func
  26              	HAL_TIMEx_HallSensor_Init:
  27              	.LFB144:
   1:Drivers/STM32H7xx_HAL_Driver/Src/stm32h7xx_hal_tim_ex.c **** /**
   2:Drivers/STM32H7xx_HAL_Driver/Src/stm32h7xx_hal_tim_ex.c ****   ******************************************************************************
   3:Drivers/STM32H7xx_HAL_Driver/Src/stm32h7xx_hal_tim_ex.c ****   * @file    stm32h7xx_hal_tim_ex.c
   4:Drivers/STM32H7xx_HAL_Driver/Src/stm32h7xx_hal_tim_ex.c ****   * @author  MCD Application Team
   5:Drivers/STM32H7xx_HAL_Driver/Src/stm32h7xx_hal_tim_ex.c ****   * @brief   TIM HAL module driver.
   6:Drivers/STM32H7xx_HAL_Driver/Src/stm32h7xx_hal_tim_ex.c ****   *          This file provides firmware functions to manage the following
   7:Drivers/STM32H7xx_HAL_Driver/Src/stm32h7xx_hal_tim_ex.c ****   *          functionalities of the Timer Extended peripheral:
   8:Drivers/STM32H7xx_HAL_Driver/Src/stm32h7xx_hal_tim_ex.c ****   *           + Time Hall Sensor Interface Initialization
   9:Drivers/STM32H7xx_HAL_Driver/Src/stm32h7xx_hal_tim_ex.c ****   *           + Time Hall Sensor Interface Start
  10:Drivers/STM32H7xx_HAL_Driver/Src/stm32h7xx_hal_tim_ex.c ****   *           + Time Complementary signal break and dead time configuration
  11:Drivers/STM32H7xx_HAL_Driver/Src/stm32h7xx_hal_tim_ex.c ****   *           + Time Master and Slave synchronization configuration
  12:Drivers/STM32H7xx_HAL_Driver/Src/stm32h7xx_hal_tim_ex.c ****   *           + Time Output Compare/PWM Channel Configuration (for channels 5 and 6)
  13:Drivers/STM32H7xx_HAL_Driver/Src/stm32h7xx_hal_tim_ex.c ****   *           + Timer remapping capabilities configuration
  14:Drivers/STM32H7xx_HAL_Driver/Src/stm32h7xx_hal_tim_ex.c ****   ******************************************************************************
  15:Drivers/STM32H7xx_HAL_Driver/Src/stm32h7xx_hal_tim_ex.c ****   * @attention
  16:Drivers/STM32H7xx_HAL_Driver/Src/stm32h7xx_hal_tim_ex.c ****   *
  17:Drivers/STM32H7xx_HAL_Driver/Src/stm32h7xx_hal_tim_ex.c ****   * Copyright (c) 2017 STMicroelectronics.
  18:Drivers/STM32H7xx_HAL_Driver/Src/stm32h7xx_hal_tim_ex.c ****   * All rights reserved.
  19:Drivers/STM32H7xx_HAL_Driver/Src/stm32h7xx_hal_tim_ex.c ****   *
  20:Drivers/STM32H7xx_HAL_Driver/Src/stm32h7xx_hal_tim_ex.c ****   * This software is licensed under terms that can be found in the LICENSE file
  21:Drivers/STM32H7xx_HAL_Driver/Src/stm32h7xx_hal_tim_ex.c ****   * in the root directory of this software component.
  22:Drivers/STM32H7xx_HAL_Driver/Src/stm32h7xx_hal_tim_ex.c ****   * If no LICENSE file comes with this software, it is provided AS-IS.
  23:Drivers/STM32H7xx_HAL_Driver/Src/stm32h7xx_hal_tim_ex.c ****   *
  24:Drivers/STM32H7xx_HAL_Driver/Src/stm32h7xx_hal_tim_ex.c ****   ******************************************************************************
  25:Drivers/STM32H7xx_HAL_Driver/Src/stm32h7xx_hal_tim_ex.c ****   @verbatim
  26:Drivers/STM32H7xx_HAL_Driver/Src/stm32h7xx_hal_tim_ex.c ****   ==============================================================================
  27:Drivers/STM32H7xx_HAL_Driver/Src/stm32h7xx_hal_tim_ex.c ****                       ##### TIMER Extended features #####
  28:Drivers/STM32H7xx_HAL_Driver/Src/stm32h7xx_hal_tim_ex.c ****   ==============================================================================
  29:Drivers/STM32H7xx_HAL_Driver/Src/stm32h7xx_hal_tim_ex.c ****   [..]
  30:Drivers/STM32H7xx_HAL_Driver/Src/stm32h7xx_hal_tim_ex.c ****     The Timer Extended features include:
  31:Drivers/STM32H7xx_HAL_Driver/Src/stm32h7xx_hal_tim_ex.c ****     (#) Complementary outputs with programmable dead-time for :
ARM GAS  C:\Users\TGSPOC~1\AppData\Local\Temp\ccBCX0SZ.s 			page 2


  32:Drivers/STM32H7xx_HAL_Driver/Src/stm32h7xx_hal_tim_ex.c ****         (++) Output Compare
  33:Drivers/STM32H7xx_HAL_Driver/Src/stm32h7xx_hal_tim_ex.c ****         (++) PWM generation (Edge and Center-aligned Mode)
  34:Drivers/STM32H7xx_HAL_Driver/Src/stm32h7xx_hal_tim_ex.c ****         (++) One-pulse mode output
  35:Drivers/STM32H7xx_HAL_Driver/Src/stm32h7xx_hal_tim_ex.c ****     (#) Synchronization circuit to control the timer with external signals and to
  36:Drivers/STM32H7xx_HAL_Driver/Src/stm32h7xx_hal_tim_ex.c ****         interconnect several timers together.
  37:Drivers/STM32H7xx_HAL_Driver/Src/stm32h7xx_hal_tim_ex.c ****     (#) Break input to put the timer output signals in reset state or in a known state.
  38:Drivers/STM32H7xx_HAL_Driver/Src/stm32h7xx_hal_tim_ex.c ****     (#) Supports incremental (quadrature) encoder and hall-sensor circuitry for
  39:Drivers/STM32H7xx_HAL_Driver/Src/stm32h7xx_hal_tim_ex.c ****         positioning purposes
  40:Drivers/STM32H7xx_HAL_Driver/Src/stm32h7xx_hal_tim_ex.c **** 
  41:Drivers/STM32H7xx_HAL_Driver/Src/stm32h7xx_hal_tim_ex.c ****             ##### How to use this driver #####
  42:Drivers/STM32H7xx_HAL_Driver/Src/stm32h7xx_hal_tim_ex.c ****   ==============================================================================
  43:Drivers/STM32H7xx_HAL_Driver/Src/stm32h7xx_hal_tim_ex.c ****     [..]
  44:Drivers/STM32H7xx_HAL_Driver/Src/stm32h7xx_hal_tim_ex.c ****      (#) Initialize the TIM low level resources by implementing the following functions
  45:Drivers/STM32H7xx_HAL_Driver/Src/stm32h7xx_hal_tim_ex.c ****          depending on the selected feature:
  46:Drivers/STM32H7xx_HAL_Driver/Src/stm32h7xx_hal_tim_ex.c ****            (++) Hall Sensor output : HAL_TIMEx_HallSensor_MspInit()
  47:Drivers/STM32H7xx_HAL_Driver/Src/stm32h7xx_hal_tim_ex.c **** 
  48:Drivers/STM32H7xx_HAL_Driver/Src/stm32h7xx_hal_tim_ex.c ****      (#) Initialize the TIM low level resources :
  49:Drivers/STM32H7xx_HAL_Driver/Src/stm32h7xx_hal_tim_ex.c ****         (##) Enable the TIM interface clock using __HAL_RCC_TIMx_CLK_ENABLE();
  50:Drivers/STM32H7xx_HAL_Driver/Src/stm32h7xx_hal_tim_ex.c ****         (##) TIM pins configuration
  51:Drivers/STM32H7xx_HAL_Driver/Src/stm32h7xx_hal_tim_ex.c ****             (+++) Enable the clock for the TIM GPIOs using the following function:
  52:Drivers/STM32H7xx_HAL_Driver/Src/stm32h7xx_hal_tim_ex.c ****               __HAL_RCC_GPIOx_CLK_ENABLE();
  53:Drivers/STM32H7xx_HAL_Driver/Src/stm32h7xx_hal_tim_ex.c ****             (+++) Configure these TIM pins in Alternate function mode using HAL_GPIO_Init();
  54:Drivers/STM32H7xx_HAL_Driver/Src/stm32h7xx_hal_tim_ex.c **** 
  55:Drivers/STM32H7xx_HAL_Driver/Src/stm32h7xx_hal_tim_ex.c ****      (#) The external Clock can be configured, if needed (the default clock is the
  56:Drivers/STM32H7xx_HAL_Driver/Src/stm32h7xx_hal_tim_ex.c ****          internal clock from the APBx), using the following function:
  57:Drivers/STM32H7xx_HAL_Driver/Src/stm32h7xx_hal_tim_ex.c ****          HAL_TIM_ConfigClockSource, the clock configuration should be done before
  58:Drivers/STM32H7xx_HAL_Driver/Src/stm32h7xx_hal_tim_ex.c ****          any start function.
  59:Drivers/STM32H7xx_HAL_Driver/Src/stm32h7xx_hal_tim_ex.c **** 
  60:Drivers/STM32H7xx_HAL_Driver/Src/stm32h7xx_hal_tim_ex.c ****      (#) Configure the TIM in the desired functioning mode using one of the
  61:Drivers/STM32H7xx_HAL_Driver/Src/stm32h7xx_hal_tim_ex.c ****          initialization function of this driver:
  62:Drivers/STM32H7xx_HAL_Driver/Src/stm32h7xx_hal_tim_ex.c ****           (++) HAL_TIMEx_HallSensor_Init() and HAL_TIMEx_ConfigCommutEvent(): to use the
  63:Drivers/STM32H7xx_HAL_Driver/Src/stm32h7xx_hal_tim_ex.c ****                Timer Hall Sensor Interface and the commutation event with the corresponding
  64:Drivers/STM32H7xx_HAL_Driver/Src/stm32h7xx_hal_tim_ex.c ****                Interrupt and DMA request if needed (Note that One Timer is used to interface
  65:Drivers/STM32H7xx_HAL_Driver/Src/stm32h7xx_hal_tim_ex.c ****                with the Hall sensor Interface and another Timer should be used to use
  66:Drivers/STM32H7xx_HAL_Driver/Src/stm32h7xx_hal_tim_ex.c ****                the commutation event).
  67:Drivers/STM32H7xx_HAL_Driver/Src/stm32h7xx_hal_tim_ex.c **** 
  68:Drivers/STM32H7xx_HAL_Driver/Src/stm32h7xx_hal_tim_ex.c ****      (#) Activate the TIM peripheral using one of the start functions:
  69:Drivers/STM32H7xx_HAL_Driver/Src/stm32h7xx_hal_tim_ex.c ****            (++) Complementary Output Compare : HAL_TIMEx_OCN_Start(), HAL_TIMEx_OCN_Start_DMA(),
  70:Drivers/STM32H7xx_HAL_Driver/Src/stm32h7xx_hal_tim_ex.c ****                 HAL_TIMEx_OCN_Start_IT()
  71:Drivers/STM32H7xx_HAL_Driver/Src/stm32h7xx_hal_tim_ex.c ****            (++) Complementary PWM generation : HAL_TIMEx_PWMN_Start(), HAL_TIMEx_PWMN_Start_DMA(),
  72:Drivers/STM32H7xx_HAL_Driver/Src/stm32h7xx_hal_tim_ex.c ****                 HAL_TIMEx_PWMN_Start_IT()
  73:Drivers/STM32H7xx_HAL_Driver/Src/stm32h7xx_hal_tim_ex.c ****            (++) Complementary One-pulse mode output : HAL_TIMEx_OnePulseN_Start(), HAL_TIMEx_OnePul
  74:Drivers/STM32H7xx_HAL_Driver/Src/stm32h7xx_hal_tim_ex.c ****            (++) Hall Sensor output : HAL_TIMEx_HallSensor_Start(), HAL_TIMEx_HallSensor_Start_DMA()
  75:Drivers/STM32H7xx_HAL_Driver/Src/stm32h7xx_hal_tim_ex.c ****                 HAL_TIMEx_HallSensor_Start_IT().
  76:Drivers/STM32H7xx_HAL_Driver/Src/stm32h7xx_hal_tim_ex.c **** 
  77:Drivers/STM32H7xx_HAL_Driver/Src/stm32h7xx_hal_tim_ex.c ****   @endverbatim
  78:Drivers/STM32H7xx_HAL_Driver/Src/stm32h7xx_hal_tim_ex.c ****   ******************************************************************************
  79:Drivers/STM32H7xx_HAL_Driver/Src/stm32h7xx_hal_tim_ex.c ****   */
  80:Drivers/STM32H7xx_HAL_Driver/Src/stm32h7xx_hal_tim_ex.c **** 
  81:Drivers/STM32H7xx_HAL_Driver/Src/stm32h7xx_hal_tim_ex.c **** /* Includes ------------------------------------------------------------------*/
  82:Drivers/STM32H7xx_HAL_Driver/Src/stm32h7xx_hal_tim_ex.c **** #include "stm32h7xx_hal.h"
  83:Drivers/STM32H7xx_HAL_Driver/Src/stm32h7xx_hal_tim_ex.c **** 
  84:Drivers/STM32H7xx_HAL_Driver/Src/stm32h7xx_hal_tim_ex.c **** /** @addtogroup STM32H7xx_HAL_Driver
  85:Drivers/STM32H7xx_HAL_Driver/Src/stm32h7xx_hal_tim_ex.c ****   * @{
  86:Drivers/STM32H7xx_HAL_Driver/Src/stm32h7xx_hal_tim_ex.c ****   */
  87:Drivers/STM32H7xx_HAL_Driver/Src/stm32h7xx_hal_tim_ex.c **** 
  88:Drivers/STM32H7xx_HAL_Driver/Src/stm32h7xx_hal_tim_ex.c **** /** @defgroup TIMEx TIMEx
ARM GAS  C:\Users\TGSPOC~1\AppData\Local\Temp\ccBCX0SZ.s 			page 3


  89:Drivers/STM32H7xx_HAL_Driver/Src/stm32h7xx_hal_tim_ex.c ****   * @brief TIM Extended HAL module driver
  90:Drivers/STM32H7xx_HAL_Driver/Src/stm32h7xx_hal_tim_ex.c ****   * @{
  91:Drivers/STM32H7xx_HAL_Driver/Src/stm32h7xx_hal_tim_ex.c ****   */
  92:Drivers/STM32H7xx_HAL_Driver/Src/stm32h7xx_hal_tim_ex.c **** 
  93:Drivers/STM32H7xx_HAL_Driver/Src/stm32h7xx_hal_tim_ex.c **** #ifdef HAL_TIM_MODULE_ENABLED
  94:Drivers/STM32H7xx_HAL_Driver/Src/stm32h7xx_hal_tim_ex.c **** 
  95:Drivers/STM32H7xx_HAL_Driver/Src/stm32h7xx_hal_tim_ex.c **** /* Private typedef -----------------------------------------------------------*/
  96:Drivers/STM32H7xx_HAL_Driver/Src/stm32h7xx_hal_tim_ex.c **** /* Private define ------------------------------------------------------------*/
  97:Drivers/STM32H7xx_HAL_Driver/Src/stm32h7xx_hal_tim_ex.c **** #if defined(TIM_BDTR_BKBID)
  98:Drivers/STM32H7xx_HAL_Driver/Src/stm32h7xx_hal_tim_ex.c **** /* Private constants ---------------------------------------------------------*/
  99:Drivers/STM32H7xx_HAL_Driver/Src/stm32h7xx_hal_tim_ex.c **** /** @defgroup TIMEx_Private_Constants TIM Extended Private Constants
 100:Drivers/STM32H7xx_HAL_Driver/Src/stm32h7xx_hal_tim_ex.c ****   * @{
 101:Drivers/STM32H7xx_HAL_Driver/Src/stm32h7xx_hal_tim_ex.c ****   */
 102:Drivers/STM32H7xx_HAL_Driver/Src/stm32h7xx_hal_tim_ex.c **** /* Timeout for break input rearm */
 103:Drivers/STM32H7xx_HAL_Driver/Src/stm32h7xx_hal_tim_ex.c **** #define TIM_BREAKINPUT_REARM_TIMEOUT    5UL /* 5 milliseconds */
 104:Drivers/STM32H7xx_HAL_Driver/Src/stm32h7xx_hal_tim_ex.c **** /**
 105:Drivers/STM32H7xx_HAL_Driver/Src/stm32h7xx_hal_tim_ex.c ****   * @}
 106:Drivers/STM32H7xx_HAL_Driver/Src/stm32h7xx_hal_tim_ex.c ****   */
 107:Drivers/STM32H7xx_HAL_Driver/Src/stm32h7xx_hal_tim_ex.c **** /* End of private constants --------------------------------------------------*/
 108:Drivers/STM32H7xx_HAL_Driver/Src/stm32h7xx_hal_tim_ex.c **** 
 109:Drivers/STM32H7xx_HAL_Driver/Src/stm32h7xx_hal_tim_ex.c **** #endif /* TIM_BDTR_BKBID */
 110:Drivers/STM32H7xx_HAL_Driver/Src/stm32h7xx_hal_tim_ex.c **** /* Private macros ------------------------------------------------------------*/
 111:Drivers/STM32H7xx_HAL_Driver/Src/stm32h7xx_hal_tim_ex.c **** /* Private variables ---------------------------------------------------------*/
 112:Drivers/STM32H7xx_HAL_Driver/Src/stm32h7xx_hal_tim_ex.c **** /* Private function prototypes -----------------------------------------------*/
 113:Drivers/STM32H7xx_HAL_Driver/Src/stm32h7xx_hal_tim_ex.c **** static void TIM_DMADelayPulseNCplt(DMA_HandleTypeDef *hdma);
 114:Drivers/STM32H7xx_HAL_Driver/Src/stm32h7xx_hal_tim_ex.c **** static void TIM_DMAErrorCCxN(DMA_HandleTypeDef *hdma);
 115:Drivers/STM32H7xx_HAL_Driver/Src/stm32h7xx_hal_tim_ex.c **** static void TIM_CCxNChannelCmd(TIM_TypeDef *TIMx, uint32_t Channel, uint32_t ChannelNState);
 116:Drivers/STM32H7xx_HAL_Driver/Src/stm32h7xx_hal_tim_ex.c **** 
 117:Drivers/STM32H7xx_HAL_Driver/Src/stm32h7xx_hal_tim_ex.c **** /* Exported functions --------------------------------------------------------*/
 118:Drivers/STM32H7xx_HAL_Driver/Src/stm32h7xx_hal_tim_ex.c **** /** @defgroup TIMEx_Exported_Functions TIM Extended Exported Functions
 119:Drivers/STM32H7xx_HAL_Driver/Src/stm32h7xx_hal_tim_ex.c ****   * @{
 120:Drivers/STM32H7xx_HAL_Driver/Src/stm32h7xx_hal_tim_ex.c ****   */
 121:Drivers/STM32H7xx_HAL_Driver/Src/stm32h7xx_hal_tim_ex.c **** 
 122:Drivers/STM32H7xx_HAL_Driver/Src/stm32h7xx_hal_tim_ex.c **** /** @defgroup TIMEx_Exported_Functions_Group1 Extended Timer Hall Sensor functions
 123:Drivers/STM32H7xx_HAL_Driver/Src/stm32h7xx_hal_tim_ex.c ****   * @brief    Timer Hall Sensor functions
 124:Drivers/STM32H7xx_HAL_Driver/Src/stm32h7xx_hal_tim_ex.c ****   *
 125:Drivers/STM32H7xx_HAL_Driver/Src/stm32h7xx_hal_tim_ex.c **** @verbatim
 126:Drivers/STM32H7xx_HAL_Driver/Src/stm32h7xx_hal_tim_ex.c ****   ==============================================================================
 127:Drivers/STM32H7xx_HAL_Driver/Src/stm32h7xx_hal_tim_ex.c ****                       ##### Timer Hall Sensor functions #####
 128:Drivers/STM32H7xx_HAL_Driver/Src/stm32h7xx_hal_tim_ex.c ****   ==============================================================================
 129:Drivers/STM32H7xx_HAL_Driver/Src/stm32h7xx_hal_tim_ex.c ****   [..]
 130:Drivers/STM32H7xx_HAL_Driver/Src/stm32h7xx_hal_tim_ex.c ****     This section provides functions allowing to:
 131:Drivers/STM32H7xx_HAL_Driver/Src/stm32h7xx_hal_tim_ex.c ****     (+) Initialize and configure TIM HAL Sensor.
 132:Drivers/STM32H7xx_HAL_Driver/Src/stm32h7xx_hal_tim_ex.c ****     (+) De-initialize TIM HAL Sensor.
 133:Drivers/STM32H7xx_HAL_Driver/Src/stm32h7xx_hal_tim_ex.c ****     (+) Start the Hall Sensor Interface.
 134:Drivers/STM32H7xx_HAL_Driver/Src/stm32h7xx_hal_tim_ex.c ****     (+) Stop the Hall Sensor Interface.
 135:Drivers/STM32H7xx_HAL_Driver/Src/stm32h7xx_hal_tim_ex.c ****     (+) Start the Hall Sensor Interface and enable interrupts.
 136:Drivers/STM32H7xx_HAL_Driver/Src/stm32h7xx_hal_tim_ex.c ****     (+) Stop the Hall Sensor Interface and disable interrupts.
 137:Drivers/STM32H7xx_HAL_Driver/Src/stm32h7xx_hal_tim_ex.c ****     (+) Start the Hall Sensor Interface and enable DMA transfers.
 138:Drivers/STM32H7xx_HAL_Driver/Src/stm32h7xx_hal_tim_ex.c ****     (+) Stop the Hall Sensor Interface and disable DMA transfers.
 139:Drivers/STM32H7xx_HAL_Driver/Src/stm32h7xx_hal_tim_ex.c **** 
 140:Drivers/STM32H7xx_HAL_Driver/Src/stm32h7xx_hal_tim_ex.c **** @endverbatim
 141:Drivers/STM32H7xx_HAL_Driver/Src/stm32h7xx_hal_tim_ex.c ****   * @{
 142:Drivers/STM32H7xx_HAL_Driver/Src/stm32h7xx_hal_tim_ex.c ****   */
 143:Drivers/STM32H7xx_HAL_Driver/Src/stm32h7xx_hal_tim_ex.c **** /**
 144:Drivers/STM32H7xx_HAL_Driver/Src/stm32h7xx_hal_tim_ex.c ****   * @brief  Initializes the TIM Hall Sensor Interface and initialize the associated handle.
 145:Drivers/STM32H7xx_HAL_Driver/Src/stm32h7xx_hal_tim_ex.c ****   * @note   When the timer instance is initialized in Hall Sensor Interface mode,
ARM GAS  C:\Users\TGSPOC~1\AppData\Local\Temp\ccBCX0SZ.s 			page 4


 146:Drivers/STM32H7xx_HAL_Driver/Src/stm32h7xx_hal_tim_ex.c ****   *         timer channels 1 and channel 2 are reserved and cannot be used for
 147:Drivers/STM32H7xx_HAL_Driver/Src/stm32h7xx_hal_tim_ex.c ****   *         other purpose.
 148:Drivers/STM32H7xx_HAL_Driver/Src/stm32h7xx_hal_tim_ex.c ****   * @param  htim TIM Hall Sensor Interface handle
 149:Drivers/STM32H7xx_HAL_Driver/Src/stm32h7xx_hal_tim_ex.c ****   * @param  sConfig TIM Hall Sensor configuration structure
 150:Drivers/STM32H7xx_HAL_Driver/Src/stm32h7xx_hal_tim_ex.c ****   * @retval HAL status
 151:Drivers/STM32H7xx_HAL_Driver/Src/stm32h7xx_hal_tim_ex.c ****   */
 152:Drivers/STM32H7xx_HAL_Driver/Src/stm32h7xx_hal_tim_ex.c **** HAL_StatusTypeDef HAL_TIMEx_HallSensor_Init(TIM_HandleTypeDef *htim, const TIM_HallSensor_InitTypeD
 153:Drivers/STM32H7xx_HAL_Driver/Src/stm32h7xx_hal_tim_ex.c **** {
  28              		.loc 1 153 1
  29              		.cfi_startproc
  30              		@ args = 0, pretend = 0, frame = 40
  31              		@ frame_needed = 1, uses_anonymous_args = 0
  32 0000 80B5     		push	{r7, lr}
  33              	.LCFI0:
  34              		.cfi_def_cfa_offset 8
  35              		.cfi_offset 7, -8
  36              		.cfi_offset 14, -4
  37 0002 8AB0     		sub	sp, sp, #40
  38              	.LCFI1:
  39              		.cfi_def_cfa_offset 48
  40 0004 00AF     		add	r7, sp, #0
  41              	.LCFI2:
  42              		.cfi_def_cfa_register 7
  43 0006 7860     		str	r0, [r7, #4]
  44 0008 3960     		str	r1, [r7]
 154:Drivers/STM32H7xx_HAL_Driver/Src/stm32h7xx_hal_tim_ex.c ****   TIM_OC_InitTypeDef OC_Config;
 155:Drivers/STM32H7xx_HAL_Driver/Src/stm32h7xx_hal_tim_ex.c **** 
 156:Drivers/STM32H7xx_HAL_Driver/Src/stm32h7xx_hal_tim_ex.c ****   /* Check the TIM handle allocation */
 157:Drivers/STM32H7xx_HAL_Driver/Src/stm32h7xx_hal_tim_ex.c ****   if (htim == NULL)
  45              		.loc 1 157 6
  46 000a 7B68     		ldr	r3, [r7, #4]
  47 000c 002B     		cmp	r3, #0
  48 000e 01D1     		bne	.L2
 158:Drivers/STM32H7xx_HAL_Driver/Src/stm32h7xx_hal_tim_ex.c ****   {
 159:Drivers/STM32H7xx_HAL_Driver/Src/stm32h7xx_hal_tim_ex.c ****     return HAL_ERROR;
  49              		.loc 1 159 12
  50 0010 0123     		movs	r3, #1
  51 0012 9AE0     		b	.L5
  52              	.L2:
 160:Drivers/STM32H7xx_HAL_Driver/Src/stm32h7xx_hal_tim_ex.c ****   }
 161:Drivers/STM32H7xx_HAL_Driver/Src/stm32h7xx_hal_tim_ex.c **** 
 162:Drivers/STM32H7xx_HAL_Driver/Src/stm32h7xx_hal_tim_ex.c ****   /* Check the parameters */
 163:Drivers/STM32H7xx_HAL_Driver/Src/stm32h7xx_hal_tim_ex.c ****   assert_param(IS_TIM_HALL_SENSOR_INTERFACE_INSTANCE(htim->Instance));
 164:Drivers/STM32H7xx_HAL_Driver/Src/stm32h7xx_hal_tim_ex.c ****   assert_param(IS_TIM_COUNTER_MODE(htim->Init.CounterMode));
 165:Drivers/STM32H7xx_HAL_Driver/Src/stm32h7xx_hal_tim_ex.c ****   assert_param(IS_TIM_CLOCKDIVISION_DIV(htim->Init.ClockDivision));
 166:Drivers/STM32H7xx_HAL_Driver/Src/stm32h7xx_hal_tim_ex.c ****   assert_param(IS_TIM_AUTORELOAD_PRELOAD(htim->Init.AutoReloadPreload));
 167:Drivers/STM32H7xx_HAL_Driver/Src/stm32h7xx_hal_tim_ex.c ****   assert_param(IS_TIM_IC_POLARITY(sConfig->IC1Polarity));
 168:Drivers/STM32H7xx_HAL_Driver/Src/stm32h7xx_hal_tim_ex.c ****   assert_param(IS_TIM_PERIOD(htim, htim->Init.Period));
 169:Drivers/STM32H7xx_HAL_Driver/Src/stm32h7xx_hal_tim_ex.c ****   assert_param(IS_TIM_IC_PRESCALER(sConfig->IC1Prescaler));
 170:Drivers/STM32H7xx_HAL_Driver/Src/stm32h7xx_hal_tim_ex.c ****   assert_param(IS_TIM_IC_FILTER(sConfig->IC1Filter));
 171:Drivers/STM32H7xx_HAL_Driver/Src/stm32h7xx_hal_tim_ex.c **** 
 172:Drivers/STM32H7xx_HAL_Driver/Src/stm32h7xx_hal_tim_ex.c ****   if (htim->State == HAL_TIM_STATE_RESET)
  53              		.loc 1 172 11
  54 0014 7B68     		ldr	r3, [r7, #4]
  55 0016 93F83D30 		ldrb	r3, [r3, #61]
  56 001a DBB2     		uxtb	r3, r3
  57              		.loc 1 172 6
ARM GAS  C:\Users\TGSPOC~1\AppData\Local\Temp\ccBCX0SZ.s 			page 5


  58 001c 002B     		cmp	r3, #0
  59 001e 06D1     		bne	.L4
 173:Drivers/STM32H7xx_HAL_Driver/Src/stm32h7xx_hal_tim_ex.c ****   {
 174:Drivers/STM32H7xx_HAL_Driver/Src/stm32h7xx_hal_tim_ex.c ****     /* Allocate lock resource and initialize it */
 175:Drivers/STM32H7xx_HAL_Driver/Src/stm32h7xx_hal_tim_ex.c ****     htim->Lock = HAL_UNLOCKED;
  60              		.loc 1 175 16
  61 0020 7B68     		ldr	r3, [r7, #4]
  62 0022 0022     		movs	r2, #0
  63 0024 83F83C20 		strb	r2, [r3, #60]
 176:Drivers/STM32H7xx_HAL_Driver/Src/stm32h7xx_hal_tim_ex.c **** 
 177:Drivers/STM32H7xx_HAL_Driver/Src/stm32h7xx_hal_tim_ex.c **** #if (USE_HAL_TIM_REGISTER_CALLBACKS == 1)
 178:Drivers/STM32H7xx_HAL_Driver/Src/stm32h7xx_hal_tim_ex.c ****     /* Reset interrupt callbacks to legacy week callbacks */
 179:Drivers/STM32H7xx_HAL_Driver/Src/stm32h7xx_hal_tim_ex.c ****     TIM_ResetCallback(htim);
 180:Drivers/STM32H7xx_HAL_Driver/Src/stm32h7xx_hal_tim_ex.c **** 
 181:Drivers/STM32H7xx_HAL_Driver/Src/stm32h7xx_hal_tim_ex.c ****     if (htim->HallSensor_MspInitCallback == NULL)
 182:Drivers/STM32H7xx_HAL_Driver/Src/stm32h7xx_hal_tim_ex.c ****     {
 183:Drivers/STM32H7xx_HAL_Driver/Src/stm32h7xx_hal_tim_ex.c ****       htim->HallSensor_MspInitCallback = HAL_TIMEx_HallSensor_MspInit;
 184:Drivers/STM32H7xx_HAL_Driver/Src/stm32h7xx_hal_tim_ex.c ****     }
 185:Drivers/STM32H7xx_HAL_Driver/Src/stm32h7xx_hal_tim_ex.c ****     /* Init the low level hardware : GPIO, CLOCK, NVIC */
 186:Drivers/STM32H7xx_HAL_Driver/Src/stm32h7xx_hal_tim_ex.c ****     htim->HallSensor_MspInitCallback(htim);
 187:Drivers/STM32H7xx_HAL_Driver/Src/stm32h7xx_hal_tim_ex.c **** #else
 188:Drivers/STM32H7xx_HAL_Driver/Src/stm32h7xx_hal_tim_ex.c ****     /* Init the low level hardware : GPIO, CLOCK, NVIC and DMA */
 189:Drivers/STM32H7xx_HAL_Driver/Src/stm32h7xx_hal_tim_ex.c ****     HAL_TIMEx_HallSensor_MspInit(htim);
  64              		.loc 1 189 5
  65 0028 7868     		ldr	r0, [r7, #4]
  66 002a FFF7FEFF 		bl	HAL_TIMEx_HallSensor_MspInit
  67              	.L4:
 190:Drivers/STM32H7xx_HAL_Driver/Src/stm32h7xx_hal_tim_ex.c **** #endif /* USE_HAL_TIM_REGISTER_CALLBACKS */
 191:Drivers/STM32H7xx_HAL_Driver/Src/stm32h7xx_hal_tim_ex.c ****   }
 192:Drivers/STM32H7xx_HAL_Driver/Src/stm32h7xx_hal_tim_ex.c **** 
 193:Drivers/STM32H7xx_HAL_Driver/Src/stm32h7xx_hal_tim_ex.c ****   /* Set the TIM state */
 194:Drivers/STM32H7xx_HAL_Driver/Src/stm32h7xx_hal_tim_ex.c ****   htim->State = HAL_TIM_STATE_BUSY;
  68              		.loc 1 194 15
  69 002e 7B68     		ldr	r3, [r7, #4]
  70 0030 0222     		movs	r2, #2
  71 0032 83F83D20 		strb	r2, [r3, #61]
 195:Drivers/STM32H7xx_HAL_Driver/Src/stm32h7xx_hal_tim_ex.c **** 
 196:Drivers/STM32H7xx_HAL_Driver/Src/stm32h7xx_hal_tim_ex.c ****   /* Configure the Time base in the Encoder Mode */
 197:Drivers/STM32H7xx_HAL_Driver/Src/stm32h7xx_hal_tim_ex.c ****   TIM_Base_SetConfig(htim->Instance, &htim->Init);
  72              		.loc 1 197 3
  73 0036 7B68     		ldr	r3, [r7, #4]
  74 0038 1A68     		ldr	r2, [r3]
  75              		.loc 1 197 38
  76 003a 7B68     		ldr	r3, [r7, #4]
  77 003c 0433     		adds	r3, r3, #4
  78              		.loc 1 197 3
  79 003e 1946     		mov	r1, r3
  80 0040 1046     		mov	r0, r2
  81 0042 FFF7FEFF 		bl	TIM_Base_SetConfig
 198:Drivers/STM32H7xx_HAL_Driver/Src/stm32h7xx_hal_tim_ex.c **** 
 199:Drivers/STM32H7xx_HAL_Driver/Src/stm32h7xx_hal_tim_ex.c ****   /* Configure the Channel 1 as Input Channel to interface with the three Outputs of the  Hall sens
 200:Drivers/STM32H7xx_HAL_Driver/Src/stm32h7xx_hal_tim_ex.c ****   TIM_TI1_SetConfig(htim->Instance, sConfig->IC1Polarity, TIM_ICSELECTION_TRC, sConfig->IC1Filter);
  82              		.loc 1 200 3
  83 0046 7B68     		ldr	r3, [r7, #4]
  84 0048 1868     		ldr	r0, [r3]
  85              		.loc 1 200 44
  86 004a 3B68     		ldr	r3, [r7]
ARM GAS  C:\Users\TGSPOC~1\AppData\Local\Temp\ccBCX0SZ.s 			page 6


  87 004c 1968     		ldr	r1, [r3]
  88              		.loc 1 200 87
  89 004e 3B68     		ldr	r3, [r7]
  90 0050 9B68     		ldr	r3, [r3, #8]
  91              		.loc 1 200 3
  92 0052 0322     		movs	r2, #3
  93 0054 FFF7FEFF 		bl	TIM_TI1_SetConfig
 201:Drivers/STM32H7xx_HAL_Driver/Src/stm32h7xx_hal_tim_ex.c **** 
 202:Drivers/STM32H7xx_HAL_Driver/Src/stm32h7xx_hal_tim_ex.c ****   /* Reset the IC1PSC Bits */
 203:Drivers/STM32H7xx_HAL_Driver/Src/stm32h7xx_hal_tim_ex.c ****   htim->Instance->CCMR1 &= ~TIM_CCMR1_IC1PSC;
  94              		.loc 1 203 7
  95 0058 7B68     		ldr	r3, [r7, #4]
  96 005a 1B68     		ldr	r3, [r3]
  97              		.loc 1 203 17
  98 005c 9A69     		ldr	r2, [r3, #24]
  99              		.loc 1 203 7
 100 005e 7B68     		ldr	r3, [r7, #4]
 101 0060 1B68     		ldr	r3, [r3]
 102              		.loc 1 203 25
 103 0062 22F00C02 		bic	r2, r2, #12
 104 0066 9A61     		str	r2, [r3, #24]
 204:Drivers/STM32H7xx_HAL_Driver/Src/stm32h7xx_hal_tim_ex.c ****   /* Set the IC1PSC value */
 205:Drivers/STM32H7xx_HAL_Driver/Src/stm32h7xx_hal_tim_ex.c ****   htim->Instance->CCMR1 |= sConfig->IC1Prescaler;
 105              		.loc 1 205 7
 106 0068 7B68     		ldr	r3, [r7, #4]
 107 006a 1B68     		ldr	r3, [r3]
 108              		.loc 1 205 17
 109 006c 9969     		ldr	r1, [r3, #24]
 110              		.loc 1 205 35
 111 006e 3B68     		ldr	r3, [r7]
 112 0070 5A68     		ldr	r2, [r3, #4]
 113              		.loc 1 205 7
 114 0072 7B68     		ldr	r3, [r7, #4]
 115 0074 1B68     		ldr	r3, [r3]
 116              		.loc 1 205 25
 117 0076 0A43     		orrs	r2, r2, r1
 118 0078 9A61     		str	r2, [r3, #24]
 206:Drivers/STM32H7xx_HAL_Driver/Src/stm32h7xx_hal_tim_ex.c **** 
 207:Drivers/STM32H7xx_HAL_Driver/Src/stm32h7xx_hal_tim_ex.c ****   /* Enable the Hall sensor interface (XOR function of the three inputs) */
 208:Drivers/STM32H7xx_HAL_Driver/Src/stm32h7xx_hal_tim_ex.c ****   htim->Instance->CR2 |= TIM_CR2_TI1S;
 119              		.loc 1 208 7
 120 007a 7B68     		ldr	r3, [r7, #4]
 121 007c 1B68     		ldr	r3, [r3]
 122              		.loc 1 208 17
 123 007e 5A68     		ldr	r2, [r3, #4]
 124              		.loc 1 208 7
 125 0080 7B68     		ldr	r3, [r7, #4]
 126 0082 1B68     		ldr	r3, [r3]
 127              		.loc 1 208 23
 128 0084 42F08002 		orr	r2, r2, #128
 129 0088 5A60     		str	r2, [r3, #4]
 209:Drivers/STM32H7xx_HAL_Driver/Src/stm32h7xx_hal_tim_ex.c **** 
 210:Drivers/STM32H7xx_HAL_Driver/Src/stm32h7xx_hal_tim_ex.c ****   /* Select the TIM_TS_TI1F_ED signal as Input trigger for the TIM */
 211:Drivers/STM32H7xx_HAL_Driver/Src/stm32h7xx_hal_tim_ex.c ****   htim->Instance->SMCR &= ~TIM_SMCR_TS;
 130              		.loc 1 211 7
 131 008a 7B68     		ldr	r3, [r7, #4]
 132 008c 1B68     		ldr	r3, [r3]
ARM GAS  C:\Users\TGSPOC~1\AppData\Local\Temp\ccBCX0SZ.s 			page 7


 133              		.loc 1 211 17
 134 008e 9968     		ldr	r1, [r3, #8]
 135              		.loc 1 211 7
 136 0090 7B68     		ldr	r3, [r7, #4]
 137 0092 1A68     		ldr	r2, [r3]
 138              		.loc 1 211 24
 139 0094 2F4B     		ldr	r3, .L6
 140 0096 0B40     		ands	r3, r3, r1
 141 0098 9360     		str	r3, [r2, #8]
 212:Drivers/STM32H7xx_HAL_Driver/Src/stm32h7xx_hal_tim_ex.c ****   htim->Instance->SMCR |= TIM_TS_TI1F_ED;
 142              		.loc 1 212 7
 143 009a 7B68     		ldr	r3, [r7, #4]
 144 009c 1B68     		ldr	r3, [r3]
 145              		.loc 1 212 17
 146 009e 9A68     		ldr	r2, [r3, #8]
 147              		.loc 1 212 7
 148 00a0 7B68     		ldr	r3, [r7, #4]
 149 00a2 1B68     		ldr	r3, [r3]
 150              		.loc 1 212 24
 151 00a4 42F04002 		orr	r2, r2, #64
 152 00a8 9A60     		str	r2, [r3, #8]
 213:Drivers/STM32H7xx_HAL_Driver/Src/stm32h7xx_hal_tim_ex.c **** 
 214:Drivers/STM32H7xx_HAL_Driver/Src/stm32h7xx_hal_tim_ex.c ****   /* Use the TIM_TS_TI1F_ED signal to reset the TIM counter each edge detection */
 215:Drivers/STM32H7xx_HAL_Driver/Src/stm32h7xx_hal_tim_ex.c ****   htim->Instance->SMCR &= ~TIM_SMCR_SMS;
 153              		.loc 1 215 7
 154 00aa 7B68     		ldr	r3, [r7, #4]
 155 00ac 1B68     		ldr	r3, [r3]
 156              		.loc 1 215 17
 157 00ae 9968     		ldr	r1, [r3, #8]
 158              		.loc 1 215 7
 159 00b0 7B68     		ldr	r3, [r7, #4]
 160 00b2 1A68     		ldr	r2, [r3]
 161              		.loc 1 215 24
 162 00b4 284B     		ldr	r3, .L6+4
 163 00b6 0B40     		ands	r3, r3, r1
 164 00b8 9360     		str	r3, [r2, #8]
 216:Drivers/STM32H7xx_HAL_Driver/Src/stm32h7xx_hal_tim_ex.c ****   htim->Instance->SMCR |= TIM_SLAVEMODE_RESET;
 165              		.loc 1 216 7
 166 00ba 7B68     		ldr	r3, [r7, #4]
 167 00bc 1B68     		ldr	r3, [r3]
 168              		.loc 1 216 17
 169 00be 9A68     		ldr	r2, [r3, #8]
 170              		.loc 1 216 7
 171 00c0 7B68     		ldr	r3, [r7, #4]
 172 00c2 1B68     		ldr	r3, [r3]
 173              		.loc 1 216 24
 174 00c4 42F00402 		orr	r2, r2, #4
 175 00c8 9A60     		str	r2, [r3, #8]
 217:Drivers/STM32H7xx_HAL_Driver/Src/stm32h7xx_hal_tim_ex.c **** 
 218:Drivers/STM32H7xx_HAL_Driver/Src/stm32h7xx_hal_tim_ex.c ****   /* Program channel 2 in PWM 2 mode with the desired Commutation_Delay*/
 219:Drivers/STM32H7xx_HAL_Driver/Src/stm32h7xx_hal_tim_ex.c ****   OC_Config.OCFastMode = TIM_OCFAST_DISABLE;
 176              		.loc 1 219 24
 177 00ca 0023     		movs	r3, #0
 178 00cc FB61     		str	r3, [r7, #28]
 220:Drivers/STM32H7xx_HAL_Driver/Src/stm32h7xx_hal_tim_ex.c ****   OC_Config.OCIdleState = TIM_OCIDLESTATE_RESET;
 179              		.loc 1 220 25
 180 00ce 0023     		movs	r3, #0
ARM GAS  C:\Users\TGSPOC~1\AppData\Local\Temp\ccBCX0SZ.s 			page 8


 181 00d0 3B62     		str	r3, [r7, #32]
 221:Drivers/STM32H7xx_HAL_Driver/Src/stm32h7xx_hal_tim_ex.c ****   OC_Config.OCMode = TIM_OCMODE_PWM2;
 182              		.loc 1 221 20
 183 00d2 7023     		movs	r3, #112
 184 00d4 FB60     		str	r3, [r7, #12]
 222:Drivers/STM32H7xx_HAL_Driver/Src/stm32h7xx_hal_tim_ex.c ****   OC_Config.OCNIdleState = TIM_OCNIDLESTATE_RESET;
 185              		.loc 1 222 26
 186 00d6 0023     		movs	r3, #0
 187 00d8 7B62     		str	r3, [r7, #36]
 223:Drivers/STM32H7xx_HAL_Driver/Src/stm32h7xx_hal_tim_ex.c ****   OC_Config.OCNPolarity = TIM_OCNPOLARITY_HIGH;
 188              		.loc 1 223 25
 189 00da 0023     		movs	r3, #0
 190 00dc BB61     		str	r3, [r7, #24]
 224:Drivers/STM32H7xx_HAL_Driver/Src/stm32h7xx_hal_tim_ex.c ****   OC_Config.OCPolarity = TIM_OCPOLARITY_HIGH;
 191              		.loc 1 224 24
 192 00de 0023     		movs	r3, #0
 193 00e0 7B61     		str	r3, [r7, #20]
 225:Drivers/STM32H7xx_HAL_Driver/Src/stm32h7xx_hal_tim_ex.c ****   OC_Config.Pulse = sConfig->Commutation_Delay;
 194              		.loc 1 225 28
 195 00e2 3B68     		ldr	r3, [r7]
 196 00e4 DB68     		ldr	r3, [r3, #12]
 197              		.loc 1 225 19
 198 00e6 3B61     		str	r3, [r7, #16]
 226:Drivers/STM32H7xx_HAL_Driver/Src/stm32h7xx_hal_tim_ex.c **** 
 227:Drivers/STM32H7xx_HAL_Driver/Src/stm32h7xx_hal_tim_ex.c ****   TIM_OC2_SetConfig(htim->Instance, &OC_Config);
 199              		.loc 1 227 3
 200 00e8 7B68     		ldr	r3, [r7, #4]
 201 00ea 1B68     		ldr	r3, [r3]
 202 00ec 07F10C02 		add	r2, r7, #12
 203 00f0 1146     		mov	r1, r2
 204 00f2 1846     		mov	r0, r3
 205 00f4 FFF7FEFF 		bl	TIM_OC2_SetConfig
 228:Drivers/STM32H7xx_HAL_Driver/Src/stm32h7xx_hal_tim_ex.c **** 
 229:Drivers/STM32H7xx_HAL_Driver/Src/stm32h7xx_hal_tim_ex.c ****   /* Select OC2REF as trigger output on TRGO: write the MMS bits in the TIMx_CR2
 230:Drivers/STM32H7xx_HAL_Driver/Src/stm32h7xx_hal_tim_ex.c ****     register to 101 */
 231:Drivers/STM32H7xx_HAL_Driver/Src/stm32h7xx_hal_tim_ex.c ****   htim->Instance->CR2 &= ~TIM_CR2_MMS;
 206              		.loc 1 231 7
 207 00f8 7B68     		ldr	r3, [r7, #4]
 208 00fa 1B68     		ldr	r3, [r3]
 209              		.loc 1 231 17
 210 00fc 5A68     		ldr	r2, [r3, #4]
 211              		.loc 1 231 7
 212 00fe 7B68     		ldr	r3, [r7, #4]
 213 0100 1B68     		ldr	r3, [r3]
 214              		.loc 1 231 23
 215 0102 22F07002 		bic	r2, r2, #112
 216 0106 5A60     		str	r2, [r3, #4]
 232:Drivers/STM32H7xx_HAL_Driver/Src/stm32h7xx_hal_tim_ex.c ****   htim->Instance->CR2 |= TIM_TRGO_OC2REF;
 217              		.loc 1 232 7
 218 0108 7B68     		ldr	r3, [r7, #4]
 219 010a 1B68     		ldr	r3, [r3]
 220              		.loc 1 232 17
 221 010c 5A68     		ldr	r2, [r3, #4]
 222              		.loc 1 232 7
 223 010e 7B68     		ldr	r3, [r7, #4]
 224 0110 1B68     		ldr	r3, [r3]
 225              		.loc 1 232 23
ARM GAS  C:\Users\TGSPOC~1\AppData\Local\Temp\ccBCX0SZ.s 			page 9


 226 0112 42F05002 		orr	r2, r2, #80
 227 0116 5A60     		str	r2, [r3, #4]
 233:Drivers/STM32H7xx_HAL_Driver/Src/stm32h7xx_hal_tim_ex.c **** 
 234:Drivers/STM32H7xx_HAL_Driver/Src/stm32h7xx_hal_tim_ex.c ****   /* Initialize the DMA burst operation state */
 235:Drivers/STM32H7xx_HAL_Driver/Src/stm32h7xx_hal_tim_ex.c ****   htim->DMABurstState = HAL_DMA_BURST_STATE_READY;
 228              		.loc 1 235 23
 229 0118 7B68     		ldr	r3, [r7, #4]
 230 011a 0122     		movs	r2, #1
 231 011c 83F84820 		strb	r2, [r3, #72]
 236:Drivers/STM32H7xx_HAL_Driver/Src/stm32h7xx_hal_tim_ex.c **** 
 237:Drivers/STM32H7xx_HAL_Driver/Src/stm32h7xx_hal_tim_ex.c ****   /* Initialize the TIM channels state */
 238:Drivers/STM32H7xx_HAL_Driver/Src/stm32h7xx_hal_tim_ex.c ****   TIM_CHANNEL_STATE_SET(htim, TIM_CHANNEL_1, HAL_TIM_CHANNEL_STATE_READY);
 232              		.loc 1 238 3
 233 0120 7B68     		ldr	r3, [r7, #4]
 234 0122 0122     		movs	r2, #1
 235 0124 83F83E20 		strb	r2, [r3, #62]
 239:Drivers/STM32H7xx_HAL_Driver/Src/stm32h7xx_hal_tim_ex.c ****   TIM_CHANNEL_STATE_SET(htim, TIM_CHANNEL_2, HAL_TIM_CHANNEL_STATE_READY);
 236              		.loc 1 239 3
 237 0128 7B68     		ldr	r3, [r7, #4]
 238 012a 0122     		movs	r2, #1
 239 012c 83F83F20 		strb	r2, [r3, #63]
 240:Drivers/STM32H7xx_HAL_Driver/Src/stm32h7xx_hal_tim_ex.c ****   TIM_CHANNEL_N_STATE_SET(htim, TIM_CHANNEL_1, HAL_TIM_CHANNEL_STATE_READY);
 240              		.loc 1 240 3
 241 0130 7B68     		ldr	r3, [r7, #4]
 242 0132 0122     		movs	r2, #1
 243 0134 83F84420 		strb	r2, [r3, #68]
 241:Drivers/STM32H7xx_HAL_Driver/Src/stm32h7xx_hal_tim_ex.c ****   TIM_CHANNEL_N_STATE_SET(htim, TIM_CHANNEL_2, HAL_TIM_CHANNEL_STATE_READY);
 244              		.loc 1 241 3
 245 0138 7B68     		ldr	r3, [r7, #4]
 246 013a 0122     		movs	r2, #1
 247 013c 83F84520 		strb	r2, [r3, #69]
 242:Drivers/STM32H7xx_HAL_Driver/Src/stm32h7xx_hal_tim_ex.c **** 
 243:Drivers/STM32H7xx_HAL_Driver/Src/stm32h7xx_hal_tim_ex.c ****   /* Initialize the TIM state*/
 244:Drivers/STM32H7xx_HAL_Driver/Src/stm32h7xx_hal_tim_ex.c ****   htim->State = HAL_TIM_STATE_READY;
 248              		.loc 1 244 15
 249 0140 7B68     		ldr	r3, [r7, #4]
 250 0142 0122     		movs	r2, #1
 251 0144 83F83D20 		strb	r2, [r3, #61]
 245:Drivers/STM32H7xx_HAL_Driver/Src/stm32h7xx_hal_tim_ex.c **** 
 246:Drivers/STM32H7xx_HAL_Driver/Src/stm32h7xx_hal_tim_ex.c ****   return HAL_OK;
 252              		.loc 1 246 10
 253 0148 0023     		movs	r3, #0
 254              	.L5:
 247:Drivers/STM32H7xx_HAL_Driver/Src/stm32h7xx_hal_tim_ex.c **** }
 255              		.loc 1 247 1
 256 014a 1846     		mov	r0, r3
 257 014c 2837     		adds	r7, r7, #40
 258              	.LCFI3:
 259              		.cfi_def_cfa_offset 8
 260 014e BD46     		mov	sp, r7
 261              	.LCFI4:
 262              		.cfi_def_cfa_register 13
 263              		@ sp needed
 264 0150 80BD     		pop	{r7, pc}
 265              	.L7:
 266 0152 00BF     		.align	2
 267              	.L6:
ARM GAS  C:\Users\TGSPOC~1\AppData\Local\Temp\ccBCX0SZ.s 			page 10


 268 0154 8FFFCFFF 		.word	-3145841
 269 0158 F8FFFEFF 		.word	-65544
 270              		.cfi_endproc
 271              	.LFE144:
 273              		.section	.text.HAL_TIMEx_HallSensor_DeInit,"ax",%progbits
 274              		.align	1
 275              		.global	HAL_TIMEx_HallSensor_DeInit
 276              		.syntax unified
 277              		.thumb
 278              		.thumb_func
 280              	HAL_TIMEx_HallSensor_DeInit:
 281              	.LFB145:
 248:Drivers/STM32H7xx_HAL_Driver/Src/stm32h7xx_hal_tim_ex.c **** 
 249:Drivers/STM32H7xx_HAL_Driver/Src/stm32h7xx_hal_tim_ex.c **** /**
 250:Drivers/STM32H7xx_HAL_Driver/Src/stm32h7xx_hal_tim_ex.c ****   * @brief  DeInitializes the TIM Hall Sensor interface
 251:Drivers/STM32H7xx_HAL_Driver/Src/stm32h7xx_hal_tim_ex.c ****   * @param  htim TIM Hall Sensor Interface handle
 252:Drivers/STM32H7xx_HAL_Driver/Src/stm32h7xx_hal_tim_ex.c ****   * @retval HAL status
 253:Drivers/STM32H7xx_HAL_Driver/Src/stm32h7xx_hal_tim_ex.c ****   */
 254:Drivers/STM32H7xx_HAL_Driver/Src/stm32h7xx_hal_tim_ex.c **** HAL_StatusTypeDef HAL_TIMEx_HallSensor_DeInit(TIM_HandleTypeDef *htim)
 255:Drivers/STM32H7xx_HAL_Driver/Src/stm32h7xx_hal_tim_ex.c **** {
 282              		.loc 1 255 1
 283              		.cfi_startproc
 284              		@ args = 0, pretend = 0, frame = 8
 285              		@ frame_needed = 1, uses_anonymous_args = 0
 286 0000 80B5     		push	{r7, lr}
 287              	.LCFI5:
 288              		.cfi_def_cfa_offset 8
 289              		.cfi_offset 7, -8
 290              		.cfi_offset 14, -4
 291 0002 82B0     		sub	sp, sp, #8
 292              	.LCFI6:
 293              		.cfi_def_cfa_offset 16
 294 0004 00AF     		add	r7, sp, #0
 295              	.LCFI7:
 296              		.cfi_def_cfa_register 7
 297 0006 7860     		str	r0, [r7, #4]
 256:Drivers/STM32H7xx_HAL_Driver/Src/stm32h7xx_hal_tim_ex.c ****   /* Check the parameters */
 257:Drivers/STM32H7xx_HAL_Driver/Src/stm32h7xx_hal_tim_ex.c ****   assert_param(IS_TIM_INSTANCE(htim->Instance));
 258:Drivers/STM32H7xx_HAL_Driver/Src/stm32h7xx_hal_tim_ex.c **** 
 259:Drivers/STM32H7xx_HAL_Driver/Src/stm32h7xx_hal_tim_ex.c ****   htim->State = HAL_TIM_STATE_BUSY;
 298              		.loc 1 259 15
 299 0008 7B68     		ldr	r3, [r7, #4]
 300 000a 0222     		movs	r2, #2
 301 000c 83F83D20 		strb	r2, [r3, #61]
 260:Drivers/STM32H7xx_HAL_Driver/Src/stm32h7xx_hal_tim_ex.c **** 
 261:Drivers/STM32H7xx_HAL_Driver/Src/stm32h7xx_hal_tim_ex.c ****   /* Disable the TIM Peripheral Clock */
 262:Drivers/STM32H7xx_HAL_Driver/Src/stm32h7xx_hal_tim_ex.c ****   __HAL_TIM_DISABLE(htim);
 302              		.loc 1 262 3
 303 0010 7B68     		ldr	r3, [r7, #4]
 304 0012 1B68     		ldr	r3, [r3]
 305 0014 1A6A     		ldr	r2, [r3, #32]
 306 0016 41F21113 		movw	r3, #4369
 307 001a 1340     		ands	r3, r3, r2
 308 001c 002B     		cmp	r3, #0
 309 001e 0FD1     		bne	.L9
 310              		.loc 1 262 3 is_stmt 0 discriminator 1
 311 0020 7B68     		ldr	r3, [r7, #4]
ARM GAS  C:\Users\TGSPOC~1\AppData\Local\Temp\ccBCX0SZ.s 			page 11


 312 0022 1B68     		ldr	r3, [r3]
 313 0024 1A6A     		ldr	r2, [r3, #32]
 314 0026 40F24443 		movw	r3, #1092
 315 002a 1340     		ands	r3, r3, r2
 316 002c 002B     		cmp	r3, #0
 317 002e 07D1     		bne	.L9
 318              		.loc 1 262 3 discriminator 2
 319 0030 7B68     		ldr	r3, [r7, #4]
 320 0032 1B68     		ldr	r3, [r3]
 321 0034 1A68     		ldr	r2, [r3]
 322 0036 7B68     		ldr	r3, [r7, #4]
 323 0038 1B68     		ldr	r3, [r3]
 324 003a 22F00102 		bic	r2, r2, #1
 325 003e 1A60     		str	r2, [r3]
 326              	.L9:
 263:Drivers/STM32H7xx_HAL_Driver/Src/stm32h7xx_hal_tim_ex.c **** 
 264:Drivers/STM32H7xx_HAL_Driver/Src/stm32h7xx_hal_tim_ex.c **** #if (USE_HAL_TIM_REGISTER_CALLBACKS == 1)
 265:Drivers/STM32H7xx_HAL_Driver/Src/stm32h7xx_hal_tim_ex.c ****   if (htim->HallSensor_MspDeInitCallback == NULL)
 266:Drivers/STM32H7xx_HAL_Driver/Src/stm32h7xx_hal_tim_ex.c ****   {
 267:Drivers/STM32H7xx_HAL_Driver/Src/stm32h7xx_hal_tim_ex.c ****     htim->HallSensor_MspDeInitCallback = HAL_TIMEx_HallSensor_MspDeInit;
 268:Drivers/STM32H7xx_HAL_Driver/Src/stm32h7xx_hal_tim_ex.c ****   }
 269:Drivers/STM32H7xx_HAL_Driver/Src/stm32h7xx_hal_tim_ex.c ****   /* DeInit the low level hardware */
 270:Drivers/STM32H7xx_HAL_Driver/Src/stm32h7xx_hal_tim_ex.c ****   htim->HallSensor_MspDeInitCallback(htim);
 271:Drivers/STM32H7xx_HAL_Driver/Src/stm32h7xx_hal_tim_ex.c **** #else
 272:Drivers/STM32H7xx_HAL_Driver/Src/stm32h7xx_hal_tim_ex.c ****   /* DeInit the low level hardware: GPIO, CLOCK, NVIC */
 273:Drivers/STM32H7xx_HAL_Driver/Src/stm32h7xx_hal_tim_ex.c ****   HAL_TIMEx_HallSensor_MspDeInit(htim);
 327              		.loc 1 273 3 is_stmt 1
 328 0040 7868     		ldr	r0, [r7, #4]
 329 0042 FFF7FEFF 		bl	HAL_TIMEx_HallSensor_MspDeInit
 274:Drivers/STM32H7xx_HAL_Driver/Src/stm32h7xx_hal_tim_ex.c **** #endif /* USE_HAL_TIM_REGISTER_CALLBACKS */
 275:Drivers/STM32H7xx_HAL_Driver/Src/stm32h7xx_hal_tim_ex.c **** 
 276:Drivers/STM32H7xx_HAL_Driver/Src/stm32h7xx_hal_tim_ex.c ****   /* Change the DMA burst operation state */
 277:Drivers/STM32H7xx_HAL_Driver/Src/stm32h7xx_hal_tim_ex.c ****   htim->DMABurstState = HAL_DMA_BURST_STATE_RESET;
 330              		.loc 1 277 23
 331 0046 7B68     		ldr	r3, [r7, #4]
 332 0048 0022     		movs	r2, #0
 333 004a 83F84820 		strb	r2, [r3, #72]
 278:Drivers/STM32H7xx_HAL_Driver/Src/stm32h7xx_hal_tim_ex.c **** 
 279:Drivers/STM32H7xx_HAL_Driver/Src/stm32h7xx_hal_tim_ex.c ****   /* Change the TIM channels state */
 280:Drivers/STM32H7xx_HAL_Driver/Src/stm32h7xx_hal_tim_ex.c ****   TIM_CHANNEL_STATE_SET(htim, TIM_CHANNEL_1, HAL_TIM_CHANNEL_STATE_RESET);
 334              		.loc 1 280 3
 335 004e 7B68     		ldr	r3, [r7, #4]
 336 0050 0022     		movs	r2, #0
 337 0052 83F83E20 		strb	r2, [r3, #62]
 281:Drivers/STM32H7xx_HAL_Driver/Src/stm32h7xx_hal_tim_ex.c ****   TIM_CHANNEL_STATE_SET(htim, TIM_CHANNEL_2, HAL_TIM_CHANNEL_STATE_RESET);
 338              		.loc 1 281 3
 339 0056 7B68     		ldr	r3, [r7, #4]
 340 0058 0022     		movs	r2, #0
 341 005a 83F83F20 		strb	r2, [r3, #63]
 282:Drivers/STM32H7xx_HAL_Driver/Src/stm32h7xx_hal_tim_ex.c ****   TIM_CHANNEL_N_STATE_SET(htim, TIM_CHANNEL_1, HAL_TIM_CHANNEL_STATE_RESET);
 342              		.loc 1 282 3
 343 005e 7B68     		ldr	r3, [r7, #4]
 344 0060 0022     		movs	r2, #0
 345 0062 83F84420 		strb	r2, [r3, #68]
 283:Drivers/STM32H7xx_HAL_Driver/Src/stm32h7xx_hal_tim_ex.c ****   TIM_CHANNEL_N_STATE_SET(htim, TIM_CHANNEL_2, HAL_TIM_CHANNEL_STATE_RESET);
 346              		.loc 1 283 3
 347 0066 7B68     		ldr	r3, [r7, #4]
ARM GAS  C:\Users\TGSPOC~1\AppData\Local\Temp\ccBCX0SZ.s 			page 12


 348 0068 0022     		movs	r2, #0
 349 006a 83F84520 		strb	r2, [r3, #69]
 284:Drivers/STM32H7xx_HAL_Driver/Src/stm32h7xx_hal_tim_ex.c **** 
 285:Drivers/STM32H7xx_HAL_Driver/Src/stm32h7xx_hal_tim_ex.c ****   /* Change TIM state */
 286:Drivers/STM32H7xx_HAL_Driver/Src/stm32h7xx_hal_tim_ex.c ****   htim->State = HAL_TIM_STATE_RESET;
 350              		.loc 1 286 15
 351 006e 7B68     		ldr	r3, [r7, #4]
 352 0070 0022     		movs	r2, #0
 353 0072 83F83D20 		strb	r2, [r3, #61]
 287:Drivers/STM32H7xx_HAL_Driver/Src/stm32h7xx_hal_tim_ex.c **** 
 288:Drivers/STM32H7xx_HAL_Driver/Src/stm32h7xx_hal_tim_ex.c ****   /* Release Lock */
 289:Drivers/STM32H7xx_HAL_Driver/Src/stm32h7xx_hal_tim_ex.c ****   __HAL_UNLOCK(htim);
 354              		.loc 1 289 3
 355 0076 7B68     		ldr	r3, [r7, #4]
 356 0078 0022     		movs	r2, #0
 357 007a 83F83C20 		strb	r2, [r3, #60]
 290:Drivers/STM32H7xx_HAL_Driver/Src/stm32h7xx_hal_tim_ex.c **** 
 291:Drivers/STM32H7xx_HAL_Driver/Src/stm32h7xx_hal_tim_ex.c ****   return HAL_OK;
 358              		.loc 1 291 10
 359 007e 0023     		movs	r3, #0
 292:Drivers/STM32H7xx_HAL_Driver/Src/stm32h7xx_hal_tim_ex.c **** }
 360              		.loc 1 292 1
 361 0080 1846     		mov	r0, r3
 362 0082 0837     		adds	r7, r7, #8
 363              	.LCFI8:
 364              		.cfi_def_cfa_offset 8
 365 0084 BD46     		mov	sp, r7
 366              	.LCFI9:
 367              		.cfi_def_cfa_register 13
 368              		@ sp needed
 369 0086 80BD     		pop	{r7, pc}
 370              		.cfi_endproc
 371              	.LFE145:
 373              		.section	.text.HAL_TIMEx_HallSensor_MspInit,"ax",%progbits
 374              		.align	1
 375              		.weak	HAL_TIMEx_HallSensor_MspInit
 376              		.syntax unified
 377              		.thumb
 378              		.thumb_func
 380              	HAL_TIMEx_HallSensor_MspInit:
 381              	.LFB146:
 293:Drivers/STM32H7xx_HAL_Driver/Src/stm32h7xx_hal_tim_ex.c **** 
 294:Drivers/STM32H7xx_HAL_Driver/Src/stm32h7xx_hal_tim_ex.c **** /**
 295:Drivers/STM32H7xx_HAL_Driver/Src/stm32h7xx_hal_tim_ex.c ****   * @brief  Initializes the TIM Hall Sensor MSP.
 296:Drivers/STM32H7xx_HAL_Driver/Src/stm32h7xx_hal_tim_ex.c ****   * @param  htim TIM Hall Sensor Interface handle
 297:Drivers/STM32H7xx_HAL_Driver/Src/stm32h7xx_hal_tim_ex.c ****   * @retval None
 298:Drivers/STM32H7xx_HAL_Driver/Src/stm32h7xx_hal_tim_ex.c ****   */
 299:Drivers/STM32H7xx_HAL_Driver/Src/stm32h7xx_hal_tim_ex.c **** __weak void HAL_TIMEx_HallSensor_MspInit(TIM_HandleTypeDef *htim)
 300:Drivers/STM32H7xx_HAL_Driver/Src/stm32h7xx_hal_tim_ex.c **** {
 382              		.loc 1 300 1
 383              		.cfi_startproc
 384              		@ args = 0, pretend = 0, frame = 8
 385              		@ frame_needed = 1, uses_anonymous_args = 0
 386              		@ link register save eliminated.
 387 0000 80B4     		push	{r7}
 388              	.LCFI10:
 389              		.cfi_def_cfa_offset 4
ARM GAS  C:\Users\TGSPOC~1\AppData\Local\Temp\ccBCX0SZ.s 			page 13


 390              		.cfi_offset 7, -4
 391 0002 83B0     		sub	sp, sp, #12
 392              	.LCFI11:
 393              		.cfi_def_cfa_offset 16
 394 0004 00AF     		add	r7, sp, #0
 395              	.LCFI12:
 396              		.cfi_def_cfa_register 7
 397 0006 7860     		str	r0, [r7, #4]
 301:Drivers/STM32H7xx_HAL_Driver/Src/stm32h7xx_hal_tim_ex.c ****   /* Prevent unused argument(s) compilation warning */
 302:Drivers/STM32H7xx_HAL_Driver/Src/stm32h7xx_hal_tim_ex.c ****   UNUSED(htim);
 303:Drivers/STM32H7xx_HAL_Driver/Src/stm32h7xx_hal_tim_ex.c **** 
 304:Drivers/STM32H7xx_HAL_Driver/Src/stm32h7xx_hal_tim_ex.c ****   /* NOTE : This function should not be modified, when the callback is needed,
 305:Drivers/STM32H7xx_HAL_Driver/Src/stm32h7xx_hal_tim_ex.c ****             the HAL_TIMEx_HallSensor_MspInit could be implemented in the user file
 306:Drivers/STM32H7xx_HAL_Driver/Src/stm32h7xx_hal_tim_ex.c ****    */
 307:Drivers/STM32H7xx_HAL_Driver/Src/stm32h7xx_hal_tim_ex.c **** }
 398              		.loc 1 307 1
 399 0008 00BF     		nop
 400 000a 0C37     		adds	r7, r7, #12
 401              	.LCFI13:
 402              		.cfi_def_cfa_offset 4
 403 000c BD46     		mov	sp, r7
 404              	.LCFI14:
 405              		.cfi_def_cfa_register 13
 406              		@ sp needed
 407 000e 5DF8047B 		ldr	r7, [sp], #4
 408              	.LCFI15:
 409              		.cfi_restore 7
 410              		.cfi_def_cfa_offset 0
 411 0012 7047     		bx	lr
 412              		.cfi_endproc
 413              	.LFE146:
 415              		.section	.text.HAL_TIMEx_HallSensor_MspDeInit,"ax",%progbits
 416              		.align	1
 417              		.weak	HAL_TIMEx_HallSensor_MspDeInit
 418              		.syntax unified
 419              		.thumb
 420              		.thumb_func
 422              	HAL_TIMEx_HallSensor_MspDeInit:
 423              	.LFB147:
 308:Drivers/STM32H7xx_HAL_Driver/Src/stm32h7xx_hal_tim_ex.c **** 
 309:Drivers/STM32H7xx_HAL_Driver/Src/stm32h7xx_hal_tim_ex.c **** /**
 310:Drivers/STM32H7xx_HAL_Driver/Src/stm32h7xx_hal_tim_ex.c ****   * @brief  DeInitializes TIM Hall Sensor MSP.
 311:Drivers/STM32H7xx_HAL_Driver/Src/stm32h7xx_hal_tim_ex.c ****   * @param  htim TIM Hall Sensor Interface handle
 312:Drivers/STM32H7xx_HAL_Driver/Src/stm32h7xx_hal_tim_ex.c ****   * @retval None
 313:Drivers/STM32H7xx_HAL_Driver/Src/stm32h7xx_hal_tim_ex.c ****   */
 314:Drivers/STM32H7xx_HAL_Driver/Src/stm32h7xx_hal_tim_ex.c **** __weak void HAL_TIMEx_HallSensor_MspDeInit(TIM_HandleTypeDef *htim)
 315:Drivers/STM32H7xx_HAL_Driver/Src/stm32h7xx_hal_tim_ex.c **** {
 424              		.loc 1 315 1
 425              		.cfi_startproc
 426              		@ args = 0, pretend = 0, frame = 8
 427              		@ frame_needed = 1, uses_anonymous_args = 0
 428              		@ link register save eliminated.
 429 0000 80B4     		push	{r7}
 430              	.LCFI16:
 431              		.cfi_def_cfa_offset 4
 432              		.cfi_offset 7, -4
 433 0002 83B0     		sub	sp, sp, #12
ARM GAS  C:\Users\TGSPOC~1\AppData\Local\Temp\ccBCX0SZ.s 			page 14


 434              	.LCFI17:
 435              		.cfi_def_cfa_offset 16
 436 0004 00AF     		add	r7, sp, #0
 437              	.LCFI18:
 438              		.cfi_def_cfa_register 7
 439 0006 7860     		str	r0, [r7, #4]
 316:Drivers/STM32H7xx_HAL_Driver/Src/stm32h7xx_hal_tim_ex.c ****   /* Prevent unused argument(s) compilation warning */
 317:Drivers/STM32H7xx_HAL_Driver/Src/stm32h7xx_hal_tim_ex.c ****   UNUSED(htim);
 318:Drivers/STM32H7xx_HAL_Driver/Src/stm32h7xx_hal_tim_ex.c **** 
 319:Drivers/STM32H7xx_HAL_Driver/Src/stm32h7xx_hal_tim_ex.c ****   /* NOTE : This function should not be modified, when the callback is needed,
 320:Drivers/STM32H7xx_HAL_Driver/Src/stm32h7xx_hal_tim_ex.c ****             the HAL_TIMEx_HallSensor_MspDeInit could be implemented in the user file
 321:Drivers/STM32H7xx_HAL_Driver/Src/stm32h7xx_hal_tim_ex.c ****    */
 322:Drivers/STM32H7xx_HAL_Driver/Src/stm32h7xx_hal_tim_ex.c **** }
 440              		.loc 1 322 1
 441 0008 00BF     		nop
 442 000a 0C37     		adds	r7, r7, #12
 443              	.LCFI19:
 444              		.cfi_def_cfa_offset 4
 445 000c BD46     		mov	sp, r7
 446              	.LCFI20:
 447              		.cfi_def_cfa_register 13
 448              		@ sp needed
 449 000e 5DF8047B 		ldr	r7, [sp], #4
 450              	.LCFI21:
 451              		.cfi_restore 7
 452              		.cfi_def_cfa_offset 0
 453 0012 7047     		bx	lr
 454              		.cfi_endproc
 455              	.LFE147:
 457              		.section	.text.HAL_TIMEx_HallSensor_Start,"ax",%progbits
 458              		.align	1
 459              		.global	HAL_TIMEx_HallSensor_Start
 460              		.syntax unified
 461              		.thumb
 462              		.thumb_func
 464              	HAL_TIMEx_HallSensor_Start:
 465              	.LFB148:
 323:Drivers/STM32H7xx_HAL_Driver/Src/stm32h7xx_hal_tim_ex.c **** 
 324:Drivers/STM32H7xx_HAL_Driver/Src/stm32h7xx_hal_tim_ex.c **** /**
 325:Drivers/STM32H7xx_HAL_Driver/Src/stm32h7xx_hal_tim_ex.c ****   * @brief  Starts the TIM Hall Sensor Interface.
 326:Drivers/STM32H7xx_HAL_Driver/Src/stm32h7xx_hal_tim_ex.c ****   * @param  htim TIM Hall Sensor Interface handle
 327:Drivers/STM32H7xx_HAL_Driver/Src/stm32h7xx_hal_tim_ex.c ****   * @retval HAL status
 328:Drivers/STM32H7xx_HAL_Driver/Src/stm32h7xx_hal_tim_ex.c ****   */
 329:Drivers/STM32H7xx_HAL_Driver/Src/stm32h7xx_hal_tim_ex.c **** HAL_StatusTypeDef HAL_TIMEx_HallSensor_Start(TIM_HandleTypeDef *htim)
 330:Drivers/STM32H7xx_HAL_Driver/Src/stm32h7xx_hal_tim_ex.c **** {
 466              		.loc 1 330 1
 467              		.cfi_startproc
 468              		@ args = 0, pretend = 0, frame = 16
 469              		@ frame_needed = 1, uses_anonymous_args = 0
 470 0000 80B5     		push	{r7, lr}
 471              	.LCFI22:
 472              		.cfi_def_cfa_offset 8
 473              		.cfi_offset 7, -8
 474              		.cfi_offset 14, -4
 475 0002 84B0     		sub	sp, sp, #16
 476              	.LCFI23:
 477              		.cfi_def_cfa_offset 24
ARM GAS  C:\Users\TGSPOC~1\AppData\Local\Temp\ccBCX0SZ.s 			page 15


 478 0004 00AF     		add	r7, sp, #0
 479              	.LCFI24:
 480              		.cfi_def_cfa_register 7
 481 0006 7860     		str	r0, [r7, #4]
 331:Drivers/STM32H7xx_HAL_Driver/Src/stm32h7xx_hal_tim_ex.c ****   uint32_t tmpsmcr;
 332:Drivers/STM32H7xx_HAL_Driver/Src/stm32h7xx_hal_tim_ex.c ****   HAL_TIM_ChannelStateTypeDef channel_1_state = TIM_CHANNEL_STATE_GET(htim, TIM_CHANNEL_1);
 482              		.loc 1 332 31
 483 0008 7B68     		ldr	r3, [r7, #4]
 484 000a 93F83E30 		ldrb	r3, [r3, #62]
 485 000e FB73     		strb	r3, [r7, #15]
 333:Drivers/STM32H7xx_HAL_Driver/Src/stm32h7xx_hal_tim_ex.c ****   HAL_TIM_ChannelStateTypeDef channel_2_state = TIM_CHANNEL_STATE_GET(htim, TIM_CHANNEL_2);
 486              		.loc 1 333 31
 487 0010 7B68     		ldr	r3, [r7, #4]
 488 0012 93F83F30 		ldrb	r3, [r3, #63]
 489 0016 BB73     		strb	r3, [r7, #14]
 334:Drivers/STM32H7xx_HAL_Driver/Src/stm32h7xx_hal_tim_ex.c ****   HAL_TIM_ChannelStateTypeDef complementary_channel_1_state = TIM_CHANNEL_N_STATE_GET(htim, TIM_CHA
 490              		.loc 1 334 31
 491 0018 7B68     		ldr	r3, [r7, #4]
 492 001a 93F84430 		ldrb	r3, [r3, #68]
 493 001e 7B73     		strb	r3, [r7, #13]
 335:Drivers/STM32H7xx_HAL_Driver/Src/stm32h7xx_hal_tim_ex.c ****   HAL_TIM_ChannelStateTypeDef complementary_channel_2_state = TIM_CHANNEL_N_STATE_GET(htim, TIM_CHA
 494              		.loc 1 335 31
 495 0020 7B68     		ldr	r3, [r7, #4]
 496 0022 93F84530 		ldrb	r3, [r3, #69]
 497 0026 3B73     		strb	r3, [r7, #12]
 336:Drivers/STM32H7xx_HAL_Driver/Src/stm32h7xx_hal_tim_ex.c **** 
 337:Drivers/STM32H7xx_HAL_Driver/Src/stm32h7xx_hal_tim_ex.c ****   /* Check the parameters */
 338:Drivers/STM32H7xx_HAL_Driver/Src/stm32h7xx_hal_tim_ex.c ****   assert_param(IS_TIM_HALL_SENSOR_INTERFACE_INSTANCE(htim->Instance));
 339:Drivers/STM32H7xx_HAL_Driver/Src/stm32h7xx_hal_tim_ex.c **** 
 340:Drivers/STM32H7xx_HAL_Driver/Src/stm32h7xx_hal_tim_ex.c ****   /* Check the TIM channels state */
 341:Drivers/STM32H7xx_HAL_Driver/Src/stm32h7xx_hal_tim_ex.c ****   if ((channel_1_state != HAL_TIM_CHANNEL_STATE_READY)
 498              		.loc 1 341 6
 499 0028 FB7B     		ldrb	r3, [r7, #15]	@ zero_extendqisi2
 500 002a 012B     		cmp	r3, #1
 501 002c 08D1     		bne	.L14
 342:Drivers/STM32H7xx_HAL_Driver/Src/stm32h7xx_hal_tim_ex.c ****       || (channel_2_state != HAL_TIM_CHANNEL_STATE_READY)
 502              		.loc 1 342 7
 503 002e BB7B     		ldrb	r3, [r7, #14]	@ zero_extendqisi2
 504 0030 012B     		cmp	r3, #1
 505 0032 05D1     		bne	.L14
 343:Drivers/STM32H7xx_HAL_Driver/Src/stm32h7xx_hal_tim_ex.c ****       || (complementary_channel_1_state != HAL_TIM_CHANNEL_STATE_READY)
 506              		.loc 1 343 7
 507 0034 7B7B     		ldrb	r3, [r7, #13]	@ zero_extendqisi2
 508 0036 012B     		cmp	r3, #1
 509 0038 02D1     		bne	.L14
 344:Drivers/STM32H7xx_HAL_Driver/Src/stm32h7xx_hal_tim_ex.c ****       || (complementary_channel_2_state != HAL_TIM_CHANNEL_STATE_READY))
 510              		.loc 1 344 7
 511 003a 3B7B     		ldrb	r3, [r7, #12]	@ zero_extendqisi2
 512 003c 012B     		cmp	r3, #1
 513 003e 01D0     		beq	.L15
 514              	.L14:
 345:Drivers/STM32H7xx_HAL_Driver/Src/stm32h7xx_hal_tim_ex.c ****   {
 346:Drivers/STM32H7xx_HAL_Driver/Src/stm32h7xx_hal_tim_ex.c ****     return HAL_ERROR;
 515              		.loc 1 346 12
 516 0040 0123     		movs	r3, #1
 517 0042 5FE0     		b	.L16
 518              	.L15:
ARM GAS  C:\Users\TGSPOC~1\AppData\Local\Temp\ccBCX0SZ.s 			page 16


 347:Drivers/STM32H7xx_HAL_Driver/Src/stm32h7xx_hal_tim_ex.c ****   }
 348:Drivers/STM32H7xx_HAL_Driver/Src/stm32h7xx_hal_tim_ex.c **** 
 349:Drivers/STM32H7xx_HAL_Driver/Src/stm32h7xx_hal_tim_ex.c ****   /* Set the TIM channels state */
 350:Drivers/STM32H7xx_HAL_Driver/Src/stm32h7xx_hal_tim_ex.c ****   TIM_CHANNEL_STATE_SET(htim, TIM_CHANNEL_1, HAL_TIM_CHANNEL_STATE_BUSY);
 519              		.loc 1 350 3
 520 0044 7B68     		ldr	r3, [r7, #4]
 521 0046 0222     		movs	r2, #2
 522 0048 83F83E20 		strb	r2, [r3, #62]
 351:Drivers/STM32H7xx_HAL_Driver/Src/stm32h7xx_hal_tim_ex.c ****   TIM_CHANNEL_STATE_SET(htim, TIM_CHANNEL_2, HAL_TIM_CHANNEL_STATE_BUSY);
 523              		.loc 1 351 3
 524 004c 7B68     		ldr	r3, [r7, #4]
 525 004e 0222     		movs	r2, #2
 526 0050 83F83F20 		strb	r2, [r3, #63]
 352:Drivers/STM32H7xx_HAL_Driver/Src/stm32h7xx_hal_tim_ex.c ****   TIM_CHANNEL_N_STATE_SET(htim, TIM_CHANNEL_1, HAL_TIM_CHANNEL_STATE_BUSY);
 527              		.loc 1 352 3
 528 0054 7B68     		ldr	r3, [r7, #4]
 529 0056 0222     		movs	r2, #2
 530 0058 83F84420 		strb	r2, [r3, #68]
 353:Drivers/STM32H7xx_HAL_Driver/Src/stm32h7xx_hal_tim_ex.c ****   TIM_CHANNEL_N_STATE_SET(htim, TIM_CHANNEL_2, HAL_TIM_CHANNEL_STATE_BUSY);
 531              		.loc 1 353 3
 532 005c 7B68     		ldr	r3, [r7, #4]
 533 005e 0222     		movs	r2, #2
 534 0060 83F84520 		strb	r2, [r3, #69]
 354:Drivers/STM32H7xx_HAL_Driver/Src/stm32h7xx_hal_tim_ex.c **** 
 355:Drivers/STM32H7xx_HAL_Driver/Src/stm32h7xx_hal_tim_ex.c ****   /* Enable the Input Capture channel 1
 356:Drivers/STM32H7xx_HAL_Driver/Src/stm32h7xx_hal_tim_ex.c ****   (in the Hall Sensor Interface the three possible channels that can be used are TIM_CHANNEL_1,
 357:Drivers/STM32H7xx_HAL_Driver/Src/stm32h7xx_hal_tim_ex.c ****   TIM_CHANNEL_2 and TIM_CHANNEL_3) */
 358:Drivers/STM32H7xx_HAL_Driver/Src/stm32h7xx_hal_tim_ex.c ****   TIM_CCxChannelCmd(htim->Instance, TIM_CHANNEL_1, TIM_CCx_ENABLE);
 535              		.loc 1 358 3
 536 0064 7B68     		ldr	r3, [r7, #4]
 537 0066 1B68     		ldr	r3, [r3]
 538 0068 0122     		movs	r2, #1
 539 006a 0021     		movs	r1, #0
 540 006c 1846     		mov	r0, r3
 541 006e FFF7FEFF 		bl	TIM_CCxChannelCmd
 359:Drivers/STM32H7xx_HAL_Driver/Src/stm32h7xx_hal_tim_ex.c **** 
 360:Drivers/STM32H7xx_HAL_Driver/Src/stm32h7xx_hal_tim_ex.c ****   /* Enable the Peripheral, except in trigger mode where enable is automatically done with trigger 
 361:Drivers/STM32H7xx_HAL_Driver/Src/stm32h7xx_hal_tim_ex.c ****   if (IS_TIM_SLAVE_INSTANCE(htim->Instance))
 542              		.loc 1 361 7
 543 0072 7B68     		ldr	r3, [r7, #4]
 544 0074 1B68     		ldr	r3, [r3]
 545              		.loc 1 361 6
 546 0076 254A     		ldr	r2, .L22
 547 0078 9342     		cmp	r3, r2
 548 007a 22D0     		beq	.L17
 549              		.loc 1 361 7 discriminator 1
 550 007c 7B68     		ldr	r3, [r7, #4]
 551 007e 1B68     		ldr	r3, [r3]
 552 0080 B3F1804F 		cmp	r3, #1073741824
 553 0084 1DD0     		beq	.L17
 554              		.loc 1 361 7 is_stmt 0 discriminator 2
 555 0086 7B68     		ldr	r3, [r7, #4]
 556 0088 1B68     		ldr	r3, [r3]
 557 008a 214A     		ldr	r2, .L22+4
 558 008c 9342     		cmp	r3, r2
 559 008e 18D0     		beq	.L17
 560              		.loc 1 361 7 discriminator 3
ARM GAS  C:\Users\TGSPOC~1\AppData\Local\Temp\ccBCX0SZ.s 			page 17


 561 0090 7B68     		ldr	r3, [r7, #4]
 562 0092 1B68     		ldr	r3, [r3]
 563 0094 1F4A     		ldr	r2, .L22+8
 564 0096 9342     		cmp	r3, r2
 565 0098 13D0     		beq	.L17
 566              		.loc 1 361 7 discriminator 4
 567 009a 7B68     		ldr	r3, [r7, #4]
 568 009c 1B68     		ldr	r3, [r3]
 569 009e 1E4A     		ldr	r2, .L22+12
 570 00a0 9342     		cmp	r3, r2
 571 00a2 0ED0     		beq	.L17
 572              		.loc 1 361 7 discriminator 5
 573 00a4 7B68     		ldr	r3, [r7, #4]
 574 00a6 1B68     		ldr	r3, [r3]
 575 00a8 1C4A     		ldr	r2, .L22+16
 576 00aa 9342     		cmp	r3, r2
 577 00ac 09D0     		beq	.L17
 578              		.loc 1 361 7 discriminator 6
 579 00ae 7B68     		ldr	r3, [r7, #4]
 580 00b0 1B68     		ldr	r3, [r3]
 581 00b2 1B4A     		ldr	r2, .L22+20
 582 00b4 9342     		cmp	r3, r2
 583 00b6 04D0     		beq	.L17
 584              		.loc 1 361 7 discriminator 7
 585 00b8 7B68     		ldr	r3, [r7, #4]
 586 00ba 1B68     		ldr	r3, [r3]
 587 00bc 194A     		ldr	r2, .L22+24
 588 00be 9342     		cmp	r3, r2
 589 00c0 15D1     		bne	.L18
 590              	.L17:
 362:Drivers/STM32H7xx_HAL_Driver/Src/stm32h7xx_hal_tim_ex.c ****   {
 363:Drivers/STM32H7xx_HAL_Driver/Src/stm32h7xx_hal_tim_ex.c ****     tmpsmcr = htim->Instance->SMCR & TIM_SMCR_SMS;
 591              		.loc 1 363 19 is_stmt 1
 592 00c2 7B68     		ldr	r3, [r7, #4]
 593 00c4 1B68     		ldr	r3, [r3]
 594              		.loc 1 363 29
 595 00c6 9A68     		ldr	r2, [r3, #8]
 596              		.loc 1 363 13
 597 00c8 174B     		ldr	r3, .L22+28
 598 00ca 1340     		ands	r3, r3, r2
 599 00cc BB60     		str	r3, [r7, #8]
 364:Drivers/STM32H7xx_HAL_Driver/Src/stm32h7xx_hal_tim_ex.c ****     if (!IS_TIM_SLAVEMODE_TRIGGER_ENABLED(tmpsmcr))
 600              		.loc 1 364 8
 601 00ce BB68     		ldr	r3, [r7, #8]
 602 00d0 062B     		cmp	r3, #6
 603 00d2 15D0     		beq	.L21
 604              		.loc 1 364 9 discriminator 1
 605 00d4 BB68     		ldr	r3, [r7, #8]
 606 00d6 B3F5803F 		cmp	r3, #65536
 607 00da 11D0     		beq	.L21
 365:Drivers/STM32H7xx_HAL_Driver/Src/stm32h7xx_hal_tim_ex.c ****     {
 366:Drivers/STM32H7xx_HAL_Driver/Src/stm32h7xx_hal_tim_ex.c ****       __HAL_TIM_ENABLE(htim);
 608              		.loc 1 366 7
 609 00dc 7B68     		ldr	r3, [r7, #4]
 610 00de 1B68     		ldr	r3, [r3]
 611 00e0 1A68     		ldr	r2, [r3]
 612 00e2 7B68     		ldr	r3, [r7, #4]
ARM GAS  C:\Users\TGSPOC~1\AppData\Local\Temp\ccBCX0SZ.s 			page 18


 613 00e4 1B68     		ldr	r3, [r3]
 614 00e6 42F00102 		orr	r2, r2, #1
 615 00ea 1A60     		str	r2, [r3]
 364:Drivers/STM32H7xx_HAL_Driver/Src/stm32h7xx_hal_tim_ex.c ****     if (!IS_TIM_SLAVEMODE_TRIGGER_ENABLED(tmpsmcr))
 616              		.loc 1 364 8
 617 00ec 08E0     		b	.L21
 618              	.L18:
 367:Drivers/STM32H7xx_HAL_Driver/Src/stm32h7xx_hal_tim_ex.c ****     }
 368:Drivers/STM32H7xx_HAL_Driver/Src/stm32h7xx_hal_tim_ex.c ****   }
 369:Drivers/STM32H7xx_HAL_Driver/Src/stm32h7xx_hal_tim_ex.c ****   else
 370:Drivers/STM32H7xx_HAL_Driver/Src/stm32h7xx_hal_tim_ex.c ****   {
 371:Drivers/STM32H7xx_HAL_Driver/Src/stm32h7xx_hal_tim_ex.c ****     __HAL_TIM_ENABLE(htim);
 619              		.loc 1 371 5
 620 00ee 7B68     		ldr	r3, [r7, #4]
 621 00f0 1B68     		ldr	r3, [r3]
 622 00f2 1A68     		ldr	r2, [r3]
 623 00f4 7B68     		ldr	r3, [r7, #4]
 624 00f6 1B68     		ldr	r3, [r3]
 625 00f8 42F00102 		orr	r2, r2, #1
 626 00fc 1A60     		str	r2, [r3]
 627 00fe 00E0     		b	.L20
 628              	.L21:
 364:Drivers/STM32H7xx_HAL_Driver/Src/stm32h7xx_hal_tim_ex.c ****     {
 629              		.loc 1 364 8
 630 0100 00BF     		nop
 631              	.L20:
 372:Drivers/STM32H7xx_HAL_Driver/Src/stm32h7xx_hal_tim_ex.c ****   }
 373:Drivers/STM32H7xx_HAL_Driver/Src/stm32h7xx_hal_tim_ex.c **** 
 374:Drivers/STM32H7xx_HAL_Driver/Src/stm32h7xx_hal_tim_ex.c ****   /* Return function status */
 375:Drivers/STM32H7xx_HAL_Driver/Src/stm32h7xx_hal_tim_ex.c ****   return HAL_OK;
 632              		.loc 1 375 10
 633 0102 0023     		movs	r3, #0
 634              	.L16:
 376:Drivers/STM32H7xx_HAL_Driver/Src/stm32h7xx_hal_tim_ex.c **** }
 635              		.loc 1 376 1
 636 0104 1846     		mov	r0, r3
 637 0106 1037     		adds	r7, r7, #16
 638              	.LCFI25:
 639              		.cfi_def_cfa_offset 8
 640 0108 BD46     		mov	sp, r7
 641              	.LCFI26:
 642              		.cfi_def_cfa_register 13
 643              		@ sp needed
 644 010a 80BD     		pop	{r7, pc}
 645              	.L23:
 646              		.align	2
 647              	.L22:
 648 010c 00000140 		.word	1073807360
 649 0110 00040040 		.word	1073742848
 650 0114 00080040 		.word	1073743872
 651 0118 000C0040 		.word	1073744896
 652 011c 00040140 		.word	1073808384
 653 0120 00180040 		.word	1073747968
 654 0124 00400140 		.word	1073823744
 655 0128 07000100 		.word	65543
 656              		.cfi_endproc
 657              	.LFE148:
ARM GAS  C:\Users\TGSPOC~1\AppData\Local\Temp\ccBCX0SZ.s 			page 19


 659              		.section	.text.HAL_TIMEx_HallSensor_Stop,"ax",%progbits
 660              		.align	1
 661              		.global	HAL_TIMEx_HallSensor_Stop
 662              		.syntax unified
 663              		.thumb
 664              		.thumb_func
 666              	HAL_TIMEx_HallSensor_Stop:
 667              	.LFB149:
 377:Drivers/STM32H7xx_HAL_Driver/Src/stm32h7xx_hal_tim_ex.c **** 
 378:Drivers/STM32H7xx_HAL_Driver/Src/stm32h7xx_hal_tim_ex.c **** /**
 379:Drivers/STM32H7xx_HAL_Driver/Src/stm32h7xx_hal_tim_ex.c ****   * @brief  Stops the TIM Hall sensor Interface.
 380:Drivers/STM32H7xx_HAL_Driver/Src/stm32h7xx_hal_tim_ex.c ****   * @param  htim TIM Hall Sensor Interface handle
 381:Drivers/STM32H7xx_HAL_Driver/Src/stm32h7xx_hal_tim_ex.c ****   * @retval HAL status
 382:Drivers/STM32H7xx_HAL_Driver/Src/stm32h7xx_hal_tim_ex.c ****   */
 383:Drivers/STM32H7xx_HAL_Driver/Src/stm32h7xx_hal_tim_ex.c **** HAL_StatusTypeDef HAL_TIMEx_HallSensor_Stop(TIM_HandleTypeDef *htim)
 384:Drivers/STM32H7xx_HAL_Driver/Src/stm32h7xx_hal_tim_ex.c **** {
 668              		.loc 1 384 1
 669              		.cfi_startproc
 670              		@ args = 0, pretend = 0, frame = 8
 671              		@ frame_needed = 1, uses_anonymous_args = 0
 672 0000 80B5     		push	{r7, lr}
 673              	.LCFI27:
 674              		.cfi_def_cfa_offset 8
 675              		.cfi_offset 7, -8
 676              		.cfi_offset 14, -4
 677 0002 82B0     		sub	sp, sp, #8
 678              	.LCFI28:
 679              		.cfi_def_cfa_offset 16
 680 0004 00AF     		add	r7, sp, #0
 681              	.LCFI29:
 682              		.cfi_def_cfa_register 7
 683 0006 7860     		str	r0, [r7, #4]
 385:Drivers/STM32H7xx_HAL_Driver/Src/stm32h7xx_hal_tim_ex.c ****   /* Check the parameters */
 386:Drivers/STM32H7xx_HAL_Driver/Src/stm32h7xx_hal_tim_ex.c ****   assert_param(IS_TIM_HALL_SENSOR_INTERFACE_INSTANCE(htim->Instance));
 387:Drivers/STM32H7xx_HAL_Driver/Src/stm32h7xx_hal_tim_ex.c **** 
 388:Drivers/STM32H7xx_HAL_Driver/Src/stm32h7xx_hal_tim_ex.c ****   /* Disable the Input Capture channels 1, 2 and 3
 389:Drivers/STM32H7xx_HAL_Driver/Src/stm32h7xx_hal_tim_ex.c ****   (in the Hall Sensor Interface the three possible channels that can be used are TIM_CHANNEL_1,
 390:Drivers/STM32H7xx_HAL_Driver/Src/stm32h7xx_hal_tim_ex.c ****   TIM_CHANNEL_2 and TIM_CHANNEL_3) */
 391:Drivers/STM32H7xx_HAL_Driver/Src/stm32h7xx_hal_tim_ex.c ****   TIM_CCxChannelCmd(htim->Instance, TIM_CHANNEL_1, TIM_CCx_DISABLE);
 684              		.loc 1 391 3
 685 0008 7B68     		ldr	r3, [r7, #4]
 686 000a 1B68     		ldr	r3, [r3]
 687 000c 0022     		movs	r2, #0
 688 000e 0021     		movs	r1, #0
 689 0010 1846     		mov	r0, r3
 690 0012 FFF7FEFF 		bl	TIM_CCxChannelCmd
 392:Drivers/STM32H7xx_HAL_Driver/Src/stm32h7xx_hal_tim_ex.c **** 
 393:Drivers/STM32H7xx_HAL_Driver/Src/stm32h7xx_hal_tim_ex.c ****   /* Disable the Peripheral */
 394:Drivers/STM32H7xx_HAL_Driver/Src/stm32h7xx_hal_tim_ex.c ****   __HAL_TIM_DISABLE(htim);
 691              		.loc 1 394 3
 692 0016 7B68     		ldr	r3, [r7, #4]
 693 0018 1B68     		ldr	r3, [r3]
 694 001a 1A6A     		ldr	r2, [r3, #32]
 695 001c 41F21113 		movw	r3, #4369
 696 0020 1340     		ands	r3, r3, r2
 697 0022 002B     		cmp	r3, #0
 698 0024 0FD1     		bne	.L25
ARM GAS  C:\Users\TGSPOC~1\AppData\Local\Temp\ccBCX0SZ.s 			page 20


 699              		.loc 1 394 3 is_stmt 0 discriminator 1
 700 0026 7B68     		ldr	r3, [r7, #4]
 701 0028 1B68     		ldr	r3, [r3]
 702 002a 1A6A     		ldr	r2, [r3, #32]
 703 002c 40F24443 		movw	r3, #1092
 704 0030 1340     		ands	r3, r3, r2
 705 0032 002B     		cmp	r3, #0
 706 0034 07D1     		bne	.L25
 707              		.loc 1 394 3 discriminator 2
 708 0036 7B68     		ldr	r3, [r7, #4]
 709 0038 1B68     		ldr	r3, [r3]
 710 003a 1A68     		ldr	r2, [r3]
 711 003c 7B68     		ldr	r3, [r7, #4]
 712 003e 1B68     		ldr	r3, [r3]
 713 0040 22F00102 		bic	r2, r2, #1
 714 0044 1A60     		str	r2, [r3]
 715              	.L25:
 395:Drivers/STM32H7xx_HAL_Driver/Src/stm32h7xx_hal_tim_ex.c **** 
 396:Drivers/STM32H7xx_HAL_Driver/Src/stm32h7xx_hal_tim_ex.c ****   /* Set the TIM channels state */
 397:Drivers/STM32H7xx_HAL_Driver/Src/stm32h7xx_hal_tim_ex.c ****   TIM_CHANNEL_STATE_SET(htim, TIM_CHANNEL_1, HAL_TIM_CHANNEL_STATE_READY);
 716              		.loc 1 397 3 is_stmt 1
 717 0046 7B68     		ldr	r3, [r7, #4]
 718 0048 0122     		movs	r2, #1
 719 004a 83F83E20 		strb	r2, [r3, #62]
 398:Drivers/STM32H7xx_HAL_Driver/Src/stm32h7xx_hal_tim_ex.c ****   TIM_CHANNEL_STATE_SET(htim, TIM_CHANNEL_2, HAL_TIM_CHANNEL_STATE_READY);
 720              		.loc 1 398 3
 721 004e 7B68     		ldr	r3, [r7, #4]
 722 0050 0122     		movs	r2, #1
 723 0052 83F83F20 		strb	r2, [r3, #63]
 399:Drivers/STM32H7xx_HAL_Driver/Src/stm32h7xx_hal_tim_ex.c ****   TIM_CHANNEL_N_STATE_SET(htim, TIM_CHANNEL_1, HAL_TIM_CHANNEL_STATE_READY);
 724              		.loc 1 399 3
 725 0056 7B68     		ldr	r3, [r7, #4]
 726 0058 0122     		movs	r2, #1
 727 005a 83F84420 		strb	r2, [r3, #68]
 400:Drivers/STM32H7xx_HAL_Driver/Src/stm32h7xx_hal_tim_ex.c ****   TIM_CHANNEL_N_STATE_SET(htim, TIM_CHANNEL_2, HAL_TIM_CHANNEL_STATE_READY);
 728              		.loc 1 400 3
 729 005e 7B68     		ldr	r3, [r7, #4]
 730 0060 0122     		movs	r2, #1
 731 0062 83F84520 		strb	r2, [r3, #69]
 401:Drivers/STM32H7xx_HAL_Driver/Src/stm32h7xx_hal_tim_ex.c **** 
 402:Drivers/STM32H7xx_HAL_Driver/Src/stm32h7xx_hal_tim_ex.c ****   /* Return function status */
 403:Drivers/STM32H7xx_HAL_Driver/Src/stm32h7xx_hal_tim_ex.c ****   return HAL_OK;
 732              		.loc 1 403 10
 733 0066 0023     		movs	r3, #0
 404:Drivers/STM32H7xx_HAL_Driver/Src/stm32h7xx_hal_tim_ex.c **** }
 734              		.loc 1 404 1
 735 0068 1846     		mov	r0, r3
 736 006a 0837     		adds	r7, r7, #8
 737              	.LCFI30:
 738              		.cfi_def_cfa_offset 8
 739 006c BD46     		mov	sp, r7
 740              	.LCFI31:
 741              		.cfi_def_cfa_register 13
 742              		@ sp needed
 743 006e 80BD     		pop	{r7, pc}
 744              		.cfi_endproc
 745              	.LFE149:
ARM GAS  C:\Users\TGSPOC~1\AppData\Local\Temp\ccBCX0SZ.s 			page 21


 747              		.section	.text.HAL_TIMEx_HallSensor_Start_IT,"ax",%progbits
 748              		.align	1
 749              		.global	HAL_TIMEx_HallSensor_Start_IT
 750              		.syntax unified
 751              		.thumb
 752              		.thumb_func
 754              	HAL_TIMEx_HallSensor_Start_IT:
 755              	.LFB150:
 405:Drivers/STM32H7xx_HAL_Driver/Src/stm32h7xx_hal_tim_ex.c **** 
 406:Drivers/STM32H7xx_HAL_Driver/Src/stm32h7xx_hal_tim_ex.c **** /**
 407:Drivers/STM32H7xx_HAL_Driver/Src/stm32h7xx_hal_tim_ex.c ****   * @brief  Starts the TIM Hall Sensor Interface in interrupt mode.
 408:Drivers/STM32H7xx_HAL_Driver/Src/stm32h7xx_hal_tim_ex.c ****   * @param  htim TIM Hall Sensor Interface handle
 409:Drivers/STM32H7xx_HAL_Driver/Src/stm32h7xx_hal_tim_ex.c ****   * @retval HAL status
 410:Drivers/STM32H7xx_HAL_Driver/Src/stm32h7xx_hal_tim_ex.c ****   */
 411:Drivers/STM32H7xx_HAL_Driver/Src/stm32h7xx_hal_tim_ex.c **** HAL_StatusTypeDef HAL_TIMEx_HallSensor_Start_IT(TIM_HandleTypeDef *htim)
 412:Drivers/STM32H7xx_HAL_Driver/Src/stm32h7xx_hal_tim_ex.c **** {
 756              		.loc 1 412 1
 757              		.cfi_startproc
 758              		@ args = 0, pretend = 0, frame = 16
 759              		@ frame_needed = 1, uses_anonymous_args = 0
 760 0000 80B5     		push	{r7, lr}
 761              	.LCFI32:
 762              		.cfi_def_cfa_offset 8
 763              		.cfi_offset 7, -8
 764              		.cfi_offset 14, -4
 765 0002 84B0     		sub	sp, sp, #16
 766              	.LCFI33:
 767              		.cfi_def_cfa_offset 24
 768 0004 00AF     		add	r7, sp, #0
 769              	.LCFI34:
 770              		.cfi_def_cfa_register 7
 771 0006 7860     		str	r0, [r7, #4]
 413:Drivers/STM32H7xx_HAL_Driver/Src/stm32h7xx_hal_tim_ex.c ****   uint32_t tmpsmcr;
 414:Drivers/STM32H7xx_HAL_Driver/Src/stm32h7xx_hal_tim_ex.c ****   HAL_TIM_ChannelStateTypeDef channel_1_state = TIM_CHANNEL_STATE_GET(htim, TIM_CHANNEL_1);
 772              		.loc 1 414 31
 773 0008 7B68     		ldr	r3, [r7, #4]
 774 000a 93F83E30 		ldrb	r3, [r3, #62]
 775 000e FB73     		strb	r3, [r7, #15]
 415:Drivers/STM32H7xx_HAL_Driver/Src/stm32h7xx_hal_tim_ex.c ****   HAL_TIM_ChannelStateTypeDef channel_2_state = TIM_CHANNEL_STATE_GET(htim, TIM_CHANNEL_2);
 776              		.loc 1 415 31
 777 0010 7B68     		ldr	r3, [r7, #4]
 778 0012 93F83F30 		ldrb	r3, [r3, #63]
 779 0016 BB73     		strb	r3, [r7, #14]
 416:Drivers/STM32H7xx_HAL_Driver/Src/stm32h7xx_hal_tim_ex.c ****   HAL_TIM_ChannelStateTypeDef complementary_channel_1_state = TIM_CHANNEL_N_STATE_GET(htim, TIM_CHA
 780              		.loc 1 416 31
 781 0018 7B68     		ldr	r3, [r7, #4]
 782 001a 93F84430 		ldrb	r3, [r3, #68]
 783 001e 7B73     		strb	r3, [r7, #13]
 417:Drivers/STM32H7xx_HAL_Driver/Src/stm32h7xx_hal_tim_ex.c ****   HAL_TIM_ChannelStateTypeDef complementary_channel_2_state = TIM_CHANNEL_N_STATE_GET(htim, TIM_CHA
 784              		.loc 1 417 31
 785 0020 7B68     		ldr	r3, [r7, #4]
 786 0022 93F84530 		ldrb	r3, [r3, #69]
 787 0026 3B73     		strb	r3, [r7, #12]
 418:Drivers/STM32H7xx_HAL_Driver/Src/stm32h7xx_hal_tim_ex.c **** 
 419:Drivers/STM32H7xx_HAL_Driver/Src/stm32h7xx_hal_tim_ex.c ****   /* Check the parameters */
 420:Drivers/STM32H7xx_HAL_Driver/Src/stm32h7xx_hal_tim_ex.c ****   assert_param(IS_TIM_HALL_SENSOR_INTERFACE_INSTANCE(htim->Instance));
 421:Drivers/STM32H7xx_HAL_Driver/Src/stm32h7xx_hal_tim_ex.c **** 
ARM GAS  C:\Users\TGSPOC~1\AppData\Local\Temp\ccBCX0SZ.s 			page 22


 422:Drivers/STM32H7xx_HAL_Driver/Src/stm32h7xx_hal_tim_ex.c ****   /* Check the TIM channels state */
 423:Drivers/STM32H7xx_HAL_Driver/Src/stm32h7xx_hal_tim_ex.c ****   if ((channel_1_state != HAL_TIM_CHANNEL_STATE_READY)
 788              		.loc 1 423 6
 789 0028 FB7B     		ldrb	r3, [r7, #15]	@ zero_extendqisi2
 790 002a 012B     		cmp	r3, #1
 791 002c 08D1     		bne	.L28
 424:Drivers/STM32H7xx_HAL_Driver/Src/stm32h7xx_hal_tim_ex.c ****       || (channel_2_state != HAL_TIM_CHANNEL_STATE_READY)
 792              		.loc 1 424 7
 793 002e BB7B     		ldrb	r3, [r7, #14]	@ zero_extendqisi2
 794 0030 012B     		cmp	r3, #1
 795 0032 05D1     		bne	.L28
 425:Drivers/STM32H7xx_HAL_Driver/Src/stm32h7xx_hal_tim_ex.c ****       || (complementary_channel_1_state != HAL_TIM_CHANNEL_STATE_READY)
 796              		.loc 1 425 7
 797 0034 7B7B     		ldrb	r3, [r7, #13]	@ zero_extendqisi2
 798 0036 012B     		cmp	r3, #1
 799 0038 02D1     		bne	.L28
 426:Drivers/STM32H7xx_HAL_Driver/Src/stm32h7xx_hal_tim_ex.c ****       || (complementary_channel_2_state != HAL_TIM_CHANNEL_STATE_READY))
 800              		.loc 1 426 7
 801 003a 3B7B     		ldrb	r3, [r7, #12]	@ zero_extendqisi2
 802 003c 012B     		cmp	r3, #1
 803 003e 01D0     		beq	.L29
 804              	.L28:
 427:Drivers/STM32H7xx_HAL_Driver/Src/stm32h7xx_hal_tim_ex.c ****   {
 428:Drivers/STM32H7xx_HAL_Driver/Src/stm32h7xx_hal_tim_ex.c ****     return HAL_ERROR;
 805              		.loc 1 428 12
 806 0040 0123     		movs	r3, #1
 807 0042 67E0     		b	.L30
 808              	.L29:
 429:Drivers/STM32H7xx_HAL_Driver/Src/stm32h7xx_hal_tim_ex.c ****   }
 430:Drivers/STM32H7xx_HAL_Driver/Src/stm32h7xx_hal_tim_ex.c **** 
 431:Drivers/STM32H7xx_HAL_Driver/Src/stm32h7xx_hal_tim_ex.c ****   /* Set the TIM channels state */
 432:Drivers/STM32H7xx_HAL_Driver/Src/stm32h7xx_hal_tim_ex.c ****   TIM_CHANNEL_STATE_SET(htim, TIM_CHANNEL_1, HAL_TIM_CHANNEL_STATE_BUSY);
 809              		.loc 1 432 3
 810 0044 7B68     		ldr	r3, [r7, #4]
 811 0046 0222     		movs	r2, #2
 812 0048 83F83E20 		strb	r2, [r3, #62]
 433:Drivers/STM32H7xx_HAL_Driver/Src/stm32h7xx_hal_tim_ex.c ****   TIM_CHANNEL_STATE_SET(htim, TIM_CHANNEL_2, HAL_TIM_CHANNEL_STATE_BUSY);
 813              		.loc 1 433 3
 814 004c 7B68     		ldr	r3, [r7, #4]
 815 004e 0222     		movs	r2, #2
 816 0050 83F83F20 		strb	r2, [r3, #63]
 434:Drivers/STM32H7xx_HAL_Driver/Src/stm32h7xx_hal_tim_ex.c ****   TIM_CHANNEL_N_STATE_SET(htim, TIM_CHANNEL_1, HAL_TIM_CHANNEL_STATE_BUSY);
 817              		.loc 1 434 3
 818 0054 7B68     		ldr	r3, [r7, #4]
 819 0056 0222     		movs	r2, #2
 820 0058 83F84420 		strb	r2, [r3, #68]
 435:Drivers/STM32H7xx_HAL_Driver/Src/stm32h7xx_hal_tim_ex.c ****   TIM_CHANNEL_N_STATE_SET(htim, TIM_CHANNEL_2, HAL_TIM_CHANNEL_STATE_BUSY);
 821              		.loc 1 435 3
 822 005c 7B68     		ldr	r3, [r7, #4]
 823 005e 0222     		movs	r2, #2
 824 0060 83F84520 		strb	r2, [r3, #69]
 436:Drivers/STM32H7xx_HAL_Driver/Src/stm32h7xx_hal_tim_ex.c **** 
 437:Drivers/STM32H7xx_HAL_Driver/Src/stm32h7xx_hal_tim_ex.c ****   /* Enable the capture compare Interrupts 1 event */
 438:Drivers/STM32H7xx_HAL_Driver/Src/stm32h7xx_hal_tim_ex.c ****   __HAL_TIM_ENABLE_IT(htim, TIM_IT_CC1);
 825              		.loc 1 438 3
 826 0064 7B68     		ldr	r3, [r7, #4]
 827 0066 1B68     		ldr	r3, [r3]
ARM GAS  C:\Users\TGSPOC~1\AppData\Local\Temp\ccBCX0SZ.s 			page 23


 828 0068 DA68     		ldr	r2, [r3, #12]
 829 006a 7B68     		ldr	r3, [r7, #4]
 830 006c 1B68     		ldr	r3, [r3]
 831 006e 42F00202 		orr	r2, r2, #2
 832 0072 DA60     		str	r2, [r3, #12]
 439:Drivers/STM32H7xx_HAL_Driver/Src/stm32h7xx_hal_tim_ex.c **** 
 440:Drivers/STM32H7xx_HAL_Driver/Src/stm32h7xx_hal_tim_ex.c ****   /* Enable the Input Capture channel 1
 441:Drivers/STM32H7xx_HAL_Driver/Src/stm32h7xx_hal_tim_ex.c ****   (in the Hall Sensor Interface the three possible channels that can be used are TIM_CHANNEL_1,
 442:Drivers/STM32H7xx_HAL_Driver/Src/stm32h7xx_hal_tim_ex.c ****   TIM_CHANNEL_2 and TIM_CHANNEL_3) */
 443:Drivers/STM32H7xx_HAL_Driver/Src/stm32h7xx_hal_tim_ex.c ****   TIM_CCxChannelCmd(htim->Instance, TIM_CHANNEL_1, TIM_CCx_ENABLE);
 833              		.loc 1 443 3
 834 0074 7B68     		ldr	r3, [r7, #4]
 835 0076 1B68     		ldr	r3, [r3]
 836 0078 0122     		movs	r2, #1
 837 007a 0021     		movs	r1, #0
 838 007c 1846     		mov	r0, r3
 839 007e FFF7FEFF 		bl	TIM_CCxChannelCmd
 444:Drivers/STM32H7xx_HAL_Driver/Src/stm32h7xx_hal_tim_ex.c **** 
 445:Drivers/STM32H7xx_HAL_Driver/Src/stm32h7xx_hal_tim_ex.c ****   /* Enable the Peripheral, except in trigger mode where enable is automatically done with trigger 
 446:Drivers/STM32H7xx_HAL_Driver/Src/stm32h7xx_hal_tim_ex.c ****   if (IS_TIM_SLAVE_INSTANCE(htim->Instance))
 840              		.loc 1 446 7
 841 0082 7B68     		ldr	r3, [r7, #4]
 842 0084 1B68     		ldr	r3, [r3]
 843              		.loc 1 446 6
 844 0086 254A     		ldr	r2, .L36
 845 0088 9342     		cmp	r3, r2
 846 008a 22D0     		beq	.L31
 847              		.loc 1 446 7 discriminator 1
 848 008c 7B68     		ldr	r3, [r7, #4]
 849 008e 1B68     		ldr	r3, [r3]
 850 0090 B3F1804F 		cmp	r3, #1073741824
 851 0094 1DD0     		beq	.L31
 852              		.loc 1 446 7 is_stmt 0 discriminator 2
 853 0096 7B68     		ldr	r3, [r7, #4]
 854 0098 1B68     		ldr	r3, [r3]
 855 009a 214A     		ldr	r2, .L36+4
 856 009c 9342     		cmp	r3, r2
 857 009e 18D0     		beq	.L31
 858              		.loc 1 446 7 discriminator 3
 859 00a0 7B68     		ldr	r3, [r7, #4]
 860 00a2 1B68     		ldr	r3, [r3]
 861 00a4 1F4A     		ldr	r2, .L36+8
 862 00a6 9342     		cmp	r3, r2
 863 00a8 13D0     		beq	.L31
 864              		.loc 1 446 7 discriminator 4
 865 00aa 7B68     		ldr	r3, [r7, #4]
 866 00ac 1B68     		ldr	r3, [r3]
 867 00ae 1E4A     		ldr	r2, .L36+12
 868 00b0 9342     		cmp	r3, r2
 869 00b2 0ED0     		beq	.L31
 870              		.loc 1 446 7 discriminator 5
 871 00b4 7B68     		ldr	r3, [r7, #4]
 872 00b6 1B68     		ldr	r3, [r3]
 873 00b8 1C4A     		ldr	r2, .L36+16
 874 00ba 9342     		cmp	r3, r2
 875 00bc 09D0     		beq	.L31
 876              		.loc 1 446 7 discriminator 6
ARM GAS  C:\Users\TGSPOC~1\AppData\Local\Temp\ccBCX0SZ.s 			page 24


 877 00be 7B68     		ldr	r3, [r7, #4]
 878 00c0 1B68     		ldr	r3, [r3]
 879 00c2 1B4A     		ldr	r2, .L36+20
 880 00c4 9342     		cmp	r3, r2
 881 00c6 04D0     		beq	.L31
 882              		.loc 1 446 7 discriminator 7
 883 00c8 7B68     		ldr	r3, [r7, #4]
 884 00ca 1B68     		ldr	r3, [r3]
 885 00cc 194A     		ldr	r2, .L36+24
 886 00ce 9342     		cmp	r3, r2
 887 00d0 15D1     		bne	.L32
 888              	.L31:
 447:Drivers/STM32H7xx_HAL_Driver/Src/stm32h7xx_hal_tim_ex.c ****   {
 448:Drivers/STM32H7xx_HAL_Driver/Src/stm32h7xx_hal_tim_ex.c ****     tmpsmcr = htim->Instance->SMCR & TIM_SMCR_SMS;
 889              		.loc 1 448 19 is_stmt 1
 890 00d2 7B68     		ldr	r3, [r7, #4]
 891 00d4 1B68     		ldr	r3, [r3]
 892              		.loc 1 448 29
 893 00d6 9A68     		ldr	r2, [r3, #8]
 894              		.loc 1 448 13
 895 00d8 174B     		ldr	r3, .L36+28
 896 00da 1340     		ands	r3, r3, r2
 897 00dc BB60     		str	r3, [r7, #8]
 449:Drivers/STM32H7xx_HAL_Driver/Src/stm32h7xx_hal_tim_ex.c ****     if (!IS_TIM_SLAVEMODE_TRIGGER_ENABLED(tmpsmcr))
 898              		.loc 1 449 8
 899 00de BB68     		ldr	r3, [r7, #8]
 900 00e0 062B     		cmp	r3, #6
 901 00e2 15D0     		beq	.L35
 902              		.loc 1 449 9 discriminator 1
 903 00e4 BB68     		ldr	r3, [r7, #8]
 904 00e6 B3F5803F 		cmp	r3, #65536
 905 00ea 11D0     		beq	.L35
 450:Drivers/STM32H7xx_HAL_Driver/Src/stm32h7xx_hal_tim_ex.c ****     {
 451:Drivers/STM32H7xx_HAL_Driver/Src/stm32h7xx_hal_tim_ex.c ****       __HAL_TIM_ENABLE(htim);
 906              		.loc 1 451 7
 907 00ec 7B68     		ldr	r3, [r7, #4]
 908 00ee 1B68     		ldr	r3, [r3]
 909 00f0 1A68     		ldr	r2, [r3]
 910 00f2 7B68     		ldr	r3, [r7, #4]
 911 00f4 1B68     		ldr	r3, [r3]
 912 00f6 42F00102 		orr	r2, r2, #1
 913 00fa 1A60     		str	r2, [r3]
 449:Drivers/STM32H7xx_HAL_Driver/Src/stm32h7xx_hal_tim_ex.c ****     if (!IS_TIM_SLAVEMODE_TRIGGER_ENABLED(tmpsmcr))
 914              		.loc 1 449 8
 915 00fc 08E0     		b	.L35
 916              	.L32:
 452:Drivers/STM32H7xx_HAL_Driver/Src/stm32h7xx_hal_tim_ex.c ****     }
 453:Drivers/STM32H7xx_HAL_Driver/Src/stm32h7xx_hal_tim_ex.c ****   }
 454:Drivers/STM32H7xx_HAL_Driver/Src/stm32h7xx_hal_tim_ex.c ****   else
 455:Drivers/STM32H7xx_HAL_Driver/Src/stm32h7xx_hal_tim_ex.c ****   {
 456:Drivers/STM32H7xx_HAL_Driver/Src/stm32h7xx_hal_tim_ex.c ****     __HAL_TIM_ENABLE(htim);
 917              		.loc 1 456 5
 918 00fe 7B68     		ldr	r3, [r7, #4]
 919 0100 1B68     		ldr	r3, [r3]
 920 0102 1A68     		ldr	r2, [r3]
 921 0104 7B68     		ldr	r3, [r7, #4]
 922 0106 1B68     		ldr	r3, [r3]
ARM GAS  C:\Users\TGSPOC~1\AppData\Local\Temp\ccBCX0SZ.s 			page 25


 923 0108 42F00102 		orr	r2, r2, #1
 924 010c 1A60     		str	r2, [r3]
 925 010e 00E0     		b	.L34
 926              	.L35:
 449:Drivers/STM32H7xx_HAL_Driver/Src/stm32h7xx_hal_tim_ex.c ****     {
 927              		.loc 1 449 8
 928 0110 00BF     		nop
 929              	.L34:
 457:Drivers/STM32H7xx_HAL_Driver/Src/stm32h7xx_hal_tim_ex.c ****   }
 458:Drivers/STM32H7xx_HAL_Driver/Src/stm32h7xx_hal_tim_ex.c **** 
 459:Drivers/STM32H7xx_HAL_Driver/Src/stm32h7xx_hal_tim_ex.c ****   /* Return function status */
 460:Drivers/STM32H7xx_HAL_Driver/Src/stm32h7xx_hal_tim_ex.c ****   return HAL_OK;
 930              		.loc 1 460 10
 931 0112 0023     		movs	r3, #0
 932              	.L30:
 461:Drivers/STM32H7xx_HAL_Driver/Src/stm32h7xx_hal_tim_ex.c **** }
 933              		.loc 1 461 1
 934 0114 1846     		mov	r0, r3
 935 0116 1037     		adds	r7, r7, #16
 936              	.LCFI35:
 937              		.cfi_def_cfa_offset 8
 938 0118 BD46     		mov	sp, r7
 939              	.LCFI36:
 940              		.cfi_def_cfa_register 13
 941              		@ sp needed
 942 011a 80BD     		pop	{r7, pc}
 943              	.L37:
 944              		.align	2
 945              	.L36:
 946 011c 00000140 		.word	1073807360
 947 0120 00040040 		.word	1073742848
 948 0124 00080040 		.word	1073743872
 949 0128 000C0040 		.word	1073744896
 950 012c 00040140 		.word	1073808384
 951 0130 00180040 		.word	1073747968
 952 0134 00400140 		.word	1073823744
 953 0138 07000100 		.word	65543
 954              		.cfi_endproc
 955              	.LFE150:
 957              		.section	.text.HAL_TIMEx_HallSensor_Stop_IT,"ax",%progbits
 958              		.align	1
 959              		.global	HAL_TIMEx_HallSensor_Stop_IT
 960              		.syntax unified
 961              		.thumb
 962              		.thumb_func
 964              	HAL_TIMEx_HallSensor_Stop_IT:
 965              	.LFB151:
 462:Drivers/STM32H7xx_HAL_Driver/Src/stm32h7xx_hal_tim_ex.c **** 
 463:Drivers/STM32H7xx_HAL_Driver/Src/stm32h7xx_hal_tim_ex.c **** /**
 464:Drivers/STM32H7xx_HAL_Driver/Src/stm32h7xx_hal_tim_ex.c ****   * @brief  Stops the TIM Hall Sensor Interface in interrupt mode.
 465:Drivers/STM32H7xx_HAL_Driver/Src/stm32h7xx_hal_tim_ex.c ****   * @param  htim TIM Hall Sensor Interface handle
 466:Drivers/STM32H7xx_HAL_Driver/Src/stm32h7xx_hal_tim_ex.c ****   * @retval HAL status
 467:Drivers/STM32H7xx_HAL_Driver/Src/stm32h7xx_hal_tim_ex.c ****   */
 468:Drivers/STM32H7xx_HAL_Driver/Src/stm32h7xx_hal_tim_ex.c **** HAL_StatusTypeDef HAL_TIMEx_HallSensor_Stop_IT(TIM_HandleTypeDef *htim)
 469:Drivers/STM32H7xx_HAL_Driver/Src/stm32h7xx_hal_tim_ex.c **** {
 966              		.loc 1 469 1
 967              		.cfi_startproc
ARM GAS  C:\Users\TGSPOC~1\AppData\Local\Temp\ccBCX0SZ.s 			page 26


 968              		@ args = 0, pretend = 0, frame = 8
 969              		@ frame_needed = 1, uses_anonymous_args = 0
 970 0000 80B5     		push	{r7, lr}
 971              	.LCFI37:
 972              		.cfi_def_cfa_offset 8
 973              		.cfi_offset 7, -8
 974              		.cfi_offset 14, -4
 975 0002 82B0     		sub	sp, sp, #8
 976              	.LCFI38:
 977              		.cfi_def_cfa_offset 16
 978 0004 00AF     		add	r7, sp, #0
 979              	.LCFI39:
 980              		.cfi_def_cfa_register 7
 981 0006 7860     		str	r0, [r7, #4]
 470:Drivers/STM32H7xx_HAL_Driver/Src/stm32h7xx_hal_tim_ex.c ****   /* Check the parameters */
 471:Drivers/STM32H7xx_HAL_Driver/Src/stm32h7xx_hal_tim_ex.c ****   assert_param(IS_TIM_HALL_SENSOR_INTERFACE_INSTANCE(htim->Instance));
 472:Drivers/STM32H7xx_HAL_Driver/Src/stm32h7xx_hal_tim_ex.c **** 
 473:Drivers/STM32H7xx_HAL_Driver/Src/stm32h7xx_hal_tim_ex.c ****   /* Disable the Input Capture channel 1
 474:Drivers/STM32H7xx_HAL_Driver/Src/stm32h7xx_hal_tim_ex.c ****   (in the Hall Sensor Interface the three possible channels that can be used are TIM_CHANNEL_1,
 475:Drivers/STM32H7xx_HAL_Driver/Src/stm32h7xx_hal_tim_ex.c ****   TIM_CHANNEL_2 and TIM_CHANNEL_3) */
 476:Drivers/STM32H7xx_HAL_Driver/Src/stm32h7xx_hal_tim_ex.c ****   TIM_CCxChannelCmd(htim->Instance, TIM_CHANNEL_1, TIM_CCx_DISABLE);
 982              		.loc 1 476 3
 983 0008 7B68     		ldr	r3, [r7, #4]
 984 000a 1B68     		ldr	r3, [r3]
 985 000c 0022     		movs	r2, #0
 986 000e 0021     		movs	r1, #0
 987 0010 1846     		mov	r0, r3
 988 0012 FFF7FEFF 		bl	TIM_CCxChannelCmd
 477:Drivers/STM32H7xx_HAL_Driver/Src/stm32h7xx_hal_tim_ex.c **** 
 478:Drivers/STM32H7xx_HAL_Driver/Src/stm32h7xx_hal_tim_ex.c ****   /* Disable the capture compare Interrupts event */
 479:Drivers/STM32H7xx_HAL_Driver/Src/stm32h7xx_hal_tim_ex.c ****   __HAL_TIM_DISABLE_IT(htim, TIM_IT_CC1);
 989              		.loc 1 479 3
 990 0016 7B68     		ldr	r3, [r7, #4]
 991 0018 1B68     		ldr	r3, [r3]
 992 001a DA68     		ldr	r2, [r3, #12]
 993 001c 7B68     		ldr	r3, [r7, #4]
 994 001e 1B68     		ldr	r3, [r3]
 995 0020 22F00202 		bic	r2, r2, #2
 996 0024 DA60     		str	r2, [r3, #12]
 480:Drivers/STM32H7xx_HAL_Driver/Src/stm32h7xx_hal_tim_ex.c **** 
 481:Drivers/STM32H7xx_HAL_Driver/Src/stm32h7xx_hal_tim_ex.c ****   /* Disable the Peripheral */
 482:Drivers/STM32H7xx_HAL_Driver/Src/stm32h7xx_hal_tim_ex.c ****   __HAL_TIM_DISABLE(htim);
 997              		.loc 1 482 3
 998 0026 7B68     		ldr	r3, [r7, #4]
 999 0028 1B68     		ldr	r3, [r3]
 1000 002a 1A6A     		ldr	r2, [r3, #32]
 1001 002c 41F21113 		movw	r3, #4369
 1002 0030 1340     		ands	r3, r3, r2
 1003 0032 002B     		cmp	r3, #0
 1004 0034 0FD1     		bne	.L39
 1005              		.loc 1 482 3 is_stmt 0 discriminator 1
 1006 0036 7B68     		ldr	r3, [r7, #4]
 1007 0038 1B68     		ldr	r3, [r3]
 1008 003a 1A6A     		ldr	r2, [r3, #32]
 1009 003c 40F24443 		movw	r3, #1092
 1010 0040 1340     		ands	r3, r3, r2
 1011 0042 002B     		cmp	r3, #0
ARM GAS  C:\Users\TGSPOC~1\AppData\Local\Temp\ccBCX0SZ.s 			page 27


 1012 0044 07D1     		bne	.L39
 1013              		.loc 1 482 3 discriminator 2
 1014 0046 7B68     		ldr	r3, [r7, #4]
 1015 0048 1B68     		ldr	r3, [r3]
 1016 004a 1A68     		ldr	r2, [r3]
 1017 004c 7B68     		ldr	r3, [r7, #4]
 1018 004e 1B68     		ldr	r3, [r3]
 1019 0050 22F00102 		bic	r2, r2, #1
 1020 0054 1A60     		str	r2, [r3]
 1021              	.L39:
 483:Drivers/STM32H7xx_HAL_Driver/Src/stm32h7xx_hal_tim_ex.c **** 
 484:Drivers/STM32H7xx_HAL_Driver/Src/stm32h7xx_hal_tim_ex.c ****   /* Set the TIM channels state */
 485:Drivers/STM32H7xx_HAL_Driver/Src/stm32h7xx_hal_tim_ex.c ****   TIM_CHANNEL_STATE_SET(htim, TIM_CHANNEL_1, HAL_TIM_CHANNEL_STATE_READY);
 1022              		.loc 1 485 3 is_stmt 1
 1023 0056 7B68     		ldr	r3, [r7, #4]
 1024 0058 0122     		movs	r2, #1
 1025 005a 83F83E20 		strb	r2, [r3, #62]
 486:Drivers/STM32H7xx_HAL_Driver/Src/stm32h7xx_hal_tim_ex.c ****   TIM_CHANNEL_STATE_SET(htim, TIM_CHANNEL_2, HAL_TIM_CHANNEL_STATE_READY);
 1026              		.loc 1 486 3
 1027 005e 7B68     		ldr	r3, [r7, #4]
 1028 0060 0122     		movs	r2, #1
 1029 0062 83F83F20 		strb	r2, [r3, #63]
 487:Drivers/STM32H7xx_HAL_Driver/Src/stm32h7xx_hal_tim_ex.c ****   TIM_CHANNEL_N_STATE_SET(htim, TIM_CHANNEL_1, HAL_TIM_CHANNEL_STATE_READY);
 1030              		.loc 1 487 3
 1031 0066 7B68     		ldr	r3, [r7, #4]
 1032 0068 0122     		movs	r2, #1
 1033 006a 83F84420 		strb	r2, [r3, #68]
 488:Drivers/STM32H7xx_HAL_Driver/Src/stm32h7xx_hal_tim_ex.c ****   TIM_CHANNEL_N_STATE_SET(htim, TIM_CHANNEL_2, HAL_TIM_CHANNEL_STATE_READY);
 1034              		.loc 1 488 3
 1035 006e 7B68     		ldr	r3, [r7, #4]
 1036 0070 0122     		movs	r2, #1
 1037 0072 83F84520 		strb	r2, [r3, #69]
 489:Drivers/STM32H7xx_HAL_Driver/Src/stm32h7xx_hal_tim_ex.c **** 
 490:Drivers/STM32H7xx_HAL_Driver/Src/stm32h7xx_hal_tim_ex.c ****   /* Return function status */
 491:Drivers/STM32H7xx_HAL_Driver/Src/stm32h7xx_hal_tim_ex.c ****   return HAL_OK;
 1038              		.loc 1 491 10
 1039 0076 0023     		movs	r3, #0
 492:Drivers/STM32H7xx_HAL_Driver/Src/stm32h7xx_hal_tim_ex.c **** }
 1040              		.loc 1 492 1
 1041 0078 1846     		mov	r0, r3
 1042 007a 0837     		adds	r7, r7, #8
 1043              	.LCFI40:
 1044              		.cfi_def_cfa_offset 8
 1045 007c BD46     		mov	sp, r7
 1046              	.LCFI41:
 1047              		.cfi_def_cfa_register 13
 1048              		@ sp needed
 1049 007e 80BD     		pop	{r7, pc}
 1050              		.cfi_endproc
 1051              	.LFE151:
 1053              		.section	.text.HAL_TIMEx_HallSensor_Start_DMA,"ax",%progbits
 1054              		.align	1
 1055              		.global	HAL_TIMEx_HallSensor_Start_DMA
 1056              		.syntax unified
 1057              		.thumb
 1058              		.thumb_func
 1060              	HAL_TIMEx_HallSensor_Start_DMA:
ARM GAS  C:\Users\TGSPOC~1\AppData\Local\Temp\ccBCX0SZ.s 			page 28


 1061              	.LFB152:
 493:Drivers/STM32H7xx_HAL_Driver/Src/stm32h7xx_hal_tim_ex.c **** 
 494:Drivers/STM32H7xx_HAL_Driver/Src/stm32h7xx_hal_tim_ex.c **** /**
 495:Drivers/STM32H7xx_HAL_Driver/Src/stm32h7xx_hal_tim_ex.c ****   * @brief  Starts the TIM Hall Sensor Interface in DMA mode.
 496:Drivers/STM32H7xx_HAL_Driver/Src/stm32h7xx_hal_tim_ex.c ****   * @param  htim TIM Hall Sensor Interface handle
 497:Drivers/STM32H7xx_HAL_Driver/Src/stm32h7xx_hal_tim_ex.c ****   * @param  pData The destination Buffer address.
 498:Drivers/STM32H7xx_HAL_Driver/Src/stm32h7xx_hal_tim_ex.c ****   * @param  Length The length of data to be transferred from TIM peripheral to memory.
 499:Drivers/STM32H7xx_HAL_Driver/Src/stm32h7xx_hal_tim_ex.c ****   * @retval HAL status
 500:Drivers/STM32H7xx_HAL_Driver/Src/stm32h7xx_hal_tim_ex.c ****   */
 501:Drivers/STM32H7xx_HAL_Driver/Src/stm32h7xx_hal_tim_ex.c **** HAL_StatusTypeDef HAL_TIMEx_HallSensor_Start_DMA(TIM_HandleTypeDef *htim, uint32_t *pData, uint16_t
 502:Drivers/STM32H7xx_HAL_Driver/Src/stm32h7xx_hal_tim_ex.c **** {
 1062              		.loc 1 502 1
 1063              		.cfi_startproc
 1064              		@ args = 0, pretend = 0, frame = 24
 1065              		@ frame_needed = 1, uses_anonymous_args = 0
 1066 0000 80B5     		push	{r7, lr}
 1067              	.LCFI42:
 1068              		.cfi_def_cfa_offset 8
 1069              		.cfi_offset 7, -8
 1070              		.cfi_offset 14, -4
 1071 0002 86B0     		sub	sp, sp, #24
 1072              	.LCFI43:
 1073              		.cfi_def_cfa_offset 32
 1074 0004 00AF     		add	r7, sp, #0
 1075              	.LCFI44:
 1076              		.cfi_def_cfa_register 7
 1077 0006 F860     		str	r0, [r7, #12]
 1078 0008 B960     		str	r1, [r7, #8]
 1079 000a 1346     		mov	r3, r2
 1080 000c FB80     		strh	r3, [r7, #6]	@ movhi
 503:Drivers/STM32H7xx_HAL_Driver/Src/stm32h7xx_hal_tim_ex.c ****   uint32_t tmpsmcr;
 504:Drivers/STM32H7xx_HAL_Driver/Src/stm32h7xx_hal_tim_ex.c ****   HAL_TIM_ChannelStateTypeDef channel_1_state = TIM_CHANNEL_STATE_GET(htim, TIM_CHANNEL_1);
 1081              		.loc 1 504 31
 1082 000e FB68     		ldr	r3, [r7, #12]
 1083 0010 93F83E30 		ldrb	r3, [r3, #62]
 1084 0014 FB75     		strb	r3, [r7, #23]
 505:Drivers/STM32H7xx_HAL_Driver/Src/stm32h7xx_hal_tim_ex.c ****   HAL_TIM_ChannelStateTypeDef complementary_channel_1_state = TIM_CHANNEL_N_STATE_GET(htim, TIM_CHA
 1085              		.loc 1 505 31
 1086 0016 FB68     		ldr	r3, [r7, #12]
 1087 0018 93F84430 		ldrb	r3, [r3, #68]
 1088 001c BB75     		strb	r3, [r7, #22]
 506:Drivers/STM32H7xx_HAL_Driver/Src/stm32h7xx_hal_tim_ex.c **** 
 507:Drivers/STM32H7xx_HAL_Driver/Src/stm32h7xx_hal_tim_ex.c ****   /* Check the parameters */
 508:Drivers/STM32H7xx_HAL_Driver/Src/stm32h7xx_hal_tim_ex.c ****   assert_param(IS_TIM_HALL_SENSOR_INTERFACE_INSTANCE(htim->Instance));
 509:Drivers/STM32H7xx_HAL_Driver/Src/stm32h7xx_hal_tim_ex.c **** 
 510:Drivers/STM32H7xx_HAL_Driver/Src/stm32h7xx_hal_tim_ex.c ****   /* Set the TIM channel state */
 511:Drivers/STM32H7xx_HAL_Driver/Src/stm32h7xx_hal_tim_ex.c ****   if ((channel_1_state == HAL_TIM_CHANNEL_STATE_BUSY)
 1089              		.loc 1 511 6
 1090 001e FB7D     		ldrb	r3, [r7, #23]	@ zero_extendqisi2
 1091 0020 022B     		cmp	r3, #2
 1092 0022 02D0     		beq	.L42
 512:Drivers/STM32H7xx_HAL_Driver/Src/stm32h7xx_hal_tim_ex.c ****       || (complementary_channel_1_state == HAL_TIM_CHANNEL_STATE_BUSY))
 1093              		.loc 1 512 7
 1094 0024 BB7D     		ldrb	r3, [r7, #22]	@ zero_extendqisi2
 1095 0026 022B     		cmp	r3, #2
 1096 0028 01D1     		bne	.L43
 1097              	.L42:
ARM GAS  C:\Users\TGSPOC~1\AppData\Local\Temp\ccBCX0SZ.s 			page 29


 513:Drivers/STM32H7xx_HAL_Driver/Src/stm32h7xx_hal_tim_ex.c ****   {
 514:Drivers/STM32H7xx_HAL_Driver/Src/stm32h7xx_hal_tim_ex.c ****     return HAL_BUSY;
 1098              		.loc 1 514 12
 1099 002a 0223     		movs	r3, #2
 1100 002c 8CE0     		b	.L44
 1101              	.L43:
 515:Drivers/STM32H7xx_HAL_Driver/Src/stm32h7xx_hal_tim_ex.c ****   }
 516:Drivers/STM32H7xx_HAL_Driver/Src/stm32h7xx_hal_tim_ex.c ****   else if ((channel_1_state == HAL_TIM_CHANNEL_STATE_READY)
 1102              		.loc 1 516 11
 1103 002e FB7D     		ldrb	r3, [r7, #23]	@ zero_extendqisi2
 1104 0030 012B     		cmp	r3, #1
 1105 0032 34D1     		bne	.L45
 517:Drivers/STM32H7xx_HAL_Driver/Src/stm32h7xx_hal_tim_ex.c ****            && (complementary_channel_1_state == HAL_TIM_CHANNEL_STATE_READY))
 1106              		.loc 1 517 12
 1107 0034 BB7D     		ldrb	r3, [r7, #22]	@ zero_extendqisi2
 1108 0036 012B     		cmp	r3, #1
 1109 0038 31D1     		bne	.L45
 518:Drivers/STM32H7xx_HAL_Driver/Src/stm32h7xx_hal_tim_ex.c ****   {
 519:Drivers/STM32H7xx_HAL_Driver/Src/stm32h7xx_hal_tim_ex.c ****     if ((pData == NULL) || (Length == 0U))
 1110              		.loc 1 519 8
 1111 003a BB68     		ldr	r3, [r7, #8]
 1112 003c 002B     		cmp	r3, #0
 1113 003e 02D0     		beq	.L46
 1114              		.loc 1 519 25 discriminator 1
 1115 0040 FB88     		ldrh	r3, [r7, #6]
 1116 0042 002B     		cmp	r3, #0
 1117 0044 01D1     		bne	.L47
 1118              	.L46:
 520:Drivers/STM32H7xx_HAL_Driver/Src/stm32h7xx_hal_tim_ex.c ****     {
 521:Drivers/STM32H7xx_HAL_Driver/Src/stm32h7xx_hal_tim_ex.c ****       return HAL_ERROR;
 1119              		.loc 1 521 14
 1120 0046 0123     		movs	r3, #1
 1121 0048 7EE0     		b	.L44
 1122              	.L47:
 522:Drivers/STM32H7xx_HAL_Driver/Src/stm32h7xx_hal_tim_ex.c ****     }
 523:Drivers/STM32H7xx_HAL_Driver/Src/stm32h7xx_hal_tim_ex.c ****     else
 524:Drivers/STM32H7xx_HAL_Driver/Src/stm32h7xx_hal_tim_ex.c ****     {
 525:Drivers/STM32H7xx_HAL_Driver/Src/stm32h7xx_hal_tim_ex.c ****       TIM_CHANNEL_STATE_SET(htim, TIM_CHANNEL_1, HAL_TIM_CHANNEL_STATE_BUSY);
 1123              		.loc 1 525 7
 1124 004a FB68     		ldr	r3, [r7, #12]
 1125 004c 0222     		movs	r2, #2
 1126 004e 83F83E20 		strb	r2, [r3, #62]
 526:Drivers/STM32H7xx_HAL_Driver/Src/stm32h7xx_hal_tim_ex.c ****       TIM_CHANNEL_N_STATE_SET(htim, TIM_CHANNEL_1, HAL_TIM_CHANNEL_STATE_BUSY);
 1127              		.loc 1 526 7
 1128 0052 FB68     		ldr	r3, [r7, #12]
 1129 0054 0222     		movs	r2, #2
 1130 0056 83F84420 		strb	r2, [r3, #68]
 519:Drivers/STM32H7xx_HAL_Driver/Src/stm32h7xx_hal_tim_ex.c ****     {
 1131              		.loc 1 519 8
 1132 005a 00BF     		nop
 527:Drivers/STM32H7xx_HAL_Driver/Src/stm32h7xx_hal_tim_ex.c ****     }
 528:Drivers/STM32H7xx_HAL_Driver/Src/stm32h7xx_hal_tim_ex.c ****   }
 529:Drivers/STM32H7xx_HAL_Driver/Src/stm32h7xx_hal_tim_ex.c ****   else
 530:Drivers/STM32H7xx_HAL_Driver/Src/stm32h7xx_hal_tim_ex.c ****   {
 531:Drivers/STM32H7xx_HAL_Driver/Src/stm32h7xx_hal_tim_ex.c ****     return HAL_ERROR;
 532:Drivers/STM32H7xx_HAL_Driver/Src/stm32h7xx_hal_tim_ex.c ****   }
 533:Drivers/STM32H7xx_HAL_Driver/Src/stm32h7xx_hal_tim_ex.c **** 
ARM GAS  C:\Users\TGSPOC~1\AppData\Local\Temp\ccBCX0SZ.s 			page 30


 534:Drivers/STM32H7xx_HAL_Driver/Src/stm32h7xx_hal_tim_ex.c ****   /* Enable the Input Capture channel 1
 535:Drivers/STM32H7xx_HAL_Driver/Src/stm32h7xx_hal_tim_ex.c ****   (in the Hall Sensor Interface the three possible channels that can be used are TIM_CHANNEL_1,
 536:Drivers/STM32H7xx_HAL_Driver/Src/stm32h7xx_hal_tim_ex.c ****   TIM_CHANNEL_2 and TIM_CHANNEL_3) */
 537:Drivers/STM32H7xx_HAL_Driver/Src/stm32h7xx_hal_tim_ex.c ****   TIM_CCxChannelCmd(htim->Instance, TIM_CHANNEL_1, TIM_CCx_ENABLE);
 1133              		.loc 1 537 3
 1134 005c FB68     		ldr	r3, [r7, #12]
 1135 005e 1B68     		ldr	r3, [r3]
 1136 0060 0122     		movs	r2, #1
 1137 0062 0021     		movs	r1, #0
 1138 0064 1846     		mov	r0, r3
 1139 0066 FFF7FEFF 		bl	TIM_CCxChannelCmd
 538:Drivers/STM32H7xx_HAL_Driver/Src/stm32h7xx_hal_tim_ex.c **** 
 539:Drivers/STM32H7xx_HAL_Driver/Src/stm32h7xx_hal_tim_ex.c ****   /* Set the DMA Input Capture 1 Callbacks */
 540:Drivers/STM32H7xx_HAL_Driver/Src/stm32h7xx_hal_tim_ex.c ****   htim->hdma[TIM_DMA_ID_CC1]->XferCpltCallback = TIM_DMACaptureCplt;
 1140              		.loc 1 540 13
 1141 006a FB68     		ldr	r3, [r7, #12]
 1142 006c 5B6A     		ldr	r3, [r3, #36]
 1143              		.loc 1 540 48
 1144 006e 384A     		ldr	r2, .L56
 1145 0070 DA63     		str	r2, [r3, #60]
 541:Drivers/STM32H7xx_HAL_Driver/Src/stm32h7xx_hal_tim_ex.c ****   htim->hdma[TIM_DMA_ID_CC1]->XferHalfCpltCallback = TIM_DMACaptureHalfCplt;
 1146              		.loc 1 541 13
 1147 0072 FB68     		ldr	r3, [r7, #12]
 1148 0074 5B6A     		ldr	r3, [r3, #36]
 1149              		.loc 1 541 52
 1150 0076 374A     		ldr	r2, .L56+4
 1151 0078 1A64     		str	r2, [r3, #64]
 542:Drivers/STM32H7xx_HAL_Driver/Src/stm32h7xx_hal_tim_ex.c ****   /* Set the DMA error callback */
 543:Drivers/STM32H7xx_HAL_Driver/Src/stm32h7xx_hal_tim_ex.c ****   htim->hdma[TIM_DMA_ID_CC1]->XferErrorCallback = TIM_DMAError ;
 1152              		.loc 1 543 13
 1153 007a FB68     		ldr	r3, [r7, #12]
 1154 007c 5B6A     		ldr	r3, [r3, #36]
 1155              		.loc 1 543 49
 1156 007e 364A     		ldr	r2, .L56+8
 1157 0080 DA64     		str	r2, [r3, #76]
 544:Drivers/STM32H7xx_HAL_Driver/Src/stm32h7xx_hal_tim_ex.c **** 
 545:Drivers/STM32H7xx_HAL_Driver/Src/stm32h7xx_hal_tim_ex.c ****   /* Enable the DMA stream for Capture 1*/
 546:Drivers/STM32H7xx_HAL_Driver/Src/stm32h7xx_hal_tim_ex.c ****   if (HAL_DMA_Start_IT(htim->hdma[TIM_DMA_ID_CC1], (uint32_t)&htim->Instance->CCR1, (uint32_t)pData
 1158              		.loc 1 546 7
 1159 0082 FB68     		ldr	r3, [r7, #12]
 1160 0084 586A     		ldr	r0, [r3, #36]
 1161              		.loc 1 546 67
 1162 0086 FB68     		ldr	r3, [r7, #12]
 1163 0088 1B68     		ldr	r3, [r3]
 1164              		.loc 1 546 62
 1165 008a 3433     		adds	r3, r3, #52
 1166              		.loc 1 546 7
 1167 008c 1946     		mov	r1, r3
 1168 008e BA68     		ldr	r2, [r7, #8]
 1169 0090 FB88     		ldrh	r3, [r7, #6]
 1170 0092 FFF7FEFF 		bl	HAL_DMA_Start_IT
 1171 0096 0346     		mov	r3, r0
 1172              		.loc 1 546 6 discriminator 1
 1173 0098 002B     		cmp	r3, #0
 1174 009a 04D0     		beq	.L49
 1175 009c 01E0     		b	.L54
 1176              	.L45:
ARM GAS  C:\Users\TGSPOC~1\AppData\Local\Temp\ccBCX0SZ.s 			page 31


 531:Drivers/STM32H7xx_HAL_Driver/Src/stm32h7xx_hal_tim_ex.c ****   }
 1177              		.loc 1 531 12
 1178 009e 0123     		movs	r3, #1
 1179 00a0 52E0     		b	.L44
 1180              	.L54:
 547:Drivers/STM32H7xx_HAL_Driver/Src/stm32h7xx_hal_tim_ex.c ****   {
 548:Drivers/STM32H7xx_HAL_Driver/Src/stm32h7xx_hal_tim_ex.c ****     /* Return error status */
 549:Drivers/STM32H7xx_HAL_Driver/Src/stm32h7xx_hal_tim_ex.c ****     return HAL_ERROR;
 1181              		.loc 1 549 12
 1182 00a2 0123     		movs	r3, #1
 1183 00a4 50E0     		b	.L44
 1184              	.L49:
 550:Drivers/STM32H7xx_HAL_Driver/Src/stm32h7xx_hal_tim_ex.c ****   }
 551:Drivers/STM32H7xx_HAL_Driver/Src/stm32h7xx_hal_tim_ex.c ****   /* Enable the capture compare 1 Interrupt */
 552:Drivers/STM32H7xx_HAL_Driver/Src/stm32h7xx_hal_tim_ex.c ****   __HAL_TIM_ENABLE_DMA(htim, TIM_DMA_CC1);
 1185              		.loc 1 552 3
 1186 00a6 FB68     		ldr	r3, [r7, #12]
 1187 00a8 1B68     		ldr	r3, [r3]
 1188 00aa DA68     		ldr	r2, [r3, #12]
 1189 00ac FB68     		ldr	r3, [r7, #12]
 1190 00ae 1B68     		ldr	r3, [r3]
 1191 00b0 42F40072 		orr	r2, r2, #512
 1192 00b4 DA60     		str	r2, [r3, #12]
 553:Drivers/STM32H7xx_HAL_Driver/Src/stm32h7xx_hal_tim_ex.c **** 
 554:Drivers/STM32H7xx_HAL_Driver/Src/stm32h7xx_hal_tim_ex.c ****   /* Enable the Peripheral, except in trigger mode where enable is automatically done with trigger 
 555:Drivers/STM32H7xx_HAL_Driver/Src/stm32h7xx_hal_tim_ex.c ****   if (IS_TIM_SLAVE_INSTANCE(htim->Instance))
 1193              		.loc 1 555 7
 1194 00b6 FB68     		ldr	r3, [r7, #12]
 1195 00b8 1B68     		ldr	r3, [r3]
 1196              		.loc 1 555 6
 1197 00ba 284A     		ldr	r2, .L56+12
 1198 00bc 9342     		cmp	r3, r2
 1199 00be 22D0     		beq	.L50
 1200              		.loc 1 555 7 discriminator 1
 1201 00c0 FB68     		ldr	r3, [r7, #12]
 1202 00c2 1B68     		ldr	r3, [r3]
 1203 00c4 B3F1804F 		cmp	r3, #1073741824
 1204 00c8 1DD0     		beq	.L50
 1205              		.loc 1 555 7 is_stmt 0 discriminator 2
 1206 00ca FB68     		ldr	r3, [r7, #12]
 1207 00cc 1B68     		ldr	r3, [r3]
 1208 00ce 244A     		ldr	r2, .L56+16
 1209 00d0 9342     		cmp	r3, r2
 1210 00d2 18D0     		beq	.L50
 1211              		.loc 1 555 7 discriminator 3
 1212 00d4 FB68     		ldr	r3, [r7, #12]
 1213 00d6 1B68     		ldr	r3, [r3]
 1214 00d8 224A     		ldr	r2, .L56+20
 1215 00da 9342     		cmp	r3, r2
 1216 00dc 13D0     		beq	.L50
 1217              		.loc 1 555 7 discriminator 4
 1218 00de FB68     		ldr	r3, [r7, #12]
 1219 00e0 1B68     		ldr	r3, [r3]
 1220 00e2 214A     		ldr	r2, .L56+24
 1221 00e4 9342     		cmp	r3, r2
 1222 00e6 0ED0     		beq	.L50
 1223              		.loc 1 555 7 discriminator 5
ARM GAS  C:\Users\TGSPOC~1\AppData\Local\Temp\ccBCX0SZ.s 			page 32


 1224 00e8 FB68     		ldr	r3, [r7, #12]
 1225 00ea 1B68     		ldr	r3, [r3]
 1226 00ec 1F4A     		ldr	r2, .L56+28
 1227 00ee 9342     		cmp	r3, r2
 1228 00f0 09D0     		beq	.L50
 1229              		.loc 1 555 7 discriminator 6
 1230 00f2 FB68     		ldr	r3, [r7, #12]
 1231 00f4 1B68     		ldr	r3, [r3]
 1232 00f6 1E4A     		ldr	r2, .L56+32
 1233 00f8 9342     		cmp	r3, r2
 1234 00fa 04D0     		beq	.L50
 1235              		.loc 1 555 7 discriminator 7
 1236 00fc FB68     		ldr	r3, [r7, #12]
 1237 00fe 1B68     		ldr	r3, [r3]
 1238 0100 1C4A     		ldr	r2, .L56+36
 1239 0102 9342     		cmp	r3, r2
 1240 0104 15D1     		bne	.L51
 1241              	.L50:
 556:Drivers/STM32H7xx_HAL_Driver/Src/stm32h7xx_hal_tim_ex.c ****   {
 557:Drivers/STM32H7xx_HAL_Driver/Src/stm32h7xx_hal_tim_ex.c ****     tmpsmcr = htim->Instance->SMCR & TIM_SMCR_SMS;
 1242              		.loc 1 557 19 is_stmt 1
 1243 0106 FB68     		ldr	r3, [r7, #12]
 1244 0108 1B68     		ldr	r3, [r3]
 1245              		.loc 1 557 29
 1246 010a 9A68     		ldr	r2, [r3, #8]
 1247              		.loc 1 557 13
 1248 010c 1A4B     		ldr	r3, .L56+40
 1249 010e 1340     		ands	r3, r3, r2
 1250 0110 3B61     		str	r3, [r7, #16]
 558:Drivers/STM32H7xx_HAL_Driver/Src/stm32h7xx_hal_tim_ex.c ****     if (!IS_TIM_SLAVEMODE_TRIGGER_ENABLED(tmpsmcr))
 1251              		.loc 1 558 8
 1252 0112 3B69     		ldr	r3, [r7, #16]
 1253 0114 062B     		cmp	r3, #6
 1254 0116 15D0     		beq	.L55
 1255              		.loc 1 558 9 discriminator 1
 1256 0118 3B69     		ldr	r3, [r7, #16]
 1257 011a B3F5803F 		cmp	r3, #65536
 1258 011e 11D0     		beq	.L55
 559:Drivers/STM32H7xx_HAL_Driver/Src/stm32h7xx_hal_tim_ex.c ****     {
 560:Drivers/STM32H7xx_HAL_Driver/Src/stm32h7xx_hal_tim_ex.c ****       __HAL_TIM_ENABLE(htim);
 1259              		.loc 1 560 7
 1260 0120 FB68     		ldr	r3, [r7, #12]
 1261 0122 1B68     		ldr	r3, [r3]
 1262 0124 1A68     		ldr	r2, [r3]
 1263 0126 FB68     		ldr	r3, [r7, #12]
 1264 0128 1B68     		ldr	r3, [r3]
 1265 012a 42F00102 		orr	r2, r2, #1
 1266 012e 1A60     		str	r2, [r3]
 558:Drivers/STM32H7xx_HAL_Driver/Src/stm32h7xx_hal_tim_ex.c ****     if (!IS_TIM_SLAVEMODE_TRIGGER_ENABLED(tmpsmcr))
 1267              		.loc 1 558 8
 1268 0130 08E0     		b	.L55
 1269              	.L51:
 561:Drivers/STM32H7xx_HAL_Driver/Src/stm32h7xx_hal_tim_ex.c ****     }
 562:Drivers/STM32H7xx_HAL_Driver/Src/stm32h7xx_hal_tim_ex.c ****   }
 563:Drivers/STM32H7xx_HAL_Driver/Src/stm32h7xx_hal_tim_ex.c ****   else
 564:Drivers/STM32H7xx_HAL_Driver/Src/stm32h7xx_hal_tim_ex.c ****   {
 565:Drivers/STM32H7xx_HAL_Driver/Src/stm32h7xx_hal_tim_ex.c ****     __HAL_TIM_ENABLE(htim);
ARM GAS  C:\Users\TGSPOC~1\AppData\Local\Temp\ccBCX0SZ.s 			page 33


 1270              		.loc 1 565 5
 1271 0132 FB68     		ldr	r3, [r7, #12]
 1272 0134 1B68     		ldr	r3, [r3]
 1273 0136 1A68     		ldr	r2, [r3]
 1274 0138 FB68     		ldr	r3, [r7, #12]
 1275 013a 1B68     		ldr	r3, [r3]
 1276 013c 42F00102 		orr	r2, r2, #1
 1277 0140 1A60     		str	r2, [r3]
 1278 0142 00E0     		b	.L53
 1279              	.L55:
 558:Drivers/STM32H7xx_HAL_Driver/Src/stm32h7xx_hal_tim_ex.c ****     {
 1280              		.loc 1 558 8
 1281 0144 00BF     		nop
 1282              	.L53:
 566:Drivers/STM32H7xx_HAL_Driver/Src/stm32h7xx_hal_tim_ex.c ****   }
 567:Drivers/STM32H7xx_HAL_Driver/Src/stm32h7xx_hal_tim_ex.c **** 
 568:Drivers/STM32H7xx_HAL_Driver/Src/stm32h7xx_hal_tim_ex.c ****   /* Return function status */
 569:Drivers/STM32H7xx_HAL_Driver/Src/stm32h7xx_hal_tim_ex.c ****   return HAL_OK;
 1283              		.loc 1 569 10
 1284 0146 0023     		movs	r3, #0
 1285              	.L44:
 570:Drivers/STM32H7xx_HAL_Driver/Src/stm32h7xx_hal_tim_ex.c **** }
 1286              		.loc 1 570 1
 1287 0148 1846     		mov	r0, r3
 1288 014a 1837     		adds	r7, r7, #24
 1289              	.LCFI45:
 1290              		.cfi_def_cfa_offset 8
 1291 014c BD46     		mov	sp, r7
 1292              	.LCFI46:
 1293              		.cfi_def_cfa_register 13
 1294              		@ sp needed
 1295 014e 80BD     		pop	{r7, pc}
 1296              	.L57:
 1297              		.align	2
 1298              	.L56:
 1299 0150 00000000 		.word	TIM_DMACaptureCplt
 1300 0154 00000000 		.word	TIM_DMACaptureHalfCplt
 1301 0158 00000000 		.word	TIM_DMAError
 1302 015c 00000140 		.word	1073807360
 1303 0160 00040040 		.word	1073742848
 1304 0164 00080040 		.word	1073743872
 1305 0168 000C0040 		.word	1073744896
 1306 016c 00040140 		.word	1073808384
 1307 0170 00180040 		.word	1073747968
 1308 0174 00400140 		.word	1073823744
 1309 0178 07000100 		.word	65543
 1310              		.cfi_endproc
 1311              	.LFE152:
 1313              		.section	.text.HAL_TIMEx_HallSensor_Stop_DMA,"ax",%progbits
 1314              		.align	1
 1315              		.global	HAL_TIMEx_HallSensor_Stop_DMA
 1316              		.syntax unified
 1317              		.thumb
 1318              		.thumb_func
 1320              	HAL_TIMEx_HallSensor_Stop_DMA:
 1321              	.LFB153:
 571:Drivers/STM32H7xx_HAL_Driver/Src/stm32h7xx_hal_tim_ex.c **** 
ARM GAS  C:\Users\TGSPOC~1\AppData\Local\Temp\ccBCX0SZ.s 			page 34


 572:Drivers/STM32H7xx_HAL_Driver/Src/stm32h7xx_hal_tim_ex.c **** /**
 573:Drivers/STM32H7xx_HAL_Driver/Src/stm32h7xx_hal_tim_ex.c ****   * @brief  Stops the TIM Hall Sensor Interface in DMA mode.
 574:Drivers/STM32H7xx_HAL_Driver/Src/stm32h7xx_hal_tim_ex.c ****   * @param  htim TIM Hall Sensor Interface handle
 575:Drivers/STM32H7xx_HAL_Driver/Src/stm32h7xx_hal_tim_ex.c ****   * @retval HAL status
 576:Drivers/STM32H7xx_HAL_Driver/Src/stm32h7xx_hal_tim_ex.c ****   */
 577:Drivers/STM32H7xx_HAL_Driver/Src/stm32h7xx_hal_tim_ex.c **** HAL_StatusTypeDef HAL_TIMEx_HallSensor_Stop_DMA(TIM_HandleTypeDef *htim)
 578:Drivers/STM32H7xx_HAL_Driver/Src/stm32h7xx_hal_tim_ex.c **** {
 1322              		.loc 1 578 1
 1323              		.cfi_startproc
 1324              		@ args = 0, pretend = 0, frame = 8
 1325              		@ frame_needed = 1, uses_anonymous_args = 0
 1326 0000 80B5     		push	{r7, lr}
 1327              	.LCFI47:
 1328              		.cfi_def_cfa_offset 8
 1329              		.cfi_offset 7, -8
 1330              		.cfi_offset 14, -4
 1331 0002 82B0     		sub	sp, sp, #8
 1332              	.LCFI48:
 1333              		.cfi_def_cfa_offset 16
 1334 0004 00AF     		add	r7, sp, #0
 1335              	.LCFI49:
 1336              		.cfi_def_cfa_register 7
 1337 0006 7860     		str	r0, [r7, #4]
 579:Drivers/STM32H7xx_HAL_Driver/Src/stm32h7xx_hal_tim_ex.c ****   /* Check the parameters */
 580:Drivers/STM32H7xx_HAL_Driver/Src/stm32h7xx_hal_tim_ex.c ****   assert_param(IS_TIM_HALL_SENSOR_INTERFACE_INSTANCE(htim->Instance));
 581:Drivers/STM32H7xx_HAL_Driver/Src/stm32h7xx_hal_tim_ex.c **** 
 582:Drivers/STM32H7xx_HAL_Driver/Src/stm32h7xx_hal_tim_ex.c ****   /* Disable the Input Capture channel 1
 583:Drivers/STM32H7xx_HAL_Driver/Src/stm32h7xx_hal_tim_ex.c ****   (in the Hall Sensor Interface the three possible channels that can be used are TIM_CHANNEL_1,
 584:Drivers/STM32H7xx_HAL_Driver/Src/stm32h7xx_hal_tim_ex.c ****   TIM_CHANNEL_2 and TIM_CHANNEL_3) */
 585:Drivers/STM32H7xx_HAL_Driver/Src/stm32h7xx_hal_tim_ex.c ****   TIM_CCxChannelCmd(htim->Instance, TIM_CHANNEL_1, TIM_CCx_DISABLE);
 1338              		.loc 1 585 3
 1339 0008 7B68     		ldr	r3, [r7, #4]
 1340 000a 1B68     		ldr	r3, [r3]
 1341 000c 0022     		movs	r2, #0
 1342 000e 0021     		movs	r1, #0
 1343 0010 1846     		mov	r0, r3
 1344 0012 FFF7FEFF 		bl	TIM_CCxChannelCmd
 586:Drivers/STM32H7xx_HAL_Driver/Src/stm32h7xx_hal_tim_ex.c **** 
 587:Drivers/STM32H7xx_HAL_Driver/Src/stm32h7xx_hal_tim_ex.c **** 
 588:Drivers/STM32H7xx_HAL_Driver/Src/stm32h7xx_hal_tim_ex.c ****   /* Disable the capture compare Interrupts 1 event */
 589:Drivers/STM32H7xx_HAL_Driver/Src/stm32h7xx_hal_tim_ex.c ****   __HAL_TIM_DISABLE_DMA(htim, TIM_DMA_CC1);
 1345              		.loc 1 589 3
 1346 0016 7B68     		ldr	r3, [r7, #4]
 1347 0018 1B68     		ldr	r3, [r3]
 1348 001a DA68     		ldr	r2, [r3, #12]
 1349 001c 7B68     		ldr	r3, [r7, #4]
 1350 001e 1B68     		ldr	r3, [r3]
 1351 0020 22F40072 		bic	r2, r2, #512
 1352 0024 DA60     		str	r2, [r3, #12]
 590:Drivers/STM32H7xx_HAL_Driver/Src/stm32h7xx_hal_tim_ex.c **** 
 591:Drivers/STM32H7xx_HAL_Driver/Src/stm32h7xx_hal_tim_ex.c ****   (void)HAL_DMA_Abort_IT(htim->hdma[TIM_DMA_ID_CC1]);
 1353              		.loc 1 591 9
 1354 0026 7B68     		ldr	r3, [r7, #4]
 1355 0028 5B6A     		ldr	r3, [r3, #36]
 1356 002a 1846     		mov	r0, r3
 1357 002c FFF7FEFF 		bl	HAL_DMA_Abort_IT
 592:Drivers/STM32H7xx_HAL_Driver/Src/stm32h7xx_hal_tim_ex.c **** 
ARM GAS  C:\Users\TGSPOC~1\AppData\Local\Temp\ccBCX0SZ.s 			page 35


 593:Drivers/STM32H7xx_HAL_Driver/Src/stm32h7xx_hal_tim_ex.c ****   /* Disable the Peripheral */
 594:Drivers/STM32H7xx_HAL_Driver/Src/stm32h7xx_hal_tim_ex.c ****   __HAL_TIM_DISABLE(htim);
 1358              		.loc 1 594 3
 1359 0030 7B68     		ldr	r3, [r7, #4]
 1360 0032 1B68     		ldr	r3, [r3]
 1361 0034 1A6A     		ldr	r2, [r3, #32]
 1362 0036 41F21113 		movw	r3, #4369
 1363 003a 1340     		ands	r3, r3, r2
 1364 003c 002B     		cmp	r3, #0
 1365 003e 0FD1     		bne	.L59
 1366              		.loc 1 594 3 is_stmt 0 discriminator 1
 1367 0040 7B68     		ldr	r3, [r7, #4]
 1368 0042 1B68     		ldr	r3, [r3]
 1369 0044 1A6A     		ldr	r2, [r3, #32]
 1370 0046 40F24443 		movw	r3, #1092
 1371 004a 1340     		ands	r3, r3, r2
 1372 004c 002B     		cmp	r3, #0
 1373 004e 07D1     		bne	.L59
 1374              		.loc 1 594 3 discriminator 2
 1375 0050 7B68     		ldr	r3, [r7, #4]
 1376 0052 1B68     		ldr	r3, [r3]
 1377 0054 1A68     		ldr	r2, [r3]
 1378 0056 7B68     		ldr	r3, [r7, #4]
 1379 0058 1B68     		ldr	r3, [r3]
 1380 005a 22F00102 		bic	r2, r2, #1
 1381 005e 1A60     		str	r2, [r3]
 1382              	.L59:
 595:Drivers/STM32H7xx_HAL_Driver/Src/stm32h7xx_hal_tim_ex.c **** 
 596:Drivers/STM32H7xx_HAL_Driver/Src/stm32h7xx_hal_tim_ex.c ****   /* Set the TIM channel state */
 597:Drivers/STM32H7xx_HAL_Driver/Src/stm32h7xx_hal_tim_ex.c ****   TIM_CHANNEL_STATE_SET(htim, TIM_CHANNEL_1, HAL_TIM_CHANNEL_STATE_READY);
 1383              		.loc 1 597 3 is_stmt 1
 1384 0060 7B68     		ldr	r3, [r7, #4]
 1385 0062 0122     		movs	r2, #1
 1386 0064 83F83E20 		strb	r2, [r3, #62]
 598:Drivers/STM32H7xx_HAL_Driver/Src/stm32h7xx_hal_tim_ex.c ****   TIM_CHANNEL_N_STATE_SET(htim, TIM_CHANNEL_1, HAL_TIM_CHANNEL_STATE_READY);
 1387              		.loc 1 598 3
 1388 0068 7B68     		ldr	r3, [r7, #4]
 1389 006a 0122     		movs	r2, #1
 1390 006c 83F84420 		strb	r2, [r3, #68]
 599:Drivers/STM32H7xx_HAL_Driver/Src/stm32h7xx_hal_tim_ex.c **** 
 600:Drivers/STM32H7xx_HAL_Driver/Src/stm32h7xx_hal_tim_ex.c ****   /* Return function status */
 601:Drivers/STM32H7xx_HAL_Driver/Src/stm32h7xx_hal_tim_ex.c ****   return HAL_OK;
 1391              		.loc 1 601 10
 1392 0070 0023     		movs	r3, #0
 602:Drivers/STM32H7xx_HAL_Driver/Src/stm32h7xx_hal_tim_ex.c **** }
 1393              		.loc 1 602 1
 1394 0072 1846     		mov	r0, r3
 1395 0074 0837     		adds	r7, r7, #8
 1396              	.LCFI50:
 1397              		.cfi_def_cfa_offset 8
 1398 0076 BD46     		mov	sp, r7
 1399              	.LCFI51:
 1400              		.cfi_def_cfa_register 13
 1401              		@ sp needed
 1402 0078 80BD     		pop	{r7, pc}
 1403              		.cfi_endproc
 1404              	.LFE153:
ARM GAS  C:\Users\TGSPOC~1\AppData\Local\Temp\ccBCX0SZ.s 			page 36


 1406              		.section	.text.HAL_TIMEx_OCN_Start,"ax",%progbits
 1407              		.align	1
 1408              		.global	HAL_TIMEx_OCN_Start
 1409              		.syntax unified
 1410              		.thumb
 1411              		.thumb_func
 1413              	HAL_TIMEx_OCN_Start:
 1414              	.LFB154:
 603:Drivers/STM32H7xx_HAL_Driver/Src/stm32h7xx_hal_tim_ex.c **** 
 604:Drivers/STM32H7xx_HAL_Driver/Src/stm32h7xx_hal_tim_ex.c **** /**
 605:Drivers/STM32H7xx_HAL_Driver/Src/stm32h7xx_hal_tim_ex.c ****   * @}
 606:Drivers/STM32H7xx_HAL_Driver/Src/stm32h7xx_hal_tim_ex.c ****   */
 607:Drivers/STM32H7xx_HAL_Driver/Src/stm32h7xx_hal_tim_ex.c **** 
 608:Drivers/STM32H7xx_HAL_Driver/Src/stm32h7xx_hal_tim_ex.c **** /** @defgroup TIMEx_Exported_Functions_Group2 Extended Timer Complementary Output Compare functions
 609:Drivers/STM32H7xx_HAL_Driver/Src/stm32h7xx_hal_tim_ex.c ****   *  @brief   Timer Complementary Output Compare functions
 610:Drivers/STM32H7xx_HAL_Driver/Src/stm32h7xx_hal_tim_ex.c ****   *
 611:Drivers/STM32H7xx_HAL_Driver/Src/stm32h7xx_hal_tim_ex.c **** @verbatim
 612:Drivers/STM32H7xx_HAL_Driver/Src/stm32h7xx_hal_tim_ex.c ****   ==============================================================================
 613:Drivers/STM32H7xx_HAL_Driver/Src/stm32h7xx_hal_tim_ex.c ****               ##### Timer Complementary Output Compare functions #####
 614:Drivers/STM32H7xx_HAL_Driver/Src/stm32h7xx_hal_tim_ex.c ****   ==============================================================================
 615:Drivers/STM32H7xx_HAL_Driver/Src/stm32h7xx_hal_tim_ex.c ****   [..]
 616:Drivers/STM32H7xx_HAL_Driver/Src/stm32h7xx_hal_tim_ex.c ****     This section provides functions allowing to:
 617:Drivers/STM32H7xx_HAL_Driver/Src/stm32h7xx_hal_tim_ex.c ****     (+) Start the Complementary Output Compare/PWM.
 618:Drivers/STM32H7xx_HAL_Driver/Src/stm32h7xx_hal_tim_ex.c ****     (+) Stop the Complementary Output Compare/PWM.
 619:Drivers/STM32H7xx_HAL_Driver/Src/stm32h7xx_hal_tim_ex.c ****     (+) Start the Complementary Output Compare/PWM and enable interrupts.
 620:Drivers/STM32H7xx_HAL_Driver/Src/stm32h7xx_hal_tim_ex.c ****     (+) Stop the Complementary Output Compare/PWM and disable interrupts.
 621:Drivers/STM32H7xx_HAL_Driver/Src/stm32h7xx_hal_tim_ex.c ****     (+) Start the Complementary Output Compare/PWM and enable DMA transfers.
 622:Drivers/STM32H7xx_HAL_Driver/Src/stm32h7xx_hal_tim_ex.c ****     (+) Stop the Complementary Output Compare/PWM and disable DMA transfers.
 623:Drivers/STM32H7xx_HAL_Driver/Src/stm32h7xx_hal_tim_ex.c **** 
 624:Drivers/STM32H7xx_HAL_Driver/Src/stm32h7xx_hal_tim_ex.c **** @endverbatim
 625:Drivers/STM32H7xx_HAL_Driver/Src/stm32h7xx_hal_tim_ex.c ****   * @{
 626:Drivers/STM32H7xx_HAL_Driver/Src/stm32h7xx_hal_tim_ex.c ****   */
 627:Drivers/STM32H7xx_HAL_Driver/Src/stm32h7xx_hal_tim_ex.c **** 
 628:Drivers/STM32H7xx_HAL_Driver/Src/stm32h7xx_hal_tim_ex.c **** /**
 629:Drivers/STM32H7xx_HAL_Driver/Src/stm32h7xx_hal_tim_ex.c ****   * @brief  Starts the TIM Output Compare signal generation on the complementary
 630:Drivers/STM32H7xx_HAL_Driver/Src/stm32h7xx_hal_tim_ex.c ****   *         output.
 631:Drivers/STM32H7xx_HAL_Driver/Src/stm32h7xx_hal_tim_ex.c ****   * @param  htim TIM Output Compare handle
 632:Drivers/STM32H7xx_HAL_Driver/Src/stm32h7xx_hal_tim_ex.c ****   * @param  Channel TIM Channel to be enabled
 633:Drivers/STM32H7xx_HAL_Driver/Src/stm32h7xx_hal_tim_ex.c ****   *          This parameter can be one of the following values:
 634:Drivers/STM32H7xx_HAL_Driver/Src/stm32h7xx_hal_tim_ex.c ****   *            @arg TIM_CHANNEL_1: TIM Channel 1 selected
 635:Drivers/STM32H7xx_HAL_Driver/Src/stm32h7xx_hal_tim_ex.c ****   *            @arg TIM_CHANNEL_2: TIM Channel 2 selected
 636:Drivers/STM32H7xx_HAL_Driver/Src/stm32h7xx_hal_tim_ex.c ****   *            @arg TIM_CHANNEL_3: TIM Channel 3 selected
 637:Drivers/STM32H7xx_HAL_Driver/Src/stm32h7xx_hal_tim_ex.c ****   * @retval HAL status
 638:Drivers/STM32H7xx_HAL_Driver/Src/stm32h7xx_hal_tim_ex.c ****   */
 639:Drivers/STM32H7xx_HAL_Driver/Src/stm32h7xx_hal_tim_ex.c **** HAL_StatusTypeDef HAL_TIMEx_OCN_Start(TIM_HandleTypeDef *htim, uint32_t Channel)
 640:Drivers/STM32H7xx_HAL_Driver/Src/stm32h7xx_hal_tim_ex.c **** {
 1415              		.loc 1 640 1
 1416              		.cfi_startproc
 1417              		@ args = 0, pretend = 0, frame = 16
 1418              		@ frame_needed = 1, uses_anonymous_args = 0
 1419 0000 80B5     		push	{r7, lr}
 1420              	.LCFI52:
 1421              		.cfi_def_cfa_offset 8
 1422              		.cfi_offset 7, -8
 1423              		.cfi_offset 14, -4
 1424 0002 84B0     		sub	sp, sp, #16
 1425              	.LCFI53:
ARM GAS  C:\Users\TGSPOC~1\AppData\Local\Temp\ccBCX0SZ.s 			page 37


 1426              		.cfi_def_cfa_offset 24
 1427 0004 00AF     		add	r7, sp, #0
 1428              	.LCFI54:
 1429              		.cfi_def_cfa_register 7
 1430 0006 7860     		str	r0, [r7, #4]
 1431 0008 3960     		str	r1, [r7]
 641:Drivers/STM32H7xx_HAL_Driver/Src/stm32h7xx_hal_tim_ex.c ****   uint32_t tmpsmcr;
 642:Drivers/STM32H7xx_HAL_Driver/Src/stm32h7xx_hal_tim_ex.c **** 
 643:Drivers/STM32H7xx_HAL_Driver/Src/stm32h7xx_hal_tim_ex.c ****   /* Check the parameters */
 644:Drivers/STM32H7xx_HAL_Driver/Src/stm32h7xx_hal_tim_ex.c ****   assert_param(IS_TIM_CCXN_INSTANCE(htim->Instance, Channel));
 645:Drivers/STM32H7xx_HAL_Driver/Src/stm32h7xx_hal_tim_ex.c **** 
 646:Drivers/STM32H7xx_HAL_Driver/Src/stm32h7xx_hal_tim_ex.c ****   /* Check the TIM complementary channel state */
 647:Drivers/STM32H7xx_HAL_Driver/Src/stm32h7xx_hal_tim_ex.c ****   if (TIM_CHANNEL_N_STATE_GET(htim, Channel) != HAL_TIM_CHANNEL_STATE_READY)
 1432              		.loc 1 647 46
 1433 000a 3B68     		ldr	r3, [r7]
 1434 000c 002B     		cmp	r3, #0
 1435 000e 09D1     		bne	.L62
 1436              		.loc 1 647 7 discriminator 1
 1437 0010 7B68     		ldr	r3, [r7, #4]
 1438 0012 93F84430 		ldrb	r3, [r3, #68]
 1439 0016 DBB2     		uxtb	r3, r3
 1440              		.loc 1 647 46 discriminator 1
 1441 0018 012B     		cmp	r3, #1
 1442 001a 14BF     		ite	ne
 1443 001c 0123     		movne	r3, #1
 1444 001e 0023     		moveq	r3, #0
 1445 0020 DBB2     		uxtb	r3, r3
 1446 0022 22E0     		b	.L63
 1447              	.L62:
 1448              		.loc 1 647 46 is_stmt 0 discriminator 2
 1449 0024 3B68     		ldr	r3, [r7]
 1450 0026 042B     		cmp	r3, #4
 1451 0028 09D1     		bne	.L64
 1452              		.loc 1 647 7 is_stmt 1 discriminator 4
 1453 002a 7B68     		ldr	r3, [r7, #4]
 1454 002c 93F84530 		ldrb	r3, [r3, #69]
 1455 0030 DBB2     		uxtb	r3, r3
 1456              		.loc 1 647 46 discriminator 4
 1457 0032 012B     		cmp	r3, #1
 1458 0034 14BF     		ite	ne
 1459 0036 0123     		movne	r3, #1
 1460 0038 0023     		moveq	r3, #0
 1461 003a DBB2     		uxtb	r3, r3
 1462 003c 15E0     		b	.L63
 1463              	.L64:
 1464              		.loc 1 647 46 is_stmt 0 discriminator 5
 1465 003e 3B68     		ldr	r3, [r7]
 1466 0040 082B     		cmp	r3, #8
 1467 0042 09D1     		bne	.L66
 1468              		.loc 1 647 7 is_stmt 1 discriminator 7
 1469 0044 7B68     		ldr	r3, [r7, #4]
 1470 0046 93F84630 		ldrb	r3, [r3, #70]
 1471 004a DBB2     		uxtb	r3, r3
 1472              		.loc 1 647 46 discriminator 7
 1473 004c 012B     		cmp	r3, #1
 1474 004e 14BF     		ite	ne
 1475 0050 0123     		movne	r3, #1
ARM GAS  C:\Users\TGSPOC~1\AppData\Local\Temp\ccBCX0SZ.s 			page 38


 1476 0052 0023     		moveq	r3, #0
 1477 0054 DBB2     		uxtb	r3, r3
 1478 0056 08E0     		b	.L63
 1479              	.L66:
 1480              		.loc 1 647 7 discriminator 8
 1481 0058 7B68     		ldr	r3, [r7, #4]
 1482 005a 93F84730 		ldrb	r3, [r3, #71]
 1483 005e DBB2     		uxtb	r3, r3
 1484              		.loc 1 647 46 discriminator 8
 1485 0060 012B     		cmp	r3, #1
 1486 0062 14BF     		ite	ne
 1487 0064 0123     		movne	r3, #1
 1488 0066 0023     		moveq	r3, #0
 1489 0068 DBB2     		uxtb	r3, r3
 1490              	.L63:
 1491              		.loc 1 647 6 discriminator 12
 1492 006a 002B     		cmp	r3, #0
 1493 006c 01D0     		beq	.L68
 648:Drivers/STM32H7xx_HAL_Driver/Src/stm32h7xx_hal_tim_ex.c ****   {
 649:Drivers/STM32H7xx_HAL_Driver/Src/stm32h7xx_hal_tim_ex.c ****     return HAL_ERROR;
 1494              		.loc 1 649 12
 1495 006e 0123     		movs	r3, #1
 1496 0070 73E0     		b	.L69
 1497              	.L68:
 650:Drivers/STM32H7xx_HAL_Driver/Src/stm32h7xx_hal_tim_ex.c ****   }
 651:Drivers/STM32H7xx_HAL_Driver/Src/stm32h7xx_hal_tim_ex.c **** 
 652:Drivers/STM32H7xx_HAL_Driver/Src/stm32h7xx_hal_tim_ex.c ****   /* Set the TIM complementary channel state */
 653:Drivers/STM32H7xx_HAL_Driver/Src/stm32h7xx_hal_tim_ex.c ****   TIM_CHANNEL_N_STATE_SET(htim, Channel, HAL_TIM_CHANNEL_STATE_BUSY);
 1498              		.loc 1 653 3
 1499 0072 3B68     		ldr	r3, [r7]
 1500 0074 002B     		cmp	r3, #0
 1501 0076 04D1     		bne	.L70
 1502              		.loc 1 653 3 is_stmt 0 discriminator 1
 1503 0078 7B68     		ldr	r3, [r7, #4]
 1504 007a 0222     		movs	r2, #2
 1505 007c 83F84420 		strb	r2, [r3, #68]
 1506 0080 13E0     		b	.L71
 1507              	.L70:
 1508              		.loc 1 653 3 discriminator 2
 1509 0082 3B68     		ldr	r3, [r7]
 1510 0084 042B     		cmp	r3, #4
 1511 0086 04D1     		bne	.L72
 1512              		.loc 1 653 3 discriminator 3
 1513 0088 7B68     		ldr	r3, [r7, #4]
 1514 008a 0222     		movs	r2, #2
 1515 008c 83F84520 		strb	r2, [r3, #69]
 1516 0090 0BE0     		b	.L71
 1517              	.L72:
 1518              		.loc 1 653 3 discriminator 4
 1519 0092 3B68     		ldr	r3, [r7]
 1520 0094 082B     		cmp	r3, #8
 1521 0096 04D1     		bne	.L74
 1522              		.loc 1 653 3 discriminator 6
 1523 0098 7B68     		ldr	r3, [r7, #4]
 1524 009a 0222     		movs	r2, #2
 1525 009c 83F84620 		strb	r2, [r3, #70]
 1526 00a0 03E0     		b	.L71
ARM GAS  C:\Users\TGSPOC~1\AppData\Local\Temp\ccBCX0SZ.s 			page 39


 1527              	.L74:
 1528              		.loc 1 653 3 discriminator 7
 1529 00a2 7B68     		ldr	r3, [r7, #4]
 1530 00a4 0222     		movs	r2, #2
 1531 00a6 83F84720 		strb	r2, [r3, #71]
 1532              	.L71:
 654:Drivers/STM32H7xx_HAL_Driver/Src/stm32h7xx_hal_tim_ex.c **** 
 655:Drivers/STM32H7xx_HAL_Driver/Src/stm32h7xx_hal_tim_ex.c ****   /* Enable the Capture compare channel N */
 656:Drivers/STM32H7xx_HAL_Driver/Src/stm32h7xx_hal_tim_ex.c ****   TIM_CCxNChannelCmd(htim->Instance, Channel, TIM_CCxN_ENABLE);
 1533              		.loc 1 656 3 is_stmt 1
 1534 00aa 7B68     		ldr	r3, [r7, #4]
 1535 00ac 1B68     		ldr	r3, [r3]
 1536 00ae 0422     		movs	r2, #4
 1537 00b0 3968     		ldr	r1, [r7]
 1538 00b2 1846     		mov	r0, r3
 1539 00b4 FFF7FEFF 		bl	TIM_CCxNChannelCmd
 657:Drivers/STM32H7xx_HAL_Driver/Src/stm32h7xx_hal_tim_ex.c **** 
 658:Drivers/STM32H7xx_HAL_Driver/Src/stm32h7xx_hal_tim_ex.c ****   /* Enable the Main Output */
 659:Drivers/STM32H7xx_HAL_Driver/Src/stm32h7xx_hal_tim_ex.c ****   __HAL_TIM_MOE_ENABLE(htim);
 1540              		.loc 1 659 3
 1541 00b8 7B68     		ldr	r3, [r7, #4]
 1542 00ba 1B68     		ldr	r3, [r3]
 1543 00bc 5A6C     		ldr	r2, [r3, #68]
 1544 00be 7B68     		ldr	r3, [r7, #4]
 1545 00c0 1B68     		ldr	r3, [r3]
 1546 00c2 42F40042 		orr	r2, r2, #32768
 1547 00c6 5A64     		str	r2, [r3, #68]
 660:Drivers/STM32H7xx_HAL_Driver/Src/stm32h7xx_hal_tim_ex.c **** 
 661:Drivers/STM32H7xx_HAL_Driver/Src/stm32h7xx_hal_tim_ex.c ****   /* Enable the Peripheral, except in trigger mode where enable is automatically done with trigger 
 662:Drivers/STM32H7xx_HAL_Driver/Src/stm32h7xx_hal_tim_ex.c ****   if (IS_TIM_SLAVE_INSTANCE(htim->Instance))
 1548              		.loc 1 662 7
 1549 00c8 7B68     		ldr	r3, [r7, #4]
 1550 00ca 1B68     		ldr	r3, [r3]
 1551              		.loc 1 662 6
 1552 00cc 254A     		ldr	r2, .L81
 1553 00ce 9342     		cmp	r3, r2
 1554 00d0 22D0     		beq	.L76
 1555              		.loc 1 662 7 discriminator 1
 1556 00d2 7B68     		ldr	r3, [r7, #4]
 1557 00d4 1B68     		ldr	r3, [r3]
 1558 00d6 B3F1804F 		cmp	r3, #1073741824
 1559 00da 1DD0     		beq	.L76
 1560              		.loc 1 662 7 is_stmt 0 discriminator 2
 1561 00dc 7B68     		ldr	r3, [r7, #4]
 1562 00de 1B68     		ldr	r3, [r3]
 1563 00e0 214A     		ldr	r2, .L81+4
 1564 00e2 9342     		cmp	r3, r2
 1565 00e4 18D0     		beq	.L76
 1566              		.loc 1 662 7 discriminator 3
 1567 00e6 7B68     		ldr	r3, [r7, #4]
 1568 00e8 1B68     		ldr	r3, [r3]
 1569 00ea 204A     		ldr	r2, .L81+8
 1570 00ec 9342     		cmp	r3, r2
 1571 00ee 13D0     		beq	.L76
 1572              		.loc 1 662 7 discriminator 4
 1573 00f0 7B68     		ldr	r3, [r7, #4]
 1574 00f2 1B68     		ldr	r3, [r3]
ARM GAS  C:\Users\TGSPOC~1\AppData\Local\Temp\ccBCX0SZ.s 			page 40


 1575 00f4 1E4A     		ldr	r2, .L81+12
 1576 00f6 9342     		cmp	r3, r2
 1577 00f8 0ED0     		beq	.L76
 1578              		.loc 1 662 7 discriminator 5
 1579 00fa 7B68     		ldr	r3, [r7, #4]
 1580 00fc 1B68     		ldr	r3, [r3]
 1581 00fe 1D4A     		ldr	r2, .L81+16
 1582 0100 9342     		cmp	r3, r2
 1583 0102 09D0     		beq	.L76
 1584              		.loc 1 662 7 discriminator 6
 1585 0104 7B68     		ldr	r3, [r7, #4]
 1586 0106 1B68     		ldr	r3, [r3]
 1587 0108 1B4A     		ldr	r2, .L81+20
 1588 010a 9342     		cmp	r3, r2
 1589 010c 04D0     		beq	.L76
 1590              		.loc 1 662 7 discriminator 7
 1591 010e 7B68     		ldr	r3, [r7, #4]
 1592 0110 1B68     		ldr	r3, [r3]
 1593 0112 1A4A     		ldr	r2, .L81+24
 1594 0114 9342     		cmp	r3, r2
 1595 0116 15D1     		bne	.L77
 1596              	.L76:
 663:Drivers/STM32H7xx_HAL_Driver/Src/stm32h7xx_hal_tim_ex.c ****   {
 664:Drivers/STM32H7xx_HAL_Driver/Src/stm32h7xx_hal_tim_ex.c ****     tmpsmcr = htim->Instance->SMCR & TIM_SMCR_SMS;
 1597              		.loc 1 664 19 is_stmt 1
 1598 0118 7B68     		ldr	r3, [r7, #4]
 1599 011a 1B68     		ldr	r3, [r3]
 1600              		.loc 1 664 29
 1601 011c 9A68     		ldr	r2, [r3, #8]
 1602              		.loc 1 664 13
 1603 011e 184B     		ldr	r3, .L81+28
 1604 0120 1340     		ands	r3, r3, r2
 1605 0122 FB60     		str	r3, [r7, #12]
 665:Drivers/STM32H7xx_HAL_Driver/Src/stm32h7xx_hal_tim_ex.c ****     if (!IS_TIM_SLAVEMODE_TRIGGER_ENABLED(tmpsmcr))
 1606              		.loc 1 665 8
 1607 0124 FB68     		ldr	r3, [r7, #12]
 1608 0126 062B     		cmp	r3, #6
 1609 0128 15D0     		beq	.L80
 1610              		.loc 1 665 9 discriminator 1
 1611 012a FB68     		ldr	r3, [r7, #12]
 1612 012c B3F5803F 		cmp	r3, #65536
 1613 0130 11D0     		beq	.L80
 666:Drivers/STM32H7xx_HAL_Driver/Src/stm32h7xx_hal_tim_ex.c ****     {
 667:Drivers/STM32H7xx_HAL_Driver/Src/stm32h7xx_hal_tim_ex.c ****       __HAL_TIM_ENABLE(htim);
 1614              		.loc 1 667 7
 1615 0132 7B68     		ldr	r3, [r7, #4]
 1616 0134 1B68     		ldr	r3, [r3]
 1617 0136 1A68     		ldr	r2, [r3]
 1618 0138 7B68     		ldr	r3, [r7, #4]
 1619 013a 1B68     		ldr	r3, [r3]
 1620 013c 42F00102 		orr	r2, r2, #1
 1621 0140 1A60     		str	r2, [r3]
 665:Drivers/STM32H7xx_HAL_Driver/Src/stm32h7xx_hal_tim_ex.c ****     if (!IS_TIM_SLAVEMODE_TRIGGER_ENABLED(tmpsmcr))
 1622              		.loc 1 665 8
 1623 0142 08E0     		b	.L80
 1624              	.L77:
 668:Drivers/STM32H7xx_HAL_Driver/Src/stm32h7xx_hal_tim_ex.c ****     }
ARM GAS  C:\Users\TGSPOC~1\AppData\Local\Temp\ccBCX0SZ.s 			page 41


 669:Drivers/STM32H7xx_HAL_Driver/Src/stm32h7xx_hal_tim_ex.c ****   }
 670:Drivers/STM32H7xx_HAL_Driver/Src/stm32h7xx_hal_tim_ex.c ****   else
 671:Drivers/STM32H7xx_HAL_Driver/Src/stm32h7xx_hal_tim_ex.c ****   {
 672:Drivers/STM32H7xx_HAL_Driver/Src/stm32h7xx_hal_tim_ex.c ****     __HAL_TIM_ENABLE(htim);
 1625              		.loc 1 672 5
 1626 0144 7B68     		ldr	r3, [r7, #4]
 1627 0146 1B68     		ldr	r3, [r3]
 1628 0148 1A68     		ldr	r2, [r3]
 1629 014a 7B68     		ldr	r3, [r7, #4]
 1630 014c 1B68     		ldr	r3, [r3]
 1631 014e 42F00102 		orr	r2, r2, #1
 1632 0152 1A60     		str	r2, [r3]
 1633 0154 00E0     		b	.L79
 1634              	.L80:
 665:Drivers/STM32H7xx_HAL_Driver/Src/stm32h7xx_hal_tim_ex.c ****     {
 1635              		.loc 1 665 8
 1636 0156 00BF     		nop
 1637              	.L79:
 673:Drivers/STM32H7xx_HAL_Driver/Src/stm32h7xx_hal_tim_ex.c ****   }
 674:Drivers/STM32H7xx_HAL_Driver/Src/stm32h7xx_hal_tim_ex.c **** 
 675:Drivers/STM32H7xx_HAL_Driver/Src/stm32h7xx_hal_tim_ex.c ****   /* Return function status */
 676:Drivers/STM32H7xx_HAL_Driver/Src/stm32h7xx_hal_tim_ex.c ****   return HAL_OK;
 1638              		.loc 1 676 10
 1639 0158 0023     		movs	r3, #0
 1640              	.L69:
 677:Drivers/STM32H7xx_HAL_Driver/Src/stm32h7xx_hal_tim_ex.c **** }
 1641              		.loc 1 677 1
 1642 015a 1846     		mov	r0, r3
 1643 015c 1037     		adds	r7, r7, #16
 1644              	.LCFI55:
 1645              		.cfi_def_cfa_offset 8
 1646 015e BD46     		mov	sp, r7
 1647              	.LCFI56:
 1648              		.cfi_def_cfa_register 13
 1649              		@ sp needed
 1650 0160 80BD     		pop	{r7, pc}
 1651              	.L82:
 1652 0162 00BF     		.align	2
 1653              	.L81:
 1654 0164 00000140 		.word	1073807360
 1655 0168 00040040 		.word	1073742848
 1656 016c 00080040 		.word	1073743872
 1657 0170 000C0040 		.word	1073744896
 1658 0174 00040140 		.word	1073808384
 1659 0178 00180040 		.word	1073747968
 1660 017c 00400140 		.word	1073823744
 1661 0180 07000100 		.word	65543
 1662              		.cfi_endproc
 1663              	.LFE154:
 1665              		.section	.text.HAL_TIMEx_OCN_Stop,"ax",%progbits
 1666              		.align	1
 1667              		.global	HAL_TIMEx_OCN_Stop
 1668              		.syntax unified
 1669              		.thumb
 1670              		.thumb_func
 1672              	HAL_TIMEx_OCN_Stop:
 1673              	.LFB155:
ARM GAS  C:\Users\TGSPOC~1\AppData\Local\Temp\ccBCX0SZ.s 			page 42


 678:Drivers/STM32H7xx_HAL_Driver/Src/stm32h7xx_hal_tim_ex.c **** 
 679:Drivers/STM32H7xx_HAL_Driver/Src/stm32h7xx_hal_tim_ex.c **** /**
 680:Drivers/STM32H7xx_HAL_Driver/Src/stm32h7xx_hal_tim_ex.c ****   * @brief  Stops the TIM Output Compare signal generation on the complementary
 681:Drivers/STM32H7xx_HAL_Driver/Src/stm32h7xx_hal_tim_ex.c ****   *         output.
 682:Drivers/STM32H7xx_HAL_Driver/Src/stm32h7xx_hal_tim_ex.c ****   * @param  htim TIM handle
 683:Drivers/STM32H7xx_HAL_Driver/Src/stm32h7xx_hal_tim_ex.c ****   * @param  Channel TIM Channel to be disabled
 684:Drivers/STM32H7xx_HAL_Driver/Src/stm32h7xx_hal_tim_ex.c ****   *          This parameter can be one of the following values:
 685:Drivers/STM32H7xx_HAL_Driver/Src/stm32h7xx_hal_tim_ex.c ****   *            @arg TIM_CHANNEL_1: TIM Channel 1 selected
 686:Drivers/STM32H7xx_HAL_Driver/Src/stm32h7xx_hal_tim_ex.c ****   *            @arg TIM_CHANNEL_2: TIM Channel 2 selected
 687:Drivers/STM32H7xx_HAL_Driver/Src/stm32h7xx_hal_tim_ex.c ****   *            @arg TIM_CHANNEL_3: TIM Channel 3 selected
 688:Drivers/STM32H7xx_HAL_Driver/Src/stm32h7xx_hal_tim_ex.c ****   * @retval HAL status
 689:Drivers/STM32H7xx_HAL_Driver/Src/stm32h7xx_hal_tim_ex.c ****   */
 690:Drivers/STM32H7xx_HAL_Driver/Src/stm32h7xx_hal_tim_ex.c **** HAL_StatusTypeDef HAL_TIMEx_OCN_Stop(TIM_HandleTypeDef *htim, uint32_t Channel)
 691:Drivers/STM32H7xx_HAL_Driver/Src/stm32h7xx_hal_tim_ex.c **** {
 1674              		.loc 1 691 1
 1675              		.cfi_startproc
 1676              		@ args = 0, pretend = 0, frame = 8
 1677              		@ frame_needed = 1, uses_anonymous_args = 0
 1678 0000 80B5     		push	{r7, lr}
 1679              	.LCFI57:
 1680              		.cfi_def_cfa_offset 8
 1681              		.cfi_offset 7, -8
 1682              		.cfi_offset 14, -4
 1683 0002 82B0     		sub	sp, sp, #8
 1684              	.LCFI58:
 1685              		.cfi_def_cfa_offset 16
 1686 0004 00AF     		add	r7, sp, #0
 1687              	.LCFI59:
 1688              		.cfi_def_cfa_register 7
 1689 0006 7860     		str	r0, [r7, #4]
 1690 0008 3960     		str	r1, [r7]
 692:Drivers/STM32H7xx_HAL_Driver/Src/stm32h7xx_hal_tim_ex.c ****   /* Check the parameters */
 693:Drivers/STM32H7xx_HAL_Driver/Src/stm32h7xx_hal_tim_ex.c ****   assert_param(IS_TIM_CCXN_INSTANCE(htim->Instance, Channel));
 694:Drivers/STM32H7xx_HAL_Driver/Src/stm32h7xx_hal_tim_ex.c **** 
 695:Drivers/STM32H7xx_HAL_Driver/Src/stm32h7xx_hal_tim_ex.c ****   /* Disable the Capture compare channel N */
 696:Drivers/STM32H7xx_HAL_Driver/Src/stm32h7xx_hal_tim_ex.c ****   TIM_CCxNChannelCmd(htim->Instance, Channel, TIM_CCxN_DISABLE);
 1691              		.loc 1 696 3
 1692 000a 7B68     		ldr	r3, [r7, #4]
 1693 000c 1B68     		ldr	r3, [r3]
 1694 000e 0022     		movs	r2, #0
 1695 0010 3968     		ldr	r1, [r7]
 1696 0012 1846     		mov	r0, r3
 1697 0014 FFF7FEFF 		bl	TIM_CCxNChannelCmd
 697:Drivers/STM32H7xx_HAL_Driver/Src/stm32h7xx_hal_tim_ex.c **** 
 698:Drivers/STM32H7xx_HAL_Driver/Src/stm32h7xx_hal_tim_ex.c ****   /* Disable the Main Output */
 699:Drivers/STM32H7xx_HAL_Driver/Src/stm32h7xx_hal_tim_ex.c ****   __HAL_TIM_MOE_DISABLE(htim);
 1698              		.loc 1 699 3
 1699 0018 7B68     		ldr	r3, [r7, #4]
 1700 001a 1B68     		ldr	r3, [r3]
 1701 001c 1A6A     		ldr	r2, [r3, #32]
 1702 001e 41F21113 		movw	r3, #4369
 1703 0022 1340     		ands	r3, r3, r2
 1704 0024 002B     		cmp	r3, #0
 1705 0026 0FD1     		bne	.L84
 1706              		.loc 1 699 3 is_stmt 0 discriminator 1
 1707 0028 7B68     		ldr	r3, [r7, #4]
 1708 002a 1B68     		ldr	r3, [r3]
ARM GAS  C:\Users\TGSPOC~1\AppData\Local\Temp\ccBCX0SZ.s 			page 43


 1709 002c 1A6A     		ldr	r2, [r3, #32]
 1710 002e 40F24443 		movw	r3, #1092
 1711 0032 1340     		ands	r3, r3, r2
 1712 0034 002B     		cmp	r3, #0
 1713 0036 07D1     		bne	.L84
 1714              		.loc 1 699 3 discriminator 2
 1715 0038 7B68     		ldr	r3, [r7, #4]
 1716 003a 1B68     		ldr	r3, [r3]
 1717 003c 5A6C     		ldr	r2, [r3, #68]
 1718 003e 7B68     		ldr	r3, [r7, #4]
 1719 0040 1B68     		ldr	r3, [r3]
 1720 0042 22F40042 		bic	r2, r2, #32768
 1721 0046 5A64     		str	r2, [r3, #68]
 1722              	.L84:
 700:Drivers/STM32H7xx_HAL_Driver/Src/stm32h7xx_hal_tim_ex.c **** 
 701:Drivers/STM32H7xx_HAL_Driver/Src/stm32h7xx_hal_tim_ex.c ****   /* Disable the Peripheral */
 702:Drivers/STM32H7xx_HAL_Driver/Src/stm32h7xx_hal_tim_ex.c ****   __HAL_TIM_DISABLE(htim);
 1723              		.loc 1 702 3 is_stmt 1
 1724 0048 7B68     		ldr	r3, [r7, #4]
 1725 004a 1B68     		ldr	r3, [r3]
 1726 004c 1A6A     		ldr	r2, [r3, #32]
 1727 004e 41F21113 		movw	r3, #4369
 1728 0052 1340     		ands	r3, r3, r2
 1729 0054 002B     		cmp	r3, #0
 1730 0056 0FD1     		bne	.L85
 1731              		.loc 1 702 3 is_stmt 0 discriminator 1
 1732 0058 7B68     		ldr	r3, [r7, #4]
 1733 005a 1B68     		ldr	r3, [r3]
 1734 005c 1A6A     		ldr	r2, [r3, #32]
 1735 005e 40F24443 		movw	r3, #1092
 1736 0062 1340     		ands	r3, r3, r2
 1737 0064 002B     		cmp	r3, #0
 1738 0066 07D1     		bne	.L85
 1739              		.loc 1 702 3 discriminator 2
 1740 0068 7B68     		ldr	r3, [r7, #4]
 1741 006a 1B68     		ldr	r3, [r3]
 1742 006c 1A68     		ldr	r2, [r3]
 1743 006e 7B68     		ldr	r3, [r7, #4]
 1744 0070 1B68     		ldr	r3, [r3]
 1745 0072 22F00102 		bic	r2, r2, #1
 1746 0076 1A60     		str	r2, [r3]
 1747              	.L85:
 703:Drivers/STM32H7xx_HAL_Driver/Src/stm32h7xx_hal_tim_ex.c **** 
 704:Drivers/STM32H7xx_HAL_Driver/Src/stm32h7xx_hal_tim_ex.c ****   /* Set the TIM complementary channel state */
 705:Drivers/STM32H7xx_HAL_Driver/Src/stm32h7xx_hal_tim_ex.c ****   TIM_CHANNEL_N_STATE_SET(htim, Channel, HAL_TIM_CHANNEL_STATE_READY);
 1748              		.loc 1 705 3 is_stmt 1
 1749 0078 3B68     		ldr	r3, [r7]
 1750 007a 002B     		cmp	r3, #0
 1751 007c 04D1     		bne	.L86
 1752              		.loc 1 705 3 is_stmt 0 discriminator 1
 1753 007e 7B68     		ldr	r3, [r7, #4]
 1754 0080 0122     		movs	r2, #1
 1755 0082 83F84420 		strb	r2, [r3, #68]
 1756 0086 13E0     		b	.L87
 1757              	.L86:
 1758              		.loc 1 705 3 discriminator 2
 1759 0088 3B68     		ldr	r3, [r7]
ARM GAS  C:\Users\TGSPOC~1\AppData\Local\Temp\ccBCX0SZ.s 			page 44


 1760 008a 042B     		cmp	r3, #4
 1761 008c 04D1     		bne	.L88
 1762              		.loc 1 705 3 discriminator 3
 1763 008e 7B68     		ldr	r3, [r7, #4]
 1764 0090 0122     		movs	r2, #1
 1765 0092 83F84520 		strb	r2, [r3, #69]
 1766 0096 0BE0     		b	.L87
 1767              	.L88:
 1768              		.loc 1 705 3 discriminator 4
 1769 0098 3B68     		ldr	r3, [r7]
 1770 009a 082B     		cmp	r3, #8
 1771 009c 04D1     		bne	.L90
 1772              		.loc 1 705 3 discriminator 6
 1773 009e 7B68     		ldr	r3, [r7, #4]
 1774 00a0 0122     		movs	r2, #1
 1775 00a2 83F84620 		strb	r2, [r3, #70]
 1776 00a6 03E0     		b	.L87
 1777              	.L90:
 1778              		.loc 1 705 3 discriminator 7
 1779 00a8 7B68     		ldr	r3, [r7, #4]
 1780 00aa 0122     		movs	r2, #1
 1781 00ac 83F84720 		strb	r2, [r3, #71]
 1782              	.L87:
 706:Drivers/STM32H7xx_HAL_Driver/Src/stm32h7xx_hal_tim_ex.c **** 
 707:Drivers/STM32H7xx_HAL_Driver/Src/stm32h7xx_hal_tim_ex.c ****   /* Return function status */
 708:Drivers/STM32H7xx_HAL_Driver/Src/stm32h7xx_hal_tim_ex.c ****   return HAL_OK;
 1783              		.loc 1 708 10 is_stmt 1
 1784 00b0 0023     		movs	r3, #0
 709:Drivers/STM32H7xx_HAL_Driver/Src/stm32h7xx_hal_tim_ex.c **** }
 1785              		.loc 1 709 1
 1786 00b2 1846     		mov	r0, r3
 1787 00b4 0837     		adds	r7, r7, #8
 1788              	.LCFI60:
 1789              		.cfi_def_cfa_offset 8
 1790 00b6 BD46     		mov	sp, r7
 1791              	.LCFI61:
 1792              		.cfi_def_cfa_register 13
 1793              		@ sp needed
 1794 00b8 80BD     		pop	{r7, pc}
 1795              		.cfi_endproc
 1796              	.LFE155:
 1798              		.section	.text.HAL_TIMEx_OCN_Start_IT,"ax",%progbits
 1799              		.align	1
 1800              		.global	HAL_TIMEx_OCN_Start_IT
 1801              		.syntax unified
 1802              		.thumb
 1803              		.thumb_func
 1805              	HAL_TIMEx_OCN_Start_IT:
 1806              	.LFB156:
 710:Drivers/STM32H7xx_HAL_Driver/Src/stm32h7xx_hal_tim_ex.c **** 
 711:Drivers/STM32H7xx_HAL_Driver/Src/stm32h7xx_hal_tim_ex.c **** /**
 712:Drivers/STM32H7xx_HAL_Driver/Src/stm32h7xx_hal_tim_ex.c ****   * @brief  Starts the TIM Output Compare signal generation in interrupt mode
 713:Drivers/STM32H7xx_HAL_Driver/Src/stm32h7xx_hal_tim_ex.c ****   *         on the complementary output.
 714:Drivers/STM32H7xx_HAL_Driver/Src/stm32h7xx_hal_tim_ex.c ****   * @param  htim TIM OC handle
 715:Drivers/STM32H7xx_HAL_Driver/Src/stm32h7xx_hal_tim_ex.c ****   * @param  Channel TIM Channel to be enabled
 716:Drivers/STM32H7xx_HAL_Driver/Src/stm32h7xx_hal_tim_ex.c ****   *          This parameter can be one of the following values:
 717:Drivers/STM32H7xx_HAL_Driver/Src/stm32h7xx_hal_tim_ex.c ****   *            @arg TIM_CHANNEL_1: TIM Channel 1 selected
ARM GAS  C:\Users\TGSPOC~1\AppData\Local\Temp\ccBCX0SZ.s 			page 45


 718:Drivers/STM32H7xx_HAL_Driver/Src/stm32h7xx_hal_tim_ex.c ****   *            @arg TIM_CHANNEL_2: TIM Channel 2 selected
 719:Drivers/STM32H7xx_HAL_Driver/Src/stm32h7xx_hal_tim_ex.c ****   *            @arg TIM_CHANNEL_3: TIM Channel 3 selected
 720:Drivers/STM32H7xx_HAL_Driver/Src/stm32h7xx_hal_tim_ex.c ****   * @retval HAL status
 721:Drivers/STM32H7xx_HAL_Driver/Src/stm32h7xx_hal_tim_ex.c ****   */
 722:Drivers/STM32H7xx_HAL_Driver/Src/stm32h7xx_hal_tim_ex.c **** HAL_StatusTypeDef HAL_TIMEx_OCN_Start_IT(TIM_HandleTypeDef *htim, uint32_t Channel)
 723:Drivers/STM32H7xx_HAL_Driver/Src/stm32h7xx_hal_tim_ex.c **** {
 1807              		.loc 1 723 1
 1808              		.cfi_startproc
 1809              		@ args = 0, pretend = 0, frame = 16
 1810              		@ frame_needed = 1, uses_anonymous_args = 0
 1811 0000 80B5     		push	{r7, lr}
 1812              	.LCFI62:
 1813              		.cfi_def_cfa_offset 8
 1814              		.cfi_offset 7, -8
 1815              		.cfi_offset 14, -4
 1816 0002 84B0     		sub	sp, sp, #16
 1817              	.LCFI63:
 1818              		.cfi_def_cfa_offset 24
 1819 0004 00AF     		add	r7, sp, #0
 1820              	.LCFI64:
 1821              		.cfi_def_cfa_register 7
 1822 0006 7860     		str	r0, [r7, #4]
 1823 0008 3960     		str	r1, [r7]
 724:Drivers/STM32H7xx_HAL_Driver/Src/stm32h7xx_hal_tim_ex.c ****   HAL_StatusTypeDef status = HAL_OK;
 1824              		.loc 1 724 21
 1825 000a 0023     		movs	r3, #0
 1826 000c FB73     		strb	r3, [r7, #15]
 725:Drivers/STM32H7xx_HAL_Driver/Src/stm32h7xx_hal_tim_ex.c ****   uint32_t tmpsmcr;
 726:Drivers/STM32H7xx_HAL_Driver/Src/stm32h7xx_hal_tim_ex.c **** 
 727:Drivers/STM32H7xx_HAL_Driver/Src/stm32h7xx_hal_tim_ex.c ****   /* Check the parameters */
 728:Drivers/STM32H7xx_HAL_Driver/Src/stm32h7xx_hal_tim_ex.c ****   assert_param(IS_TIM_CCXN_INSTANCE(htim->Instance, Channel));
 729:Drivers/STM32H7xx_HAL_Driver/Src/stm32h7xx_hal_tim_ex.c **** 
 730:Drivers/STM32H7xx_HAL_Driver/Src/stm32h7xx_hal_tim_ex.c ****   /* Check the TIM complementary channel state */
 731:Drivers/STM32H7xx_HAL_Driver/Src/stm32h7xx_hal_tim_ex.c ****   if (TIM_CHANNEL_N_STATE_GET(htim, Channel) != HAL_TIM_CHANNEL_STATE_READY)
 1827              		.loc 1 731 46
 1828 000e 3B68     		ldr	r3, [r7]
 1829 0010 002B     		cmp	r3, #0
 1830 0012 09D1     		bne	.L94
 1831              		.loc 1 731 7 discriminator 1
 1832 0014 7B68     		ldr	r3, [r7, #4]
 1833 0016 93F84430 		ldrb	r3, [r3, #68]
 1834 001a DBB2     		uxtb	r3, r3
 1835              		.loc 1 731 46 discriminator 1
 1836 001c 012B     		cmp	r3, #1
 1837 001e 14BF     		ite	ne
 1838 0020 0123     		movne	r3, #1
 1839 0022 0023     		moveq	r3, #0
 1840 0024 DBB2     		uxtb	r3, r3
 1841 0026 22E0     		b	.L95
 1842              	.L94:
 1843              		.loc 1 731 46 is_stmt 0 discriminator 2
 1844 0028 3B68     		ldr	r3, [r7]
 1845 002a 042B     		cmp	r3, #4
 1846 002c 09D1     		bne	.L96
 1847              		.loc 1 731 7 is_stmt 1 discriminator 4
 1848 002e 7B68     		ldr	r3, [r7, #4]
 1849 0030 93F84530 		ldrb	r3, [r3, #69]
ARM GAS  C:\Users\TGSPOC~1\AppData\Local\Temp\ccBCX0SZ.s 			page 46


 1850 0034 DBB2     		uxtb	r3, r3
 1851              		.loc 1 731 46 discriminator 4
 1852 0036 012B     		cmp	r3, #1
 1853 0038 14BF     		ite	ne
 1854 003a 0123     		movne	r3, #1
 1855 003c 0023     		moveq	r3, #0
 1856 003e DBB2     		uxtb	r3, r3
 1857 0040 15E0     		b	.L95
 1858              	.L96:
 1859              		.loc 1 731 46 is_stmt 0 discriminator 5
 1860 0042 3B68     		ldr	r3, [r7]
 1861 0044 082B     		cmp	r3, #8
 1862 0046 09D1     		bne	.L98
 1863              		.loc 1 731 7 is_stmt 1 discriminator 7
 1864 0048 7B68     		ldr	r3, [r7, #4]
 1865 004a 93F84630 		ldrb	r3, [r3, #70]
 1866 004e DBB2     		uxtb	r3, r3
 1867              		.loc 1 731 46 discriminator 7
 1868 0050 012B     		cmp	r3, #1
 1869 0052 14BF     		ite	ne
 1870 0054 0123     		movne	r3, #1
 1871 0056 0023     		moveq	r3, #0
 1872 0058 DBB2     		uxtb	r3, r3
 1873 005a 08E0     		b	.L95
 1874              	.L98:
 1875              		.loc 1 731 7 discriminator 8
 1876 005c 7B68     		ldr	r3, [r7, #4]
 1877 005e 93F84730 		ldrb	r3, [r3, #71]
 1878 0062 DBB2     		uxtb	r3, r3
 1879              		.loc 1 731 46 discriminator 8
 1880 0064 012B     		cmp	r3, #1
 1881 0066 14BF     		ite	ne
 1882 0068 0123     		movne	r3, #1
 1883 006a 0023     		moveq	r3, #0
 1884 006c DBB2     		uxtb	r3, r3
 1885              	.L95:
 1886              		.loc 1 731 6 discriminator 12
 1887 006e 002B     		cmp	r3, #0
 1888 0070 01D0     		beq	.L100
 732:Drivers/STM32H7xx_HAL_Driver/Src/stm32h7xx_hal_tim_ex.c ****   {
 733:Drivers/STM32H7xx_HAL_Driver/Src/stm32h7xx_hal_tim_ex.c ****     return HAL_ERROR;
 1889              		.loc 1 733 12
 1890 0072 0123     		movs	r3, #1
 1891 0074 A9E0     		b	.L101
 1892              	.L100:
 734:Drivers/STM32H7xx_HAL_Driver/Src/stm32h7xx_hal_tim_ex.c ****   }
 735:Drivers/STM32H7xx_HAL_Driver/Src/stm32h7xx_hal_tim_ex.c **** 
 736:Drivers/STM32H7xx_HAL_Driver/Src/stm32h7xx_hal_tim_ex.c ****   /* Set the TIM complementary channel state */
 737:Drivers/STM32H7xx_HAL_Driver/Src/stm32h7xx_hal_tim_ex.c ****   TIM_CHANNEL_N_STATE_SET(htim, Channel, HAL_TIM_CHANNEL_STATE_BUSY);
 1893              		.loc 1 737 3
 1894 0076 3B68     		ldr	r3, [r7]
 1895 0078 002B     		cmp	r3, #0
 1896 007a 04D1     		bne	.L102
 1897              		.loc 1 737 3 is_stmt 0 discriminator 1
 1898 007c 7B68     		ldr	r3, [r7, #4]
 1899 007e 0222     		movs	r2, #2
 1900 0080 83F84420 		strb	r2, [r3, #68]
ARM GAS  C:\Users\TGSPOC~1\AppData\Local\Temp\ccBCX0SZ.s 			page 47


 1901 0084 13E0     		b	.L103
 1902              	.L102:
 1903              		.loc 1 737 3 discriminator 2
 1904 0086 3B68     		ldr	r3, [r7]
 1905 0088 042B     		cmp	r3, #4
 1906 008a 04D1     		bne	.L104
 1907              		.loc 1 737 3 discriminator 3
 1908 008c 7B68     		ldr	r3, [r7, #4]
 1909 008e 0222     		movs	r2, #2
 1910 0090 83F84520 		strb	r2, [r3, #69]
 1911 0094 0BE0     		b	.L103
 1912              	.L104:
 1913              		.loc 1 737 3 discriminator 4
 1914 0096 3B68     		ldr	r3, [r7]
 1915 0098 082B     		cmp	r3, #8
 1916 009a 04D1     		bne	.L106
 1917              		.loc 1 737 3 discriminator 6
 1918 009c 7B68     		ldr	r3, [r7, #4]
 1919 009e 0222     		movs	r2, #2
 1920 00a0 83F84620 		strb	r2, [r3, #70]
 1921 00a4 03E0     		b	.L103
 1922              	.L106:
 1923              		.loc 1 737 3 discriminator 7
 1924 00a6 7B68     		ldr	r3, [r7, #4]
 1925 00a8 0222     		movs	r2, #2
 1926 00aa 83F84720 		strb	r2, [r3, #71]
 1927              	.L103:
 738:Drivers/STM32H7xx_HAL_Driver/Src/stm32h7xx_hal_tim_ex.c **** 
 739:Drivers/STM32H7xx_HAL_Driver/Src/stm32h7xx_hal_tim_ex.c ****   switch (Channel)
 1928              		.loc 1 739 3 is_stmt 1
 1929 00ae 3B68     		ldr	r3, [r7]
 1930 00b0 082B     		cmp	r3, #8
 1931 00b2 1BD0     		beq	.L108
 1932 00b4 3B68     		ldr	r3, [r7]
 1933 00b6 082B     		cmp	r3, #8
 1934 00b8 21D8     		bhi	.L109
 1935 00ba 3B68     		ldr	r3, [r7]
 1936 00bc 002B     		cmp	r3, #0
 1937 00be 03D0     		beq	.L110
 1938 00c0 3B68     		ldr	r3, [r7]
 1939 00c2 042B     		cmp	r3, #4
 1940 00c4 09D0     		beq	.L111
 1941 00c6 1AE0     		b	.L109
 1942              	.L110:
 740:Drivers/STM32H7xx_HAL_Driver/Src/stm32h7xx_hal_tim_ex.c ****   {
 741:Drivers/STM32H7xx_HAL_Driver/Src/stm32h7xx_hal_tim_ex.c ****     case TIM_CHANNEL_1:
 742:Drivers/STM32H7xx_HAL_Driver/Src/stm32h7xx_hal_tim_ex.c ****     {
 743:Drivers/STM32H7xx_HAL_Driver/Src/stm32h7xx_hal_tim_ex.c ****       /* Enable the TIM Output Compare interrupt */
 744:Drivers/STM32H7xx_HAL_Driver/Src/stm32h7xx_hal_tim_ex.c ****       __HAL_TIM_ENABLE_IT(htim, TIM_IT_CC1);
 1943              		.loc 1 744 7
 1944 00c8 7B68     		ldr	r3, [r7, #4]
 1945 00ca 1B68     		ldr	r3, [r3]
 1946 00cc DA68     		ldr	r2, [r3, #12]
 1947 00ce 7B68     		ldr	r3, [r7, #4]
 1948 00d0 1B68     		ldr	r3, [r3]
 1949 00d2 42F00202 		orr	r2, r2, #2
 1950 00d6 DA60     		str	r2, [r3, #12]
ARM GAS  C:\Users\TGSPOC~1\AppData\Local\Temp\ccBCX0SZ.s 			page 48


 745:Drivers/STM32H7xx_HAL_Driver/Src/stm32h7xx_hal_tim_ex.c ****       break;
 1951              		.loc 1 745 7
 1952 00d8 14E0     		b	.L112
 1953              	.L111:
 746:Drivers/STM32H7xx_HAL_Driver/Src/stm32h7xx_hal_tim_ex.c ****     }
 747:Drivers/STM32H7xx_HAL_Driver/Src/stm32h7xx_hal_tim_ex.c **** 
 748:Drivers/STM32H7xx_HAL_Driver/Src/stm32h7xx_hal_tim_ex.c ****     case TIM_CHANNEL_2:
 749:Drivers/STM32H7xx_HAL_Driver/Src/stm32h7xx_hal_tim_ex.c ****     {
 750:Drivers/STM32H7xx_HAL_Driver/Src/stm32h7xx_hal_tim_ex.c ****       /* Enable the TIM Output Compare interrupt */
 751:Drivers/STM32H7xx_HAL_Driver/Src/stm32h7xx_hal_tim_ex.c ****       __HAL_TIM_ENABLE_IT(htim, TIM_IT_CC2);
 1954              		.loc 1 751 7
 1955 00da 7B68     		ldr	r3, [r7, #4]
 1956 00dc 1B68     		ldr	r3, [r3]
 1957 00de DA68     		ldr	r2, [r3, #12]
 1958 00e0 7B68     		ldr	r3, [r7, #4]
 1959 00e2 1B68     		ldr	r3, [r3]
 1960 00e4 42F00402 		orr	r2, r2, #4
 1961 00e8 DA60     		str	r2, [r3, #12]
 752:Drivers/STM32H7xx_HAL_Driver/Src/stm32h7xx_hal_tim_ex.c ****       break;
 1962              		.loc 1 752 7
 1963 00ea 0BE0     		b	.L112
 1964              	.L108:
 753:Drivers/STM32H7xx_HAL_Driver/Src/stm32h7xx_hal_tim_ex.c ****     }
 754:Drivers/STM32H7xx_HAL_Driver/Src/stm32h7xx_hal_tim_ex.c **** 
 755:Drivers/STM32H7xx_HAL_Driver/Src/stm32h7xx_hal_tim_ex.c ****     case TIM_CHANNEL_3:
 756:Drivers/STM32H7xx_HAL_Driver/Src/stm32h7xx_hal_tim_ex.c ****     {
 757:Drivers/STM32H7xx_HAL_Driver/Src/stm32h7xx_hal_tim_ex.c ****       /* Enable the TIM Output Compare interrupt */
 758:Drivers/STM32H7xx_HAL_Driver/Src/stm32h7xx_hal_tim_ex.c ****       __HAL_TIM_ENABLE_IT(htim, TIM_IT_CC3);
 1965              		.loc 1 758 7
 1966 00ec 7B68     		ldr	r3, [r7, #4]
 1967 00ee 1B68     		ldr	r3, [r3]
 1968 00f0 DA68     		ldr	r2, [r3, #12]
 1969 00f2 7B68     		ldr	r3, [r7, #4]
 1970 00f4 1B68     		ldr	r3, [r3]
 1971 00f6 42F00802 		orr	r2, r2, #8
 1972 00fa DA60     		str	r2, [r3, #12]
 759:Drivers/STM32H7xx_HAL_Driver/Src/stm32h7xx_hal_tim_ex.c ****       break;
 1973              		.loc 1 759 7
 1974 00fc 02E0     		b	.L112
 1975              	.L109:
 760:Drivers/STM32H7xx_HAL_Driver/Src/stm32h7xx_hal_tim_ex.c ****     }
 761:Drivers/STM32H7xx_HAL_Driver/Src/stm32h7xx_hal_tim_ex.c **** 
 762:Drivers/STM32H7xx_HAL_Driver/Src/stm32h7xx_hal_tim_ex.c **** 
 763:Drivers/STM32H7xx_HAL_Driver/Src/stm32h7xx_hal_tim_ex.c ****     default:
 764:Drivers/STM32H7xx_HAL_Driver/Src/stm32h7xx_hal_tim_ex.c ****       status = HAL_ERROR;
 1976              		.loc 1 764 14
 1977 00fe 0123     		movs	r3, #1
 1978 0100 FB73     		strb	r3, [r7, #15]
 765:Drivers/STM32H7xx_HAL_Driver/Src/stm32h7xx_hal_tim_ex.c ****       break;
 1979              		.loc 1 765 7
 1980 0102 00BF     		nop
 1981              	.L112:
 766:Drivers/STM32H7xx_HAL_Driver/Src/stm32h7xx_hal_tim_ex.c ****   }
 767:Drivers/STM32H7xx_HAL_Driver/Src/stm32h7xx_hal_tim_ex.c **** 
 768:Drivers/STM32H7xx_HAL_Driver/Src/stm32h7xx_hal_tim_ex.c ****   if (status == HAL_OK)
 1982              		.loc 1 768 6
 1983 0104 FB7B     		ldrb	r3, [r7, #15]	@ zero_extendqisi2
ARM GAS  C:\Users\TGSPOC~1\AppData\Local\Temp\ccBCX0SZ.s 			page 49


 1984 0106 002B     		cmp	r3, #0
 1985 0108 5ED1     		bne	.L113
 769:Drivers/STM32H7xx_HAL_Driver/Src/stm32h7xx_hal_tim_ex.c ****   {
 770:Drivers/STM32H7xx_HAL_Driver/Src/stm32h7xx_hal_tim_ex.c ****     /* Enable the TIM Break interrupt */
 771:Drivers/STM32H7xx_HAL_Driver/Src/stm32h7xx_hal_tim_ex.c ****     __HAL_TIM_ENABLE_IT(htim, TIM_IT_BREAK);
 1986              		.loc 1 771 5
 1987 010a 7B68     		ldr	r3, [r7, #4]
 1988 010c 1B68     		ldr	r3, [r3]
 1989 010e DA68     		ldr	r2, [r3, #12]
 1990 0110 7B68     		ldr	r3, [r7, #4]
 1991 0112 1B68     		ldr	r3, [r3]
 1992 0114 42F08002 		orr	r2, r2, #128
 1993 0118 DA60     		str	r2, [r3, #12]
 772:Drivers/STM32H7xx_HAL_Driver/Src/stm32h7xx_hal_tim_ex.c **** 
 773:Drivers/STM32H7xx_HAL_Driver/Src/stm32h7xx_hal_tim_ex.c ****     /* Enable the Capture compare channel N */
 774:Drivers/STM32H7xx_HAL_Driver/Src/stm32h7xx_hal_tim_ex.c ****     TIM_CCxNChannelCmd(htim->Instance, Channel, TIM_CCxN_ENABLE);
 1994              		.loc 1 774 5
 1995 011a 7B68     		ldr	r3, [r7, #4]
 1996 011c 1B68     		ldr	r3, [r3]
 1997 011e 0422     		movs	r2, #4
 1998 0120 3968     		ldr	r1, [r7]
 1999 0122 1846     		mov	r0, r3
 2000 0124 FFF7FEFF 		bl	TIM_CCxNChannelCmd
 775:Drivers/STM32H7xx_HAL_Driver/Src/stm32h7xx_hal_tim_ex.c **** 
 776:Drivers/STM32H7xx_HAL_Driver/Src/stm32h7xx_hal_tim_ex.c ****     /* Enable the Main Output */
 777:Drivers/STM32H7xx_HAL_Driver/Src/stm32h7xx_hal_tim_ex.c ****     __HAL_TIM_MOE_ENABLE(htim);
 2001              		.loc 1 777 5
 2002 0128 7B68     		ldr	r3, [r7, #4]
 2003 012a 1B68     		ldr	r3, [r3]
 2004 012c 5A6C     		ldr	r2, [r3, #68]
 2005 012e 7B68     		ldr	r3, [r7, #4]
 2006 0130 1B68     		ldr	r3, [r3]
 2007 0132 42F40042 		orr	r2, r2, #32768
 2008 0136 5A64     		str	r2, [r3, #68]
 778:Drivers/STM32H7xx_HAL_Driver/Src/stm32h7xx_hal_tim_ex.c **** 
 779:Drivers/STM32H7xx_HAL_Driver/Src/stm32h7xx_hal_tim_ex.c ****     /* Enable the Peripheral, except in trigger mode where enable is automatically done with trigge
 780:Drivers/STM32H7xx_HAL_Driver/Src/stm32h7xx_hal_tim_ex.c ****     if (IS_TIM_SLAVE_INSTANCE(htim->Instance))
 2009              		.loc 1 780 9
 2010 0138 7B68     		ldr	r3, [r7, #4]
 2011 013a 1B68     		ldr	r3, [r3]
 2012              		.loc 1 780 8
 2013 013c 254A     		ldr	r2, .L118
 2014 013e 9342     		cmp	r3, r2
 2015 0140 22D0     		beq	.L114
 2016              		.loc 1 780 9 discriminator 1
 2017 0142 7B68     		ldr	r3, [r7, #4]
 2018 0144 1B68     		ldr	r3, [r3]
 2019 0146 B3F1804F 		cmp	r3, #1073741824
 2020 014a 1DD0     		beq	.L114
 2021              		.loc 1 780 9 is_stmt 0 discriminator 2
 2022 014c 7B68     		ldr	r3, [r7, #4]
 2023 014e 1B68     		ldr	r3, [r3]
 2024 0150 214A     		ldr	r2, .L118+4
 2025 0152 9342     		cmp	r3, r2
 2026 0154 18D0     		beq	.L114
 2027              		.loc 1 780 9 discriminator 3
 2028 0156 7B68     		ldr	r3, [r7, #4]
ARM GAS  C:\Users\TGSPOC~1\AppData\Local\Temp\ccBCX0SZ.s 			page 50


 2029 0158 1B68     		ldr	r3, [r3]
 2030 015a 204A     		ldr	r2, .L118+8
 2031 015c 9342     		cmp	r3, r2
 2032 015e 13D0     		beq	.L114
 2033              		.loc 1 780 9 discriminator 4
 2034 0160 7B68     		ldr	r3, [r7, #4]
 2035 0162 1B68     		ldr	r3, [r3]
 2036 0164 1E4A     		ldr	r2, .L118+12
 2037 0166 9342     		cmp	r3, r2
 2038 0168 0ED0     		beq	.L114
 2039              		.loc 1 780 9 discriminator 5
 2040 016a 7B68     		ldr	r3, [r7, #4]
 2041 016c 1B68     		ldr	r3, [r3]
 2042 016e 1D4A     		ldr	r2, .L118+16
 2043 0170 9342     		cmp	r3, r2
 2044 0172 09D0     		beq	.L114
 2045              		.loc 1 780 9 discriminator 6
 2046 0174 7B68     		ldr	r3, [r7, #4]
 2047 0176 1B68     		ldr	r3, [r3]
 2048 0178 1B4A     		ldr	r2, .L118+20
 2049 017a 9342     		cmp	r3, r2
 2050 017c 04D0     		beq	.L114
 2051              		.loc 1 780 9 discriminator 7
 2052 017e 7B68     		ldr	r3, [r7, #4]
 2053 0180 1B68     		ldr	r3, [r3]
 2054 0182 1A4A     		ldr	r2, .L118+24
 2055 0184 9342     		cmp	r3, r2
 2056 0186 15D1     		bne	.L115
 2057              	.L114:
 781:Drivers/STM32H7xx_HAL_Driver/Src/stm32h7xx_hal_tim_ex.c ****     {
 782:Drivers/STM32H7xx_HAL_Driver/Src/stm32h7xx_hal_tim_ex.c ****       tmpsmcr = htim->Instance->SMCR & TIM_SMCR_SMS;
 2058              		.loc 1 782 21 is_stmt 1
 2059 0188 7B68     		ldr	r3, [r7, #4]
 2060 018a 1B68     		ldr	r3, [r3]
 2061              		.loc 1 782 31
 2062 018c 9A68     		ldr	r2, [r3, #8]
 2063              		.loc 1 782 15
 2064 018e 184B     		ldr	r3, .L118+28
 2065 0190 1340     		ands	r3, r3, r2
 2066 0192 BB60     		str	r3, [r7, #8]
 783:Drivers/STM32H7xx_HAL_Driver/Src/stm32h7xx_hal_tim_ex.c ****       if (!IS_TIM_SLAVEMODE_TRIGGER_ENABLED(tmpsmcr))
 2067              		.loc 1 783 10
 2068 0194 BB68     		ldr	r3, [r7, #8]
 2069 0196 062B     		cmp	r3, #6
 2070 0198 15D0     		beq	.L117
 2071              		.loc 1 783 11 discriminator 1
 2072 019a BB68     		ldr	r3, [r7, #8]
 2073 019c B3F5803F 		cmp	r3, #65536
 2074 01a0 11D0     		beq	.L117
 784:Drivers/STM32H7xx_HAL_Driver/Src/stm32h7xx_hal_tim_ex.c ****       {
 785:Drivers/STM32H7xx_HAL_Driver/Src/stm32h7xx_hal_tim_ex.c ****         __HAL_TIM_ENABLE(htim);
 2075              		.loc 1 785 9
 2076 01a2 7B68     		ldr	r3, [r7, #4]
 2077 01a4 1B68     		ldr	r3, [r3]
 2078 01a6 1A68     		ldr	r2, [r3]
 2079 01a8 7B68     		ldr	r3, [r7, #4]
 2080 01aa 1B68     		ldr	r3, [r3]
ARM GAS  C:\Users\TGSPOC~1\AppData\Local\Temp\ccBCX0SZ.s 			page 51


 2081 01ac 42F00102 		orr	r2, r2, #1
 2082 01b0 1A60     		str	r2, [r3]
 783:Drivers/STM32H7xx_HAL_Driver/Src/stm32h7xx_hal_tim_ex.c ****       if (!IS_TIM_SLAVEMODE_TRIGGER_ENABLED(tmpsmcr))
 2083              		.loc 1 783 10
 2084 01b2 08E0     		b	.L117
 2085              	.L115:
 786:Drivers/STM32H7xx_HAL_Driver/Src/stm32h7xx_hal_tim_ex.c ****       }
 787:Drivers/STM32H7xx_HAL_Driver/Src/stm32h7xx_hal_tim_ex.c ****     }
 788:Drivers/STM32H7xx_HAL_Driver/Src/stm32h7xx_hal_tim_ex.c ****     else
 789:Drivers/STM32H7xx_HAL_Driver/Src/stm32h7xx_hal_tim_ex.c ****     {
 790:Drivers/STM32H7xx_HAL_Driver/Src/stm32h7xx_hal_tim_ex.c ****       __HAL_TIM_ENABLE(htim);
 2086              		.loc 1 790 7
 2087 01b4 7B68     		ldr	r3, [r7, #4]
 2088 01b6 1B68     		ldr	r3, [r3]
 2089 01b8 1A68     		ldr	r2, [r3]
 2090 01ba 7B68     		ldr	r3, [r7, #4]
 2091 01bc 1B68     		ldr	r3, [r3]
 2092 01be 42F00102 		orr	r2, r2, #1
 2093 01c2 1A60     		str	r2, [r3]
 2094 01c4 00E0     		b	.L113
 2095              	.L117:
 783:Drivers/STM32H7xx_HAL_Driver/Src/stm32h7xx_hal_tim_ex.c ****       {
 2096              		.loc 1 783 10
 2097 01c6 00BF     		nop
 2098              	.L113:
 791:Drivers/STM32H7xx_HAL_Driver/Src/stm32h7xx_hal_tim_ex.c ****     }
 792:Drivers/STM32H7xx_HAL_Driver/Src/stm32h7xx_hal_tim_ex.c ****   }
 793:Drivers/STM32H7xx_HAL_Driver/Src/stm32h7xx_hal_tim_ex.c **** 
 794:Drivers/STM32H7xx_HAL_Driver/Src/stm32h7xx_hal_tim_ex.c ****   /* Return function status */
 795:Drivers/STM32H7xx_HAL_Driver/Src/stm32h7xx_hal_tim_ex.c ****   return status;
 2099              		.loc 1 795 10
 2100 01c8 FB7B     		ldrb	r3, [r7, #15]	@ zero_extendqisi2
 2101              	.L101:
 796:Drivers/STM32H7xx_HAL_Driver/Src/stm32h7xx_hal_tim_ex.c **** }
 2102              		.loc 1 796 1
 2103 01ca 1846     		mov	r0, r3
 2104 01cc 1037     		adds	r7, r7, #16
 2105              	.LCFI65:
 2106              		.cfi_def_cfa_offset 8
 2107 01ce BD46     		mov	sp, r7
 2108              	.LCFI66:
 2109              		.cfi_def_cfa_register 13
 2110              		@ sp needed
 2111 01d0 80BD     		pop	{r7, pc}
 2112              	.L119:
 2113 01d2 00BF     		.align	2
 2114              	.L118:
 2115 01d4 00000140 		.word	1073807360
 2116 01d8 00040040 		.word	1073742848
 2117 01dc 00080040 		.word	1073743872
 2118 01e0 000C0040 		.word	1073744896
 2119 01e4 00040140 		.word	1073808384
 2120 01e8 00180040 		.word	1073747968
 2121 01ec 00400140 		.word	1073823744
 2122 01f0 07000100 		.word	65543
 2123              		.cfi_endproc
 2124              	.LFE156:
ARM GAS  C:\Users\TGSPOC~1\AppData\Local\Temp\ccBCX0SZ.s 			page 52


 2126              		.section	.text.HAL_TIMEx_OCN_Stop_IT,"ax",%progbits
 2127              		.align	1
 2128              		.global	HAL_TIMEx_OCN_Stop_IT
 2129              		.syntax unified
 2130              		.thumb
 2131              		.thumb_func
 2133              	HAL_TIMEx_OCN_Stop_IT:
 2134              	.LFB157:
 797:Drivers/STM32H7xx_HAL_Driver/Src/stm32h7xx_hal_tim_ex.c **** 
 798:Drivers/STM32H7xx_HAL_Driver/Src/stm32h7xx_hal_tim_ex.c **** /**
 799:Drivers/STM32H7xx_HAL_Driver/Src/stm32h7xx_hal_tim_ex.c ****   * @brief  Stops the TIM Output Compare signal generation in interrupt mode
 800:Drivers/STM32H7xx_HAL_Driver/Src/stm32h7xx_hal_tim_ex.c ****   *         on the complementary output.
 801:Drivers/STM32H7xx_HAL_Driver/Src/stm32h7xx_hal_tim_ex.c ****   * @param  htim TIM Output Compare handle
 802:Drivers/STM32H7xx_HAL_Driver/Src/stm32h7xx_hal_tim_ex.c ****   * @param  Channel TIM Channel to be disabled
 803:Drivers/STM32H7xx_HAL_Driver/Src/stm32h7xx_hal_tim_ex.c ****   *          This parameter can be one of the following values:
 804:Drivers/STM32H7xx_HAL_Driver/Src/stm32h7xx_hal_tim_ex.c ****   *            @arg TIM_CHANNEL_1: TIM Channel 1 selected
 805:Drivers/STM32H7xx_HAL_Driver/Src/stm32h7xx_hal_tim_ex.c ****   *            @arg TIM_CHANNEL_2: TIM Channel 2 selected
 806:Drivers/STM32H7xx_HAL_Driver/Src/stm32h7xx_hal_tim_ex.c ****   *            @arg TIM_CHANNEL_3: TIM Channel 3 selected
 807:Drivers/STM32H7xx_HAL_Driver/Src/stm32h7xx_hal_tim_ex.c ****   * @retval HAL status
 808:Drivers/STM32H7xx_HAL_Driver/Src/stm32h7xx_hal_tim_ex.c ****   */
 809:Drivers/STM32H7xx_HAL_Driver/Src/stm32h7xx_hal_tim_ex.c **** HAL_StatusTypeDef HAL_TIMEx_OCN_Stop_IT(TIM_HandleTypeDef *htim, uint32_t Channel)
 810:Drivers/STM32H7xx_HAL_Driver/Src/stm32h7xx_hal_tim_ex.c **** {
 2135              		.loc 1 810 1
 2136              		.cfi_startproc
 2137              		@ args = 0, pretend = 0, frame = 16
 2138              		@ frame_needed = 1, uses_anonymous_args = 0
 2139 0000 80B5     		push	{r7, lr}
 2140              	.LCFI67:
 2141              		.cfi_def_cfa_offset 8
 2142              		.cfi_offset 7, -8
 2143              		.cfi_offset 14, -4
 2144 0002 84B0     		sub	sp, sp, #16
 2145              	.LCFI68:
 2146              		.cfi_def_cfa_offset 24
 2147 0004 00AF     		add	r7, sp, #0
 2148              	.LCFI69:
 2149              		.cfi_def_cfa_register 7
 2150 0006 7860     		str	r0, [r7, #4]
 2151 0008 3960     		str	r1, [r7]
 811:Drivers/STM32H7xx_HAL_Driver/Src/stm32h7xx_hal_tim_ex.c ****   HAL_StatusTypeDef status = HAL_OK;
 2152              		.loc 1 811 21
 2153 000a 0023     		movs	r3, #0
 2154 000c FB73     		strb	r3, [r7, #15]
 812:Drivers/STM32H7xx_HAL_Driver/Src/stm32h7xx_hal_tim_ex.c ****   uint32_t tmpccer;
 813:Drivers/STM32H7xx_HAL_Driver/Src/stm32h7xx_hal_tim_ex.c **** 
 814:Drivers/STM32H7xx_HAL_Driver/Src/stm32h7xx_hal_tim_ex.c ****   /* Check the parameters */
 815:Drivers/STM32H7xx_HAL_Driver/Src/stm32h7xx_hal_tim_ex.c ****   assert_param(IS_TIM_CCXN_INSTANCE(htim->Instance, Channel));
 816:Drivers/STM32H7xx_HAL_Driver/Src/stm32h7xx_hal_tim_ex.c **** 
 817:Drivers/STM32H7xx_HAL_Driver/Src/stm32h7xx_hal_tim_ex.c ****   switch (Channel)
 2155              		.loc 1 817 3
 2156 000e 3B68     		ldr	r3, [r7]
 2157 0010 082B     		cmp	r3, #8
 2158 0012 1BD0     		beq	.L121
 2159 0014 3B68     		ldr	r3, [r7]
 2160 0016 082B     		cmp	r3, #8
 2161 0018 21D8     		bhi	.L122
 2162 001a 3B68     		ldr	r3, [r7]
ARM GAS  C:\Users\TGSPOC~1\AppData\Local\Temp\ccBCX0SZ.s 			page 53


 2163 001c 002B     		cmp	r3, #0
 2164 001e 03D0     		beq	.L123
 2165 0020 3B68     		ldr	r3, [r7]
 2166 0022 042B     		cmp	r3, #4
 2167 0024 09D0     		beq	.L124
 2168 0026 1AE0     		b	.L122
 2169              	.L123:
 818:Drivers/STM32H7xx_HAL_Driver/Src/stm32h7xx_hal_tim_ex.c ****   {
 819:Drivers/STM32H7xx_HAL_Driver/Src/stm32h7xx_hal_tim_ex.c ****     case TIM_CHANNEL_1:
 820:Drivers/STM32H7xx_HAL_Driver/Src/stm32h7xx_hal_tim_ex.c ****     {
 821:Drivers/STM32H7xx_HAL_Driver/Src/stm32h7xx_hal_tim_ex.c ****       /* Disable the TIM Output Compare interrupt */
 822:Drivers/STM32H7xx_HAL_Driver/Src/stm32h7xx_hal_tim_ex.c ****       __HAL_TIM_DISABLE_IT(htim, TIM_IT_CC1);
 2170              		.loc 1 822 7
 2171 0028 7B68     		ldr	r3, [r7, #4]
 2172 002a 1B68     		ldr	r3, [r3]
 2173 002c DA68     		ldr	r2, [r3, #12]
 2174 002e 7B68     		ldr	r3, [r7, #4]
 2175 0030 1B68     		ldr	r3, [r3]
 2176 0032 22F00202 		bic	r2, r2, #2
 2177 0036 DA60     		str	r2, [r3, #12]
 823:Drivers/STM32H7xx_HAL_Driver/Src/stm32h7xx_hal_tim_ex.c ****       break;
 2178              		.loc 1 823 7
 2179 0038 14E0     		b	.L125
 2180              	.L124:
 824:Drivers/STM32H7xx_HAL_Driver/Src/stm32h7xx_hal_tim_ex.c ****     }
 825:Drivers/STM32H7xx_HAL_Driver/Src/stm32h7xx_hal_tim_ex.c **** 
 826:Drivers/STM32H7xx_HAL_Driver/Src/stm32h7xx_hal_tim_ex.c ****     case TIM_CHANNEL_2:
 827:Drivers/STM32H7xx_HAL_Driver/Src/stm32h7xx_hal_tim_ex.c ****     {
 828:Drivers/STM32H7xx_HAL_Driver/Src/stm32h7xx_hal_tim_ex.c ****       /* Disable the TIM Output Compare interrupt */
 829:Drivers/STM32H7xx_HAL_Driver/Src/stm32h7xx_hal_tim_ex.c ****       __HAL_TIM_DISABLE_IT(htim, TIM_IT_CC2);
 2181              		.loc 1 829 7
 2182 003a 7B68     		ldr	r3, [r7, #4]
 2183 003c 1B68     		ldr	r3, [r3]
 2184 003e DA68     		ldr	r2, [r3, #12]
 2185 0040 7B68     		ldr	r3, [r7, #4]
 2186 0042 1B68     		ldr	r3, [r3]
 2187 0044 22F00402 		bic	r2, r2, #4
 2188 0048 DA60     		str	r2, [r3, #12]
 830:Drivers/STM32H7xx_HAL_Driver/Src/stm32h7xx_hal_tim_ex.c ****       break;
 2189              		.loc 1 830 7
 2190 004a 0BE0     		b	.L125
 2191              	.L121:
 831:Drivers/STM32H7xx_HAL_Driver/Src/stm32h7xx_hal_tim_ex.c ****     }
 832:Drivers/STM32H7xx_HAL_Driver/Src/stm32h7xx_hal_tim_ex.c **** 
 833:Drivers/STM32H7xx_HAL_Driver/Src/stm32h7xx_hal_tim_ex.c ****     case TIM_CHANNEL_3:
 834:Drivers/STM32H7xx_HAL_Driver/Src/stm32h7xx_hal_tim_ex.c ****     {
 835:Drivers/STM32H7xx_HAL_Driver/Src/stm32h7xx_hal_tim_ex.c ****       /* Disable the TIM Output Compare interrupt */
 836:Drivers/STM32H7xx_HAL_Driver/Src/stm32h7xx_hal_tim_ex.c ****       __HAL_TIM_DISABLE_IT(htim, TIM_IT_CC3);
 2192              		.loc 1 836 7
 2193 004c 7B68     		ldr	r3, [r7, #4]
 2194 004e 1B68     		ldr	r3, [r3]
 2195 0050 DA68     		ldr	r2, [r3, #12]
 2196 0052 7B68     		ldr	r3, [r7, #4]
 2197 0054 1B68     		ldr	r3, [r3]
 2198 0056 22F00802 		bic	r2, r2, #8
 2199 005a DA60     		str	r2, [r3, #12]
 837:Drivers/STM32H7xx_HAL_Driver/Src/stm32h7xx_hal_tim_ex.c ****       break;
ARM GAS  C:\Users\TGSPOC~1\AppData\Local\Temp\ccBCX0SZ.s 			page 54


 2200              		.loc 1 837 7
 2201 005c 02E0     		b	.L125
 2202              	.L122:
 838:Drivers/STM32H7xx_HAL_Driver/Src/stm32h7xx_hal_tim_ex.c ****     }
 839:Drivers/STM32H7xx_HAL_Driver/Src/stm32h7xx_hal_tim_ex.c **** 
 840:Drivers/STM32H7xx_HAL_Driver/Src/stm32h7xx_hal_tim_ex.c ****     default:
 841:Drivers/STM32H7xx_HAL_Driver/Src/stm32h7xx_hal_tim_ex.c ****       status = HAL_ERROR;
 2203              		.loc 1 841 14
 2204 005e 0123     		movs	r3, #1
 2205 0060 FB73     		strb	r3, [r7, #15]
 842:Drivers/STM32H7xx_HAL_Driver/Src/stm32h7xx_hal_tim_ex.c ****       break;
 2206              		.loc 1 842 7
 2207 0062 00BF     		nop
 2208              	.L125:
 843:Drivers/STM32H7xx_HAL_Driver/Src/stm32h7xx_hal_tim_ex.c ****   }
 844:Drivers/STM32H7xx_HAL_Driver/Src/stm32h7xx_hal_tim_ex.c **** 
 845:Drivers/STM32H7xx_HAL_Driver/Src/stm32h7xx_hal_tim_ex.c ****   if (status == HAL_OK)
 2209              		.loc 1 845 6
 2210 0064 FB7B     		ldrb	r3, [r7, #15]	@ zero_extendqisi2
 2211 0066 002B     		cmp	r3, #0
 2212 0068 64D1     		bne	.L126
 846:Drivers/STM32H7xx_HAL_Driver/Src/stm32h7xx_hal_tim_ex.c ****   {
 847:Drivers/STM32H7xx_HAL_Driver/Src/stm32h7xx_hal_tim_ex.c ****     /* Disable the Capture compare channel N */
 848:Drivers/STM32H7xx_HAL_Driver/Src/stm32h7xx_hal_tim_ex.c ****     TIM_CCxNChannelCmd(htim->Instance, Channel, TIM_CCxN_DISABLE);
 2213              		.loc 1 848 5
 2214 006a 7B68     		ldr	r3, [r7, #4]
 2215 006c 1B68     		ldr	r3, [r3]
 2216 006e 0022     		movs	r2, #0
 2217 0070 3968     		ldr	r1, [r7]
 2218 0072 1846     		mov	r0, r3
 2219 0074 FFF7FEFF 		bl	TIM_CCxNChannelCmd
 849:Drivers/STM32H7xx_HAL_Driver/Src/stm32h7xx_hal_tim_ex.c **** 
 850:Drivers/STM32H7xx_HAL_Driver/Src/stm32h7xx_hal_tim_ex.c ****     /* Disable the TIM Break interrupt (only if no more channel is active) */
 851:Drivers/STM32H7xx_HAL_Driver/Src/stm32h7xx_hal_tim_ex.c ****     tmpccer = htim->Instance->CCER;
 2220              		.loc 1 851 19
 2221 0078 7B68     		ldr	r3, [r7, #4]
 2222 007a 1B68     		ldr	r3, [r3]
 2223              		.loc 1 851 13
 2224 007c 1B6A     		ldr	r3, [r3, #32]
 2225 007e BB60     		str	r3, [r7, #8]
 852:Drivers/STM32H7xx_HAL_Driver/Src/stm32h7xx_hal_tim_ex.c ****     if ((tmpccer & TIM_CCER_CCxNE_MASK) == (uint32_t)RESET)
 2226              		.loc 1 852 18
 2227 0080 BA68     		ldr	r2, [r7, #8]
 2228 0082 40F24443 		movw	r3, #1092
 2229 0086 1340     		ands	r3, r3, r2
 2230              		.loc 1 852 8
 2231 0088 002B     		cmp	r3, #0
 2232 008a 07D1     		bne	.L127
 853:Drivers/STM32H7xx_HAL_Driver/Src/stm32h7xx_hal_tim_ex.c ****     {
 854:Drivers/STM32H7xx_HAL_Driver/Src/stm32h7xx_hal_tim_ex.c ****       __HAL_TIM_DISABLE_IT(htim, TIM_IT_BREAK);
 2233              		.loc 1 854 7
 2234 008c 7B68     		ldr	r3, [r7, #4]
 2235 008e 1B68     		ldr	r3, [r3]
 2236 0090 DA68     		ldr	r2, [r3, #12]
 2237 0092 7B68     		ldr	r3, [r7, #4]
 2238 0094 1B68     		ldr	r3, [r3]
 2239 0096 22F08002 		bic	r2, r2, #128
ARM GAS  C:\Users\TGSPOC~1\AppData\Local\Temp\ccBCX0SZ.s 			page 55


 2240 009a DA60     		str	r2, [r3, #12]
 2241              	.L127:
 855:Drivers/STM32H7xx_HAL_Driver/Src/stm32h7xx_hal_tim_ex.c ****     }
 856:Drivers/STM32H7xx_HAL_Driver/Src/stm32h7xx_hal_tim_ex.c **** 
 857:Drivers/STM32H7xx_HAL_Driver/Src/stm32h7xx_hal_tim_ex.c ****     /* Disable the Main Output */
 858:Drivers/STM32H7xx_HAL_Driver/Src/stm32h7xx_hal_tim_ex.c ****     __HAL_TIM_MOE_DISABLE(htim);
 2242              		.loc 1 858 5
 2243 009c 7B68     		ldr	r3, [r7, #4]
 2244 009e 1B68     		ldr	r3, [r3]
 2245 00a0 1A6A     		ldr	r2, [r3, #32]
 2246 00a2 41F21113 		movw	r3, #4369
 2247 00a6 1340     		ands	r3, r3, r2
 2248 00a8 002B     		cmp	r3, #0
 2249 00aa 0FD1     		bne	.L128
 2250              		.loc 1 858 5 is_stmt 0 discriminator 1
 2251 00ac 7B68     		ldr	r3, [r7, #4]
 2252 00ae 1B68     		ldr	r3, [r3]
 2253 00b0 1A6A     		ldr	r2, [r3, #32]
 2254 00b2 40F24443 		movw	r3, #1092
 2255 00b6 1340     		ands	r3, r3, r2
 2256 00b8 002B     		cmp	r3, #0
 2257 00ba 07D1     		bne	.L128
 2258              		.loc 1 858 5 discriminator 2
 2259 00bc 7B68     		ldr	r3, [r7, #4]
 2260 00be 1B68     		ldr	r3, [r3]
 2261 00c0 5A6C     		ldr	r2, [r3, #68]
 2262 00c2 7B68     		ldr	r3, [r7, #4]
 2263 00c4 1B68     		ldr	r3, [r3]
 2264 00c6 22F40042 		bic	r2, r2, #32768
 2265 00ca 5A64     		str	r2, [r3, #68]
 2266              	.L128:
 859:Drivers/STM32H7xx_HAL_Driver/Src/stm32h7xx_hal_tim_ex.c **** 
 860:Drivers/STM32H7xx_HAL_Driver/Src/stm32h7xx_hal_tim_ex.c ****     /* Disable the Peripheral */
 861:Drivers/STM32H7xx_HAL_Driver/Src/stm32h7xx_hal_tim_ex.c ****     __HAL_TIM_DISABLE(htim);
 2267              		.loc 1 861 5 is_stmt 1
 2268 00cc 7B68     		ldr	r3, [r7, #4]
 2269 00ce 1B68     		ldr	r3, [r3]
 2270 00d0 1A6A     		ldr	r2, [r3, #32]
 2271 00d2 41F21113 		movw	r3, #4369
 2272 00d6 1340     		ands	r3, r3, r2
 2273 00d8 002B     		cmp	r3, #0
 2274 00da 0FD1     		bne	.L129
 2275              		.loc 1 861 5 is_stmt 0 discriminator 1
 2276 00dc 7B68     		ldr	r3, [r7, #4]
 2277 00de 1B68     		ldr	r3, [r3]
 2278 00e0 1A6A     		ldr	r2, [r3, #32]
 2279 00e2 40F24443 		movw	r3, #1092
 2280 00e6 1340     		ands	r3, r3, r2
 2281 00e8 002B     		cmp	r3, #0
 2282 00ea 07D1     		bne	.L129
 2283              		.loc 1 861 5 discriminator 2
 2284 00ec 7B68     		ldr	r3, [r7, #4]
 2285 00ee 1B68     		ldr	r3, [r3]
 2286 00f0 1A68     		ldr	r2, [r3]
 2287 00f2 7B68     		ldr	r3, [r7, #4]
 2288 00f4 1B68     		ldr	r3, [r3]
 2289 00f6 22F00102 		bic	r2, r2, #1
ARM GAS  C:\Users\TGSPOC~1\AppData\Local\Temp\ccBCX0SZ.s 			page 56


 2290 00fa 1A60     		str	r2, [r3]
 2291              	.L129:
 862:Drivers/STM32H7xx_HAL_Driver/Src/stm32h7xx_hal_tim_ex.c **** 
 863:Drivers/STM32H7xx_HAL_Driver/Src/stm32h7xx_hal_tim_ex.c ****     /* Set the TIM complementary channel state */
 864:Drivers/STM32H7xx_HAL_Driver/Src/stm32h7xx_hal_tim_ex.c ****     TIM_CHANNEL_N_STATE_SET(htim, Channel, HAL_TIM_CHANNEL_STATE_READY);
 2292              		.loc 1 864 5 is_stmt 1
 2293 00fc 3B68     		ldr	r3, [r7]
 2294 00fe 002B     		cmp	r3, #0
 2295 0100 04D1     		bne	.L130
 2296              		.loc 1 864 5 is_stmt 0 discriminator 1
 2297 0102 7B68     		ldr	r3, [r7, #4]
 2298 0104 0122     		movs	r2, #1
 2299 0106 83F84420 		strb	r2, [r3, #68]
 2300 010a 13E0     		b	.L126
 2301              	.L130:
 2302              		.loc 1 864 5 discriminator 2
 2303 010c 3B68     		ldr	r3, [r7]
 2304 010e 042B     		cmp	r3, #4
 2305 0110 04D1     		bne	.L131
 2306              		.loc 1 864 5 discriminator 3
 2307 0112 7B68     		ldr	r3, [r7, #4]
 2308 0114 0122     		movs	r2, #1
 2309 0116 83F84520 		strb	r2, [r3, #69]
 2310 011a 0BE0     		b	.L126
 2311              	.L131:
 2312              		.loc 1 864 5 discriminator 4
 2313 011c 3B68     		ldr	r3, [r7]
 2314 011e 082B     		cmp	r3, #8
 2315 0120 04D1     		bne	.L133
 2316              		.loc 1 864 5 discriminator 6
 2317 0122 7B68     		ldr	r3, [r7, #4]
 2318 0124 0122     		movs	r2, #1
 2319 0126 83F84620 		strb	r2, [r3, #70]
 2320 012a 03E0     		b	.L126
 2321              	.L133:
 2322              		.loc 1 864 5 discriminator 7
 2323 012c 7B68     		ldr	r3, [r7, #4]
 2324 012e 0122     		movs	r2, #1
 2325 0130 83F84720 		strb	r2, [r3, #71]
 2326              	.L126:
 865:Drivers/STM32H7xx_HAL_Driver/Src/stm32h7xx_hal_tim_ex.c ****   }
 866:Drivers/STM32H7xx_HAL_Driver/Src/stm32h7xx_hal_tim_ex.c **** 
 867:Drivers/STM32H7xx_HAL_Driver/Src/stm32h7xx_hal_tim_ex.c ****   /* Return function status */
 868:Drivers/STM32H7xx_HAL_Driver/Src/stm32h7xx_hal_tim_ex.c ****   return status;
 2327              		.loc 1 868 10 is_stmt 1
 2328 0134 FB7B     		ldrb	r3, [r7, #15]	@ zero_extendqisi2
 869:Drivers/STM32H7xx_HAL_Driver/Src/stm32h7xx_hal_tim_ex.c **** }
 2329              		.loc 1 869 1
 2330 0136 1846     		mov	r0, r3
 2331 0138 1037     		adds	r7, r7, #16
 2332              	.LCFI70:
 2333              		.cfi_def_cfa_offset 8
 2334 013a BD46     		mov	sp, r7
 2335              	.LCFI71:
 2336              		.cfi_def_cfa_register 13
 2337              		@ sp needed
 2338 013c 80BD     		pop	{r7, pc}
ARM GAS  C:\Users\TGSPOC~1\AppData\Local\Temp\ccBCX0SZ.s 			page 57


 2339              		.cfi_endproc
 2340              	.LFE157:
 2342              		.section	.text.HAL_TIMEx_OCN_Start_DMA,"ax",%progbits
 2343              		.align	1
 2344              		.global	HAL_TIMEx_OCN_Start_DMA
 2345              		.syntax unified
 2346              		.thumb
 2347              		.thumb_func
 2349              	HAL_TIMEx_OCN_Start_DMA:
 2350              	.LFB158:
 870:Drivers/STM32H7xx_HAL_Driver/Src/stm32h7xx_hal_tim_ex.c **** 
 871:Drivers/STM32H7xx_HAL_Driver/Src/stm32h7xx_hal_tim_ex.c **** /**
 872:Drivers/STM32H7xx_HAL_Driver/Src/stm32h7xx_hal_tim_ex.c ****   * @brief  Starts the TIM Output Compare signal generation in DMA mode
 873:Drivers/STM32H7xx_HAL_Driver/Src/stm32h7xx_hal_tim_ex.c ****   *         on the complementary output.
 874:Drivers/STM32H7xx_HAL_Driver/Src/stm32h7xx_hal_tim_ex.c ****   * @param  htim TIM Output Compare handle
 875:Drivers/STM32H7xx_HAL_Driver/Src/stm32h7xx_hal_tim_ex.c ****   * @param  Channel TIM Channel to be enabled
 876:Drivers/STM32H7xx_HAL_Driver/Src/stm32h7xx_hal_tim_ex.c ****   *          This parameter can be one of the following values:
 877:Drivers/STM32H7xx_HAL_Driver/Src/stm32h7xx_hal_tim_ex.c ****   *            @arg TIM_CHANNEL_1: TIM Channel 1 selected
 878:Drivers/STM32H7xx_HAL_Driver/Src/stm32h7xx_hal_tim_ex.c ****   *            @arg TIM_CHANNEL_2: TIM Channel 2 selected
 879:Drivers/STM32H7xx_HAL_Driver/Src/stm32h7xx_hal_tim_ex.c ****   *            @arg TIM_CHANNEL_3: TIM Channel 3 selected
 880:Drivers/STM32H7xx_HAL_Driver/Src/stm32h7xx_hal_tim_ex.c ****   * @param  pData The source Buffer address.
 881:Drivers/STM32H7xx_HAL_Driver/Src/stm32h7xx_hal_tim_ex.c ****   * @param  Length The length of data to be transferred from memory to TIM peripheral
 882:Drivers/STM32H7xx_HAL_Driver/Src/stm32h7xx_hal_tim_ex.c ****   * @retval HAL status
 883:Drivers/STM32H7xx_HAL_Driver/Src/stm32h7xx_hal_tim_ex.c ****   */
 884:Drivers/STM32H7xx_HAL_Driver/Src/stm32h7xx_hal_tim_ex.c **** HAL_StatusTypeDef HAL_TIMEx_OCN_Start_DMA(TIM_HandleTypeDef *htim, uint32_t Channel, const uint32_t
 885:Drivers/STM32H7xx_HAL_Driver/Src/stm32h7xx_hal_tim_ex.c ****                                           uint16_t Length)
 886:Drivers/STM32H7xx_HAL_Driver/Src/stm32h7xx_hal_tim_ex.c **** {
 2351              		.loc 1 886 1
 2352              		.cfi_startproc
 2353              		@ args = 0, pretend = 0, frame = 24
 2354              		@ frame_needed = 1, uses_anonymous_args = 0
 2355 0000 80B5     		push	{r7, lr}
 2356              	.LCFI72:
 2357              		.cfi_def_cfa_offset 8
 2358              		.cfi_offset 7, -8
 2359              		.cfi_offset 14, -4
 2360 0002 86B0     		sub	sp, sp, #24
 2361              	.LCFI73:
 2362              		.cfi_def_cfa_offset 32
 2363 0004 00AF     		add	r7, sp, #0
 2364              	.LCFI74:
 2365              		.cfi_def_cfa_register 7
 2366 0006 F860     		str	r0, [r7, #12]
 2367 0008 B960     		str	r1, [r7, #8]
 2368 000a 7A60     		str	r2, [r7, #4]
 2369 000c 7B80     		strh	r3, [r7, #2]	@ movhi
 887:Drivers/STM32H7xx_HAL_Driver/Src/stm32h7xx_hal_tim_ex.c ****   HAL_StatusTypeDef status = HAL_OK;
 2370              		.loc 1 887 21
 2371 000e 0023     		movs	r3, #0
 2372 0010 FB75     		strb	r3, [r7, #23]
 888:Drivers/STM32H7xx_HAL_Driver/Src/stm32h7xx_hal_tim_ex.c ****   uint32_t tmpsmcr;
 889:Drivers/STM32H7xx_HAL_Driver/Src/stm32h7xx_hal_tim_ex.c **** 
 890:Drivers/STM32H7xx_HAL_Driver/Src/stm32h7xx_hal_tim_ex.c ****   /* Check the parameters */
 891:Drivers/STM32H7xx_HAL_Driver/Src/stm32h7xx_hal_tim_ex.c ****   assert_param(IS_TIM_CCXN_INSTANCE(htim->Instance, Channel));
 892:Drivers/STM32H7xx_HAL_Driver/Src/stm32h7xx_hal_tim_ex.c **** 
 893:Drivers/STM32H7xx_HAL_Driver/Src/stm32h7xx_hal_tim_ex.c ****   /* Set the TIM complementary channel state */
 894:Drivers/STM32H7xx_HAL_Driver/Src/stm32h7xx_hal_tim_ex.c ****   if (TIM_CHANNEL_N_STATE_GET(htim, Channel) == HAL_TIM_CHANNEL_STATE_BUSY)
ARM GAS  C:\Users\TGSPOC~1\AppData\Local\Temp\ccBCX0SZ.s 			page 58


 2373              		.loc 1 894 46
 2374 0012 BB68     		ldr	r3, [r7, #8]
 2375 0014 002B     		cmp	r3, #0
 2376 0016 09D1     		bne	.L137
 2377              		.loc 1 894 7 discriminator 1
 2378 0018 FB68     		ldr	r3, [r7, #12]
 2379 001a 93F84430 		ldrb	r3, [r3, #68]
 2380 001e DBB2     		uxtb	r3, r3
 2381              		.loc 1 894 46 discriminator 1
 2382 0020 022B     		cmp	r3, #2
 2383 0022 0CBF     		ite	eq
 2384 0024 0123     		moveq	r3, #1
 2385 0026 0023     		movne	r3, #0
 2386 0028 DBB2     		uxtb	r3, r3
 2387 002a 22E0     		b	.L138
 2388              	.L137:
 2389              		.loc 1 894 46 is_stmt 0 discriminator 2
 2390 002c BB68     		ldr	r3, [r7, #8]
 2391 002e 042B     		cmp	r3, #4
 2392 0030 09D1     		bne	.L139
 2393              		.loc 1 894 7 is_stmt 1 discriminator 4
 2394 0032 FB68     		ldr	r3, [r7, #12]
 2395 0034 93F84530 		ldrb	r3, [r3, #69]
 2396 0038 DBB2     		uxtb	r3, r3
 2397              		.loc 1 894 46 discriminator 4
 2398 003a 022B     		cmp	r3, #2
 2399 003c 0CBF     		ite	eq
 2400 003e 0123     		moveq	r3, #1
 2401 0040 0023     		movne	r3, #0
 2402 0042 DBB2     		uxtb	r3, r3
 2403 0044 15E0     		b	.L138
 2404              	.L139:
 2405              		.loc 1 894 46 is_stmt 0 discriminator 5
 2406 0046 BB68     		ldr	r3, [r7, #8]
 2407 0048 082B     		cmp	r3, #8
 2408 004a 09D1     		bne	.L141
 2409              		.loc 1 894 7 is_stmt 1 discriminator 7
 2410 004c FB68     		ldr	r3, [r7, #12]
 2411 004e 93F84630 		ldrb	r3, [r3, #70]
 2412 0052 DBB2     		uxtb	r3, r3
 2413              		.loc 1 894 46 discriminator 7
 2414 0054 022B     		cmp	r3, #2
 2415 0056 0CBF     		ite	eq
 2416 0058 0123     		moveq	r3, #1
 2417 005a 0023     		movne	r3, #0
 2418 005c DBB2     		uxtb	r3, r3
 2419 005e 08E0     		b	.L138
 2420              	.L141:
 2421              		.loc 1 894 7 discriminator 8
 2422 0060 FB68     		ldr	r3, [r7, #12]
 2423 0062 93F84730 		ldrb	r3, [r3, #71]
 2424 0066 DBB2     		uxtb	r3, r3
 2425              		.loc 1 894 46 discriminator 8
 2426 0068 022B     		cmp	r3, #2
 2427 006a 0CBF     		ite	eq
 2428 006c 0123     		moveq	r3, #1
 2429 006e 0023     		movne	r3, #0
ARM GAS  C:\Users\TGSPOC~1\AppData\Local\Temp\ccBCX0SZ.s 			page 59


 2430 0070 DBB2     		uxtb	r3, r3
 2431              	.L138:
 2432              		.loc 1 894 6 discriminator 12
 2433 0072 002B     		cmp	r3, #0
 2434 0074 01D0     		beq	.L143
 895:Drivers/STM32H7xx_HAL_Driver/Src/stm32h7xx_hal_tim_ex.c ****   {
 896:Drivers/STM32H7xx_HAL_Driver/Src/stm32h7xx_hal_tim_ex.c ****     return HAL_BUSY;
 2435              		.loc 1 896 12
 2436 0076 0223     		movs	r3, #2
 2437 0078 2FE1     		b	.L144
 2438              	.L143:
 897:Drivers/STM32H7xx_HAL_Driver/Src/stm32h7xx_hal_tim_ex.c ****   }
 898:Drivers/STM32H7xx_HAL_Driver/Src/stm32h7xx_hal_tim_ex.c ****   else if (TIM_CHANNEL_N_STATE_GET(htim, Channel) == HAL_TIM_CHANNEL_STATE_READY)
 2439              		.loc 1 898 51
 2440 007a BB68     		ldr	r3, [r7, #8]
 2441 007c 002B     		cmp	r3, #0
 2442 007e 09D1     		bne	.L145
 2443              		.loc 1 898 12 discriminator 1
 2444 0080 FB68     		ldr	r3, [r7, #12]
 2445 0082 93F84430 		ldrb	r3, [r3, #68]
 2446 0086 DBB2     		uxtb	r3, r3
 2447              		.loc 1 898 51 discriminator 1
 2448 0088 012B     		cmp	r3, #1
 2449 008a 0CBF     		ite	eq
 2450 008c 0123     		moveq	r3, #1
 2451 008e 0023     		movne	r3, #0
 2452 0090 DBB2     		uxtb	r3, r3
 2453 0092 22E0     		b	.L146
 2454              	.L145:
 2455              		.loc 1 898 51 is_stmt 0 discriminator 2
 2456 0094 BB68     		ldr	r3, [r7, #8]
 2457 0096 042B     		cmp	r3, #4
 2458 0098 09D1     		bne	.L147
 2459              		.loc 1 898 12 is_stmt 1 discriminator 4
 2460 009a FB68     		ldr	r3, [r7, #12]
 2461 009c 93F84530 		ldrb	r3, [r3, #69]
 2462 00a0 DBB2     		uxtb	r3, r3
 2463              		.loc 1 898 51 discriminator 4
 2464 00a2 012B     		cmp	r3, #1
 2465 00a4 0CBF     		ite	eq
 2466 00a6 0123     		moveq	r3, #1
 2467 00a8 0023     		movne	r3, #0
 2468 00aa DBB2     		uxtb	r3, r3
 2469 00ac 15E0     		b	.L146
 2470              	.L147:
 2471              		.loc 1 898 51 is_stmt 0 discriminator 5
 2472 00ae BB68     		ldr	r3, [r7, #8]
 2473 00b0 082B     		cmp	r3, #8
 2474 00b2 09D1     		bne	.L149
 2475              		.loc 1 898 12 is_stmt 1 discriminator 7
 2476 00b4 FB68     		ldr	r3, [r7, #12]
 2477 00b6 93F84630 		ldrb	r3, [r3, #70]
 2478 00ba DBB2     		uxtb	r3, r3
 2479              		.loc 1 898 51 discriminator 7
 2480 00bc 012B     		cmp	r3, #1
 2481 00be 0CBF     		ite	eq
 2482 00c0 0123     		moveq	r3, #1
ARM GAS  C:\Users\TGSPOC~1\AppData\Local\Temp\ccBCX0SZ.s 			page 60


 2483 00c2 0023     		movne	r3, #0
 2484 00c4 DBB2     		uxtb	r3, r3
 2485 00c6 08E0     		b	.L146
 2486              	.L149:
 2487              		.loc 1 898 12 discriminator 8
 2488 00c8 FB68     		ldr	r3, [r7, #12]
 2489 00ca 93F84730 		ldrb	r3, [r3, #71]
 2490 00ce DBB2     		uxtb	r3, r3
 2491              		.loc 1 898 51 discriminator 8
 2492 00d0 012B     		cmp	r3, #1
 2493 00d2 0CBF     		ite	eq
 2494 00d4 0123     		moveq	r3, #1
 2495 00d6 0023     		movne	r3, #0
 2496 00d8 DBB2     		uxtb	r3, r3
 2497              	.L146:
 2498              		.loc 1 898 11 discriminator 12
 2499 00da 002B     		cmp	r3, #0
 2500 00dc 24D0     		beq	.L151
 899:Drivers/STM32H7xx_HAL_Driver/Src/stm32h7xx_hal_tim_ex.c ****   {
 900:Drivers/STM32H7xx_HAL_Driver/Src/stm32h7xx_hal_tim_ex.c ****     if ((pData == NULL) || (Length == 0U))
 2501              		.loc 1 900 8
 2502 00de 7B68     		ldr	r3, [r7, #4]
 2503 00e0 002B     		cmp	r3, #0
 2504 00e2 02D0     		beq	.L152
 2505              		.loc 1 900 25 discriminator 1
 2506 00e4 7B88     		ldrh	r3, [r7, #2]
 2507 00e6 002B     		cmp	r3, #0
 2508 00e8 01D1     		bne	.L153
 2509              	.L152:
 901:Drivers/STM32H7xx_HAL_Driver/Src/stm32h7xx_hal_tim_ex.c ****     {
 902:Drivers/STM32H7xx_HAL_Driver/Src/stm32h7xx_hal_tim_ex.c ****       return HAL_ERROR;
 2510              		.loc 1 902 14
 2511 00ea 0123     		movs	r3, #1
 2512 00ec F5E0     		b	.L144
 2513              	.L153:
 903:Drivers/STM32H7xx_HAL_Driver/Src/stm32h7xx_hal_tim_ex.c ****     }
 904:Drivers/STM32H7xx_HAL_Driver/Src/stm32h7xx_hal_tim_ex.c ****     else
 905:Drivers/STM32H7xx_HAL_Driver/Src/stm32h7xx_hal_tim_ex.c ****     {
 906:Drivers/STM32H7xx_HAL_Driver/Src/stm32h7xx_hal_tim_ex.c ****       TIM_CHANNEL_N_STATE_SET(htim, Channel, HAL_TIM_CHANNEL_STATE_BUSY);
 2514              		.loc 1 906 7
 2515 00ee BB68     		ldr	r3, [r7, #8]
 2516 00f0 002B     		cmp	r3, #0
 2517 00f2 04D1     		bne	.L154
 2518              		.loc 1 906 7 is_stmt 0 discriminator 1
 2519 00f4 FB68     		ldr	r3, [r7, #12]
 2520 00f6 0222     		movs	r2, #2
 2521 00f8 83F84420 		strb	r2, [r3, #68]
 2522 00fc 16E0     		b	.L155
 2523              	.L154:
 2524              		.loc 1 906 7 discriminator 2
 2525 00fe BB68     		ldr	r3, [r7, #8]
 2526 0100 042B     		cmp	r3, #4
 2527 0102 04D1     		bne	.L156
 2528              		.loc 1 906 7 discriminator 3
 2529 0104 FB68     		ldr	r3, [r7, #12]
 2530 0106 0222     		movs	r2, #2
 2531 0108 83F84520 		strb	r2, [r3, #69]
ARM GAS  C:\Users\TGSPOC~1\AppData\Local\Temp\ccBCX0SZ.s 			page 61


 2532              		.loc 1 906 7 discriminator 10
 2533 010c 0EE0     		b	.L155
 2534              	.L156:
 2535              		.loc 1 906 7 discriminator 4
 2536 010e BB68     		ldr	r3, [r7, #8]
 2537 0110 082B     		cmp	r3, #8
 2538 0112 04D1     		bne	.L158
 2539              		.loc 1 906 7 discriminator 6
 2540 0114 FB68     		ldr	r3, [r7, #12]
 2541 0116 0222     		movs	r2, #2
 2542 0118 83F84620 		strb	r2, [r3, #70]
 2543              		.loc 1 906 7 discriminator 10
 2544 011c 06E0     		b	.L155
 2545              	.L158:
 2546              		.loc 1 906 7 discriminator 7
 2547 011e FB68     		ldr	r3, [r7, #12]
 2548 0120 0222     		movs	r2, #2
 2549 0122 83F84720 		strb	r2, [r3, #71]
 2550 0126 01E0     		b	.L155
 2551              	.L151:
 907:Drivers/STM32H7xx_HAL_Driver/Src/stm32h7xx_hal_tim_ex.c ****     }
 908:Drivers/STM32H7xx_HAL_Driver/Src/stm32h7xx_hal_tim_ex.c ****   }
 909:Drivers/STM32H7xx_HAL_Driver/Src/stm32h7xx_hal_tim_ex.c ****   else
 910:Drivers/STM32H7xx_HAL_Driver/Src/stm32h7xx_hal_tim_ex.c ****   {
 911:Drivers/STM32H7xx_HAL_Driver/Src/stm32h7xx_hal_tim_ex.c ****     return HAL_ERROR;
 2552              		.loc 1 911 12 is_stmt 1
 2553 0128 0123     		movs	r3, #1
 2554 012a D6E0     		b	.L144
 2555              	.L155:
 912:Drivers/STM32H7xx_HAL_Driver/Src/stm32h7xx_hal_tim_ex.c ****   }
 913:Drivers/STM32H7xx_HAL_Driver/Src/stm32h7xx_hal_tim_ex.c **** 
 914:Drivers/STM32H7xx_HAL_Driver/Src/stm32h7xx_hal_tim_ex.c ****   switch (Channel)
 2556              		.loc 1 914 3
 2557 012c BB68     		ldr	r3, [r7, #8]
 2558 012e 082B     		cmp	r3, #8
 2559 0130 51D0     		beq	.L160
 2560 0132 BB68     		ldr	r3, [r7, #8]
 2561 0134 082B     		cmp	r3, #8
 2562 0136 72D8     		bhi	.L161
 2563 0138 BB68     		ldr	r3, [r7, #8]
 2564 013a 002B     		cmp	r3, #0
 2565 013c 03D0     		beq	.L162
 2566 013e BB68     		ldr	r3, [r7, #8]
 2567 0140 042B     		cmp	r3, #4
 2568 0142 24D0     		beq	.L163
 2569 0144 6BE0     		b	.L161
 2570              	.L162:
 915:Drivers/STM32H7xx_HAL_Driver/Src/stm32h7xx_hal_tim_ex.c ****   {
 916:Drivers/STM32H7xx_HAL_Driver/Src/stm32h7xx_hal_tim_ex.c ****     case TIM_CHANNEL_1:
 917:Drivers/STM32H7xx_HAL_Driver/Src/stm32h7xx_hal_tim_ex.c ****     {
 918:Drivers/STM32H7xx_HAL_Driver/Src/stm32h7xx_hal_tim_ex.c ****       /* Set the DMA compare callbacks */
 919:Drivers/STM32H7xx_HAL_Driver/Src/stm32h7xx_hal_tim_ex.c ****       htim->hdma[TIM_DMA_ID_CC1]->XferCpltCallback = TIM_DMADelayPulseNCplt;
 2571              		.loc 1 919 17
 2572 0146 FB68     		ldr	r3, [r7, #12]
 2573 0148 5B6A     		ldr	r3, [r3, #36]
 2574              		.loc 1 919 52
 2575 014a 664A     		ldr	r2, .L173
ARM GAS  C:\Users\TGSPOC~1\AppData\Local\Temp\ccBCX0SZ.s 			page 62


 2576 014c DA63     		str	r2, [r3, #60]
 920:Drivers/STM32H7xx_HAL_Driver/Src/stm32h7xx_hal_tim_ex.c ****       htim->hdma[TIM_DMA_ID_CC1]->XferHalfCpltCallback = TIM_DMADelayPulseHalfCplt;
 2577              		.loc 1 920 17
 2578 014e FB68     		ldr	r3, [r7, #12]
 2579 0150 5B6A     		ldr	r3, [r3, #36]
 2580              		.loc 1 920 56
 2581 0152 654A     		ldr	r2, .L173+4
 2582 0154 1A64     		str	r2, [r3, #64]
 921:Drivers/STM32H7xx_HAL_Driver/Src/stm32h7xx_hal_tim_ex.c **** 
 922:Drivers/STM32H7xx_HAL_Driver/Src/stm32h7xx_hal_tim_ex.c ****       /* Set the DMA error callback */
 923:Drivers/STM32H7xx_HAL_Driver/Src/stm32h7xx_hal_tim_ex.c ****       htim->hdma[TIM_DMA_ID_CC1]->XferErrorCallback = TIM_DMAErrorCCxN ;
 2583              		.loc 1 923 17
 2584 0156 FB68     		ldr	r3, [r7, #12]
 2585 0158 5B6A     		ldr	r3, [r3, #36]
 2586              		.loc 1 923 53
 2587 015a 644A     		ldr	r2, .L173+8
 2588 015c DA64     		str	r2, [r3, #76]
 924:Drivers/STM32H7xx_HAL_Driver/Src/stm32h7xx_hal_tim_ex.c **** 
 925:Drivers/STM32H7xx_HAL_Driver/Src/stm32h7xx_hal_tim_ex.c ****       /* Enable the DMA stream */
 926:Drivers/STM32H7xx_HAL_Driver/Src/stm32h7xx_hal_tim_ex.c ****       if (HAL_DMA_Start_IT(htim->hdma[TIM_DMA_ID_CC1], (uint32_t)pData, (uint32_t)&htim->Instance->
 2589              		.loc 1 926 11
 2590 015e FB68     		ldr	r3, [r7, #12]
 2591 0160 586A     		ldr	r0, [r3, #36]
 2592 0162 7968     		ldr	r1, [r7, #4]
 2593              		.loc 1 926 88
 2594 0164 FB68     		ldr	r3, [r7, #12]
 2595 0166 1B68     		ldr	r3, [r3]
 2596              		.loc 1 926 83
 2597 0168 3433     		adds	r3, r3, #52
 2598              		.loc 1 926 11
 2599 016a 1A46     		mov	r2, r3
 2600 016c 7B88     		ldrh	r3, [r7, #2]
 2601 016e FFF7FEFF 		bl	HAL_DMA_Start_IT
 2602 0172 0346     		mov	r3, r0
 2603              		.loc 1 926 10 discriminator 1
 2604 0174 002B     		cmp	r3, #0
 2605 0176 01D0     		beq	.L164
 927:Drivers/STM32H7xx_HAL_Driver/Src/stm32h7xx_hal_tim_ex.c ****                            Length) != HAL_OK)
 928:Drivers/STM32H7xx_HAL_Driver/Src/stm32h7xx_hal_tim_ex.c ****       {
 929:Drivers/STM32H7xx_HAL_Driver/Src/stm32h7xx_hal_tim_ex.c ****         /* Return error status */
 930:Drivers/STM32H7xx_HAL_Driver/Src/stm32h7xx_hal_tim_ex.c ****         return HAL_ERROR;
 2606              		.loc 1 930 16
 2607 0178 0123     		movs	r3, #1
 2608 017a AEE0     		b	.L144
 2609              	.L164:
 931:Drivers/STM32H7xx_HAL_Driver/Src/stm32h7xx_hal_tim_ex.c ****       }
 932:Drivers/STM32H7xx_HAL_Driver/Src/stm32h7xx_hal_tim_ex.c ****       /* Enable the TIM Output Compare DMA request */
 933:Drivers/STM32H7xx_HAL_Driver/Src/stm32h7xx_hal_tim_ex.c ****       __HAL_TIM_ENABLE_DMA(htim, TIM_DMA_CC1);
 2610              		.loc 1 933 7
 2611 017c FB68     		ldr	r3, [r7, #12]
 2612 017e 1B68     		ldr	r3, [r3]
 2613 0180 DA68     		ldr	r2, [r3, #12]
 2614 0182 FB68     		ldr	r3, [r7, #12]
 2615 0184 1B68     		ldr	r3, [r3]
 2616 0186 42F40072 		orr	r2, r2, #512
 2617 018a DA60     		str	r2, [r3, #12]
 934:Drivers/STM32H7xx_HAL_Driver/Src/stm32h7xx_hal_tim_ex.c ****       break;
ARM GAS  C:\Users\TGSPOC~1\AppData\Local\Temp\ccBCX0SZ.s 			page 63


 2618              		.loc 1 934 7
 2619 018c 4AE0     		b	.L165
 2620              	.L163:
 935:Drivers/STM32H7xx_HAL_Driver/Src/stm32h7xx_hal_tim_ex.c ****     }
 936:Drivers/STM32H7xx_HAL_Driver/Src/stm32h7xx_hal_tim_ex.c **** 
 937:Drivers/STM32H7xx_HAL_Driver/Src/stm32h7xx_hal_tim_ex.c ****     case TIM_CHANNEL_2:
 938:Drivers/STM32H7xx_HAL_Driver/Src/stm32h7xx_hal_tim_ex.c ****     {
 939:Drivers/STM32H7xx_HAL_Driver/Src/stm32h7xx_hal_tim_ex.c ****       /* Set the DMA compare callbacks */
 940:Drivers/STM32H7xx_HAL_Driver/Src/stm32h7xx_hal_tim_ex.c ****       htim->hdma[TIM_DMA_ID_CC2]->XferCpltCallback = TIM_DMADelayPulseNCplt;
 2621              		.loc 1 940 17
 2622 018e FB68     		ldr	r3, [r7, #12]
 2623 0190 9B6A     		ldr	r3, [r3, #40]
 2624              		.loc 1 940 52
 2625 0192 544A     		ldr	r2, .L173
 2626 0194 DA63     		str	r2, [r3, #60]
 941:Drivers/STM32H7xx_HAL_Driver/Src/stm32h7xx_hal_tim_ex.c ****       htim->hdma[TIM_DMA_ID_CC2]->XferHalfCpltCallback = TIM_DMADelayPulseHalfCplt;
 2627              		.loc 1 941 17
 2628 0196 FB68     		ldr	r3, [r7, #12]
 2629 0198 9B6A     		ldr	r3, [r3, #40]
 2630              		.loc 1 941 56
 2631 019a 534A     		ldr	r2, .L173+4
 2632 019c 1A64     		str	r2, [r3, #64]
 942:Drivers/STM32H7xx_HAL_Driver/Src/stm32h7xx_hal_tim_ex.c **** 
 943:Drivers/STM32H7xx_HAL_Driver/Src/stm32h7xx_hal_tim_ex.c ****       /* Set the DMA error callback */
 944:Drivers/STM32H7xx_HAL_Driver/Src/stm32h7xx_hal_tim_ex.c ****       htim->hdma[TIM_DMA_ID_CC2]->XferErrorCallback = TIM_DMAErrorCCxN ;
 2633              		.loc 1 944 17
 2634 019e FB68     		ldr	r3, [r7, #12]
 2635 01a0 9B6A     		ldr	r3, [r3, #40]
 2636              		.loc 1 944 53
 2637 01a2 524A     		ldr	r2, .L173+8
 2638 01a4 DA64     		str	r2, [r3, #76]
 945:Drivers/STM32H7xx_HAL_Driver/Src/stm32h7xx_hal_tim_ex.c **** 
 946:Drivers/STM32H7xx_HAL_Driver/Src/stm32h7xx_hal_tim_ex.c ****       /* Enable the DMA stream */
 947:Drivers/STM32H7xx_HAL_Driver/Src/stm32h7xx_hal_tim_ex.c ****       if (HAL_DMA_Start_IT(htim->hdma[TIM_DMA_ID_CC2], (uint32_t)pData, (uint32_t)&htim->Instance->
 2639              		.loc 1 947 11
 2640 01a6 FB68     		ldr	r3, [r7, #12]
 2641 01a8 986A     		ldr	r0, [r3, #40]
 2642 01aa 7968     		ldr	r1, [r7, #4]
 2643              		.loc 1 947 88
 2644 01ac FB68     		ldr	r3, [r7, #12]
 2645 01ae 1B68     		ldr	r3, [r3]
 2646              		.loc 1 947 83
 2647 01b0 3833     		adds	r3, r3, #56
 2648              		.loc 1 947 11
 2649 01b2 1A46     		mov	r2, r3
 2650 01b4 7B88     		ldrh	r3, [r7, #2]
 2651 01b6 FFF7FEFF 		bl	HAL_DMA_Start_IT
 2652 01ba 0346     		mov	r3, r0
 2653              		.loc 1 947 10 discriminator 1
 2654 01bc 002B     		cmp	r3, #0
 2655 01be 01D0     		beq	.L166
 948:Drivers/STM32H7xx_HAL_Driver/Src/stm32h7xx_hal_tim_ex.c ****                            Length) != HAL_OK)
 949:Drivers/STM32H7xx_HAL_Driver/Src/stm32h7xx_hal_tim_ex.c ****       {
 950:Drivers/STM32H7xx_HAL_Driver/Src/stm32h7xx_hal_tim_ex.c ****         /* Return error status */
 951:Drivers/STM32H7xx_HAL_Driver/Src/stm32h7xx_hal_tim_ex.c ****         return HAL_ERROR;
 2656              		.loc 1 951 16
 2657 01c0 0123     		movs	r3, #1
ARM GAS  C:\Users\TGSPOC~1\AppData\Local\Temp\ccBCX0SZ.s 			page 64


 2658 01c2 8AE0     		b	.L144
 2659              	.L166:
 952:Drivers/STM32H7xx_HAL_Driver/Src/stm32h7xx_hal_tim_ex.c ****       }
 953:Drivers/STM32H7xx_HAL_Driver/Src/stm32h7xx_hal_tim_ex.c ****       /* Enable the TIM Output Compare DMA request */
 954:Drivers/STM32H7xx_HAL_Driver/Src/stm32h7xx_hal_tim_ex.c ****       __HAL_TIM_ENABLE_DMA(htim, TIM_DMA_CC2);
 2660              		.loc 1 954 7
 2661 01c4 FB68     		ldr	r3, [r7, #12]
 2662 01c6 1B68     		ldr	r3, [r3]
 2663 01c8 DA68     		ldr	r2, [r3, #12]
 2664 01ca FB68     		ldr	r3, [r7, #12]
 2665 01cc 1B68     		ldr	r3, [r3]
 2666 01ce 42F48062 		orr	r2, r2, #1024
 2667 01d2 DA60     		str	r2, [r3, #12]
 955:Drivers/STM32H7xx_HAL_Driver/Src/stm32h7xx_hal_tim_ex.c ****       break;
 2668              		.loc 1 955 7
 2669 01d4 26E0     		b	.L165
 2670              	.L160:
 956:Drivers/STM32H7xx_HAL_Driver/Src/stm32h7xx_hal_tim_ex.c ****     }
 957:Drivers/STM32H7xx_HAL_Driver/Src/stm32h7xx_hal_tim_ex.c **** 
 958:Drivers/STM32H7xx_HAL_Driver/Src/stm32h7xx_hal_tim_ex.c ****     case TIM_CHANNEL_3:
 959:Drivers/STM32H7xx_HAL_Driver/Src/stm32h7xx_hal_tim_ex.c ****     {
 960:Drivers/STM32H7xx_HAL_Driver/Src/stm32h7xx_hal_tim_ex.c ****       /* Set the DMA compare callbacks */
 961:Drivers/STM32H7xx_HAL_Driver/Src/stm32h7xx_hal_tim_ex.c ****       htim->hdma[TIM_DMA_ID_CC3]->XferCpltCallback = TIM_DMADelayPulseNCplt;
 2671              		.loc 1 961 17
 2672 01d6 FB68     		ldr	r3, [r7, #12]
 2673 01d8 DB6A     		ldr	r3, [r3, #44]
 2674              		.loc 1 961 52
 2675 01da 424A     		ldr	r2, .L173
 2676 01dc DA63     		str	r2, [r3, #60]
 962:Drivers/STM32H7xx_HAL_Driver/Src/stm32h7xx_hal_tim_ex.c ****       htim->hdma[TIM_DMA_ID_CC3]->XferHalfCpltCallback = TIM_DMADelayPulseHalfCplt;
 2677              		.loc 1 962 17
 2678 01de FB68     		ldr	r3, [r7, #12]
 2679 01e0 DB6A     		ldr	r3, [r3, #44]
 2680              		.loc 1 962 56
 2681 01e2 414A     		ldr	r2, .L173+4
 2682 01e4 1A64     		str	r2, [r3, #64]
 963:Drivers/STM32H7xx_HAL_Driver/Src/stm32h7xx_hal_tim_ex.c **** 
 964:Drivers/STM32H7xx_HAL_Driver/Src/stm32h7xx_hal_tim_ex.c ****       /* Set the DMA error callback */
 965:Drivers/STM32H7xx_HAL_Driver/Src/stm32h7xx_hal_tim_ex.c ****       htim->hdma[TIM_DMA_ID_CC3]->XferErrorCallback = TIM_DMAErrorCCxN ;
 2683              		.loc 1 965 17
 2684 01e6 FB68     		ldr	r3, [r7, #12]
 2685 01e8 DB6A     		ldr	r3, [r3, #44]
 2686              		.loc 1 965 53
 2687 01ea 404A     		ldr	r2, .L173+8
 2688 01ec DA64     		str	r2, [r3, #76]
 966:Drivers/STM32H7xx_HAL_Driver/Src/stm32h7xx_hal_tim_ex.c **** 
 967:Drivers/STM32H7xx_HAL_Driver/Src/stm32h7xx_hal_tim_ex.c ****       /* Enable the DMA stream */
 968:Drivers/STM32H7xx_HAL_Driver/Src/stm32h7xx_hal_tim_ex.c ****       if (HAL_DMA_Start_IT(htim->hdma[TIM_DMA_ID_CC3], (uint32_t)pData, (uint32_t)&htim->Instance->
 2689              		.loc 1 968 11
 2690 01ee FB68     		ldr	r3, [r7, #12]
 2691 01f0 D86A     		ldr	r0, [r3, #44]
 2692 01f2 7968     		ldr	r1, [r7, #4]
 2693              		.loc 1 968 88
 2694 01f4 FB68     		ldr	r3, [r7, #12]
 2695 01f6 1B68     		ldr	r3, [r3]
 2696              		.loc 1 968 83
 2697 01f8 3C33     		adds	r3, r3, #60
ARM GAS  C:\Users\TGSPOC~1\AppData\Local\Temp\ccBCX0SZ.s 			page 65


 2698              		.loc 1 968 11
 2699 01fa 1A46     		mov	r2, r3
 2700 01fc 7B88     		ldrh	r3, [r7, #2]
 2701 01fe FFF7FEFF 		bl	HAL_DMA_Start_IT
 2702 0202 0346     		mov	r3, r0
 2703              		.loc 1 968 10 discriminator 1
 2704 0204 002B     		cmp	r3, #0
 2705 0206 01D0     		beq	.L167
 969:Drivers/STM32H7xx_HAL_Driver/Src/stm32h7xx_hal_tim_ex.c ****                            Length) != HAL_OK)
 970:Drivers/STM32H7xx_HAL_Driver/Src/stm32h7xx_hal_tim_ex.c ****       {
 971:Drivers/STM32H7xx_HAL_Driver/Src/stm32h7xx_hal_tim_ex.c ****         /* Return error status */
 972:Drivers/STM32H7xx_HAL_Driver/Src/stm32h7xx_hal_tim_ex.c ****         return HAL_ERROR;
 2706              		.loc 1 972 16
 2707 0208 0123     		movs	r3, #1
 2708 020a 66E0     		b	.L144
 2709              	.L167:
 973:Drivers/STM32H7xx_HAL_Driver/Src/stm32h7xx_hal_tim_ex.c ****       }
 974:Drivers/STM32H7xx_HAL_Driver/Src/stm32h7xx_hal_tim_ex.c ****       /* Enable the TIM Output Compare DMA request */
 975:Drivers/STM32H7xx_HAL_Driver/Src/stm32h7xx_hal_tim_ex.c ****       __HAL_TIM_ENABLE_DMA(htim, TIM_DMA_CC3);
 2710              		.loc 1 975 7
 2711 020c FB68     		ldr	r3, [r7, #12]
 2712 020e 1B68     		ldr	r3, [r3]
 2713 0210 DA68     		ldr	r2, [r3, #12]
 2714 0212 FB68     		ldr	r3, [r7, #12]
 2715 0214 1B68     		ldr	r3, [r3]
 2716 0216 42F40062 		orr	r2, r2, #2048
 2717 021a DA60     		str	r2, [r3, #12]
 976:Drivers/STM32H7xx_HAL_Driver/Src/stm32h7xx_hal_tim_ex.c ****       break;
 2718              		.loc 1 976 7
 2719 021c 02E0     		b	.L165
 2720              	.L161:
 977:Drivers/STM32H7xx_HAL_Driver/Src/stm32h7xx_hal_tim_ex.c ****     }
 978:Drivers/STM32H7xx_HAL_Driver/Src/stm32h7xx_hal_tim_ex.c **** 
 979:Drivers/STM32H7xx_HAL_Driver/Src/stm32h7xx_hal_tim_ex.c ****     default:
 980:Drivers/STM32H7xx_HAL_Driver/Src/stm32h7xx_hal_tim_ex.c ****       status = HAL_ERROR;
 2721              		.loc 1 980 14
 2722 021e 0123     		movs	r3, #1
 2723 0220 FB75     		strb	r3, [r7, #23]
 981:Drivers/STM32H7xx_HAL_Driver/Src/stm32h7xx_hal_tim_ex.c ****       break;
 2724              		.loc 1 981 7
 2725 0222 00BF     		nop
 2726              	.L165:
 982:Drivers/STM32H7xx_HAL_Driver/Src/stm32h7xx_hal_tim_ex.c ****   }
 983:Drivers/STM32H7xx_HAL_Driver/Src/stm32h7xx_hal_tim_ex.c **** 
 984:Drivers/STM32H7xx_HAL_Driver/Src/stm32h7xx_hal_tim_ex.c ****   if (status == HAL_OK)
 2727              		.loc 1 984 6
 2728 0224 FB7D     		ldrb	r3, [r7, #23]	@ zero_extendqisi2
 2729 0226 002B     		cmp	r3, #0
 2730 0228 56D1     		bne	.L168
 985:Drivers/STM32H7xx_HAL_Driver/Src/stm32h7xx_hal_tim_ex.c ****   {
 986:Drivers/STM32H7xx_HAL_Driver/Src/stm32h7xx_hal_tim_ex.c ****     /* Enable the Capture compare channel N */
 987:Drivers/STM32H7xx_HAL_Driver/Src/stm32h7xx_hal_tim_ex.c ****     TIM_CCxNChannelCmd(htim->Instance, Channel, TIM_CCxN_ENABLE);
 2731              		.loc 1 987 5
 2732 022a FB68     		ldr	r3, [r7, #12]
 2733 022c 1B68     		ldr	r3, [r3]
 2734 022e 0422     		movs	r2, #4
 2735 0230 B968     		ldr	r1, [r7, #8]
ARM GAS  C:\Users\TGSPOC~1\AppData\Local\Temp\ccBCX0SZ.s 			page 66


 2736 0232 1846     		mov	r0, r3
 2737 0234 FFF7FEFF 		bl	TIM_CCxNChannelCmd
 988:Drivers/STM32H7xx_HAL_Driver/Src/stm32h7xx_hal_tim_ex.c **** 
 989:Drivers/STM32H7xx_HAL_Driver/Src/stm32h7xx_hal_tim_ex.c ****     /* Enable the Main Output */
 990:Drivers/STM32H7xx_HAL_Driver/Src/stm32h7xx_hal_tim_ex.c ****     __HAL_TIM_MOE_ENABLE(htim);
 2738              		.loc 1 990 5
 2739 0238 FB68     		ldr	r3, [r7, #12]
 2740 023a 1B68     		ldr	r3, [r3]
 2741 023c 5A6C     		ldr	r2, [r3, #68]
 2742 023e FB68     		ldr	r3, [r7, #12]
 2743 0240 1B68     		ldr	r3, [r3]
 2744 0242 42F40042 		orr	r2, r2, #32768
 2745 0246 5A64     		str	r2, [r3, #68]
 991:Drivers/STM32H7xx_HAL_Driver/Src/stm32h7xx_hal_tim_ex.c **** 
 992:Drivers/STM32H7xx_HAL_Driver/Src/stm32h7xx_hal_tim_ex.c ****     /* Enable the Peripheral, except in trigger mode where enable is automatically done with trigge
 993:Drivers/STM32H7xx_HAL_Driver/Src/stm32h7xx_hal_tim_ex.c ****     if (IS_TIM_SLAVE_INSTANCE(htim->Instance))
 2746              		.loc 1 993 9
 2747 0248 FB68     		ldr	r3, [r7, #12]
 2748 024a 1B68     		ldr	r3, [r3]
 2749              		.loc 1 993 8
 2750 024c 284A     		ldr	r2, .L173+12
 2751 024e 9342     		cmp	r3, r2
 2752 0250 22D0     		beq	.L169
 2753              		.loc 1 993 9 discriminator 1
 2754 0252 FB68     		ldr	r3, [r7, #12]
 2755 0254 1B68     		ldr	r3, [r3]
 2756 0256 B3F1804F 		cmp	r3, #1073741824
 2757 025a 1DD0     		beq	.L169
 2758              		.loc 1 993 9 is_stmt 0 discriminator 2
 2759 025c FB68     		ldr	r3, [r7, #12]
 2760 025e 1B68     		ldr	r3, [r3]
 2761 0260 244A     		ldr	r2, .L173+16
 2762 0262 9342     		cmp	r3, r2
 2763 0264 18D0     		beq	.L169
 2764              		.loc 1 993 9 discriminator 3
 2765 0266 FB68     		ldr	r3, [r7, #12]
 2766 0268 1B68     		ldr	r3, [r3]
 2767 026a 234A     		ldr	r2, .L173+20
 2768 026c 9342     		cmp	r3, r2
 2769 026e 13D0     		beq	.L169
 2770              		.loc 1 993 9 discriminator 4
 2771 0270 FB68     		ldr	r3, [r7, #12]
 2772 0272 1B68     		ldr	r3, [r3]
 2773 0274 214A     		ldr	r2, .L173+24
 2774 0276 9342     		cmp	r3, r2
 2775 0278 0ED0     		beq	.L169
 2776              		.loc 1 993 9 discriminator 5
 2777 027a FB68     		ldr	r3, [r7, #12]
 2778 027c 1B68     		ldr	r3, [r3]
 2779 027e 204A     		ldr	r2, .L173+28
 2780 0280 9342     		cmp	r3, r2
 2781 0282 09D0     		beq	.L169
 2782              		.loc 1 993 9 discriminator 6
 2783 0284 FB68     		ldr	r3, [r7, #12]
 2784 0286 1B68     		ldr	r3, [r3]
 2785 0288 1E4A     		ldr	r2, .L173+32
 2786 028a 9342     		cmp	r3, r2
ARM GAS  C:\Users\TGSPOC~1\AppData\Local\Temp\ccBCX0SZ.s 			page 67


 2787 028c 04D0     		beq	.L169
 2788              		.loc 1 993 9 discriminator 7
 2789 028e FB68     		ldr	r3, [r7, #12]
 2790 0290 1B68     		ldr	r3, [r3]
 2791 0292 1D4A     		ldr	r2, .L173+36
 2792 0294 9342     		cmp	r3, r2
 2793 0296 15D1     		bne	.L170
 2794              	.L169:
 994:Drivers/STM32H7xx_HAL_Driver/Src/stm32h7xx_hal_tim_ex.c ****     {
 995:Drivers/STM32H7xx_HAL_Driver/Src/stm32h7xx_hal_tim_ex.c ****       tmpsmcr = htim->Instance->SMCR & TIM_SMCR_SMS;
 2795              		.loc 1 995 21 is_stmt 1
 2796 0298 FB68     		ldr	r3, [r7, #12]
 2797 029a 1B68     		ldr	r3, [r3]
 2798              		.loc 1 995 31
 2799 029c 9A68     		ldr	r2, [r3, #8]
 2800              		.loc 1 995 15
 2801 029e 1B4B     		ldr	r3, .L173+40
 2802 02a0 1340     		ands	r3, r3, r2
 2803 02a2 3B61     		str	r3, [r7, #16]
 996:Drivers/STM32H7xx_HAL_Driver/Src/stm32h7xx_hal_tim_ex.c ****       if (!IS_TIM_SLAVEMODE_TRIGGER_ENABLED(tmpsmcr))
 2804              		.loc 1 996 10
 2805 02a4 3B69     		ldr	r3, [r7, #16]
 2806 02a6 062B     		cmp	r3, #6
 2807 02a8 15D0     		beq	.L172
 2808              		.loc 1 996 11 discriminator 1
 2809 02aa 3B69     		ldr	r3, [r7, #16]
 2810 02ac B3F5803F 		cmp	r3, #65536
 2811 02b0 11D0     		beq	.L172
 997:Drivers/STM32H7xx_HAL_Driver/Src/stm32h7xx_hal_tim_ex.c ****       {
 998:Drivers/STM32H7xx_HAL_Driver/Src/stm32h7xx_hal_tim_ex.c ****         __HAL_TIM_ENABLE(htim);
 2812              		.loc 1 998 9
 2813 02b2 FB68     		ldr	r3, [r7, #12]
 2814 02b4 1B68     		ldr	r3, [r3]
 2815 02b6 1A68     		ldr	r2, [r3]
 2816 02b8 FB68     		ldr	r3, [r7, #12]
 2817 02ba 1B68     		ldr	r3, [r3]
 2818 02bc 42F00102 		orr	r2, r2, #1
 2819 02c0 1A60     		str	r2, [r3]
 996:Drivers/STM32H7xx_HAL_Driver/Src/stm32h7xx_hal_tim_ex.c ****       if (!IS_TIM_SLAVEMODE_TRIGGER_ENABLED(tmpsmcr))
 2820              		.loc 1 996 10
 2821 02c2 08E0     		b	.L172
 2822              	.L170:
 999:Drivers/STM32H7xx_HAL_Driver/Src/stm32h7xx_hal_tim_ex.c ****       }
1000:Drivers/STM32H7xx_HAL_Driver/Src/stm32h7xx_hal_tim_ex.c ****     }
1001:Drivers/STM32H7xx_HAL_Driver/Src/stm32h7xx_hal_tim_ex.c ****     else
1002:Drivers/STM32H7xx_HAL_Driver/Src/stm32h7xx_hal_tim_ex.c ****     {
1003:Drivers/STM32H7xx_HAL_Driver/Src/stm32h7xx_hal_tim_ex.c ****       __HAL_TIM_ENABLE(htim);
 2823              		.loc 1 1003 7
 2824 02c4 FB68     		ldr	r3, [r7, #12]
 2825 02c6 1B68     		ldr	r3, [r3]
 2826 02c8 1A68     		ldr	r2, [r3]
 2827 02ca FB68     		ldr	r3, [r7, #12]
 2828 02cc 1B68     		ldr	r3, [r3]
 2829 02ce 42F00102 		orr	r2, r2, #1
 2830 02d2 1A60     		str	r2, [r3]
 2831 02d4 00E0     		b	.L168
 2832              	.L172:
ARM GAS  C:\Users\TGSPOC~1\AppData\Local\Temp\ccBCX0SZ.s 			page 68


 996:Drivers/STM32H7xx_HAL_Driver/Src/stm32h7xx_hal_tim_ex.c ****       {
 2833              		.loc 1 996 10
 2834 02d6 00BF     		nop
 2835              	.L168:
1004:Drivers/STM32H7xx_HAL_Driver/Src/stm32h7xx_hal_tim_ex.c ****     }
1005:Drivers/STM32H7xx_HAL_Driver/Src/stm32h7xx_hal_tim_ex.c ****   }
1006:Drivers/STM32H7xx_HAL_Driver/Src/stm32h7xx_hal_tim_ex.c **** 
1007:Drivers/STM32H7xx_HAL_Driver/Src/stm32h7xx_hal_tim_ex.c ****   /* Return function status */
1008:Drivers/STM32H7xx_HAL_Driver/Src/stm32h7xx_hal_tim_ex.c ****   return status;
 2836              		.loc 1 1008 10
 2837 02d8 FB7D     		ldrb	r3, [r7, #23]	@ zero_extendqisi2
 2838              	.L144:
1009:Drivers/STM32H7xx_HAL_Driver/Src/stm32h7xx_hal_tim_ex.c **** }
 2839              		.loc 1 1009 1
 2840 02da 1846     		mov	r0, r3
 2841 02dc 1837     		adds	r7, r7, #24
 2842              	.LCFI75:
 2843              		.cfi_def_cfa_offset 8
 2844 02de BD46     		mov	sp, r7
 2845              	.LCFI76:
 2846              		.cfi_def_cfa_register 13
 2847              		@ sp needed
 2848 02e0 80BD     		pop	{r7, pc}
 2849              	.L174:
 2850 02e2 00BF     		.align	2
 2851              	.L173:
 2852 02e4 00000000 		.word	TIM_DMADelayPulseNCplt
 2853 02e8 00000000 		.word	TIM_DMADelayPulseHalfCplt
 2854 02ec 00000000 		.word	TIM_DMAErrorCCxN
 2855 02f0 00000140 		.word	1073807360
 2856 02f4 00040040 		.word	1073742848
 2857 02f8 00080040 		.word	1073743872
 2858 02fc 000C0040 		.word	1073744896
 2859 0300 00040140 		.word	1073808384
 2860 0304 00180040 		.word	1073747968
 2861 0308 00400140 		.word	1073823744
 2862 030c 07000100 		.word	65543
 2863              		.cfi_endproc
 2864              	.LFE158:
 2866              		.section	.text.HAL_TIMEx_OCN_Stop_DMA,"ax",%progbits
 2867              		.align	1
 2868              		.global	HAL_TIMEx_OCN_Stop_DMA
 2869              		.syntax unified
 2870              		.thumb
 2871              		.thumb_func
 2873              	HAL_TIMEx_OCN_Stop_DMA:
 2874              	.LFB159:
1010:Drivers/STM32H7xx_HAL_Driver/Src/stm32h7xx_hal_tim_ex.c **** 
1011:Drivers/STM32H7xx_HAL_Driver/Src/stm32h7xx_hal_tim_ex.c **** /**
1012:Drivers/STM32H7xx_HAL_Driver/Src/stm32h7xx_hal_tim_ex.c ****   * @brief  Stops the TIM Output Compare signal generation in DMA mode
1013:Drivers/STM32H7xx_HAL_Driver/Src/stm32h7xx_hal_tim_ex.c ****   *         on the complementary output.
1014:Drivers/STM32H7xx_HAL_Driver/Src/stm32h7xx_hal_tim_ex.c ****   * @param  htim TIM Output Compare handle
1015:Drivers/STM32H7xx_HAL_Driver/Src/stm32h7xx_hal_tim_ex.c ****   * @param  Channel TIM Channel to be disabled
1016:Drivers/STM32H7xx_HAL_Driver/Src/stm32h7xx_hal_tim_ex.c ****   *          This parameter can be one of the following values:
1017:Drivers/STM32H7xx_HAL_Driver/Src/stm32h7xx_hal_tim_ex.c ****   *            @arg TIM_CHANNEL_1: TIM Channel 1 selected
1018:Drivers/STM32H7xx_HAL_Driver/Src/stm32h7xx_hal_tim_ex.c ****   *            @arg TIM_CHANNEL_2: TIM Channel 2 selected
1019:Drivers/STM32H7xx_HAL_Driver/Src/stm32h7xx_hal_tim_ex.c ****   *            @arg TIM_CHANNEL_3: TIM Channel 3 selected
ARM GAS  C:\Users\TGSPOC~1\AppData\Local\Temp\ccBCX0SZ.s 			page 69


1020:Drivers/STM32H7xx_HAL_Driver/Src/stm32h7xx_hal_tim_ex.c ****   * @retval HAL status
1021:Drivers/STM32H7xx_HAL_Driver/Src/stm32h7xx_hal_tim_ex.c ****   */
1022:Drivers/STM32H7xx_HAL_Driver/Src/stm32h7xx_hal_tim_ex.c **** HAL_StatusTypeDef HAL_TIMEx_OCN_Stop_DMA(TIM_HandleTypeDef *htim, uint32_t Channel)
1023:Drivers/STM32H7xx_HAL_Driver/Src/stm32h7xx_hal_tim_ex.c **** {
 2875              		.loc 1 1023 1
 2876              		.cfi_startproc
 2877              		@ args = 0, pretend = 0, frame = 16
 2878              		@ frame_needed = 1, uses_anonymous_args = 0
 2879 0000 80B5     		push	{r7, lr}
 2880              	.LCFI77:
 2881              		.cfi_def_cfa_offset 8
 2882              		.cfi_offset 7, -8
 2883              		.cfi_offset 14, -4
 2884 0002 84B0     		sub	sp, sp, #16
 2885              	.LCFI78:
 2886              		.cfi_def_cfa_offset 24
 2887 0004 00AF     		add	r7, sp, #0
 2888              	.LCFI79:
 2889              		.cfi_def_cfa_register 7
 2890 0006 7860     		str	r0, [r7, #4]
 2891 0008 3960     		str	r1, [r7]
1024:Drivers/STM32H7xx_HAL_Driver/Src/stm32h7xx_hal_tim_ex.c ****   HAL_StatusTypeDef status = HAL_OK;
 2892              		.loc 1 1024 21
 2893 000a 0023     		movs	r3, #0
 2894 000c FB73     		strb	r3, [r7, #15]
1025:Drivers/STM32H7xx_HAL_Driver/Src/stm32h7xx_hal_tim_ex.c **** 
1026:Drivers/STM32H7xx_HAL_Driver/Src/stm32h7xx_hal_tim_ex.c ****   /* Check the parameters */
1027:Drivers/STM32H7xx_HAL_Driver/Src/stm32h7xx_hal_tim_ex.c ****   assert_param(IS_TIM_CCXN_INSTANCE(htim->Instance, Channel));
1028:Drivers/STM32H7xx_HAL_Driver/Src/stm32h7xx_hal_tim_ex.c **** 
1029:Drivers/STM32H7xx_HAL_Driver/Src/stm32h7xx_hal_tim_ex.c ****   switch (Channel)
 2895              		.loc 1 1029 3
 2896 000e 3B68     		ldr	r3, [r7]
 2897 0010 082B     		cmp	r3, #8
 2898 0012 25D0     		beq	.L176
 2899 0014 3B68     		ldr	r3, [r7]
 2900 0016 082B     		cmp	r3, #8
 2901 0018 30D8     		bhi	.L177
 2902 001a 3B68     		ldr	r3, [r7]
 2903 001c 002B     		cmp	r3, #0
 2904 001e 03D0     		beq	.L178
 2905 0020 3B68     		ldr	r3, [r7]
 2906 0022 042B     		cmp	r3, #4
 2907 0024 0ED0     		beq	.L179
 2908 0026 29E0     		b	.L177
 2909              	.L178:
1030:Drivers/STM32H7xx_HAL_Driver/Src/stm32h7xx_hal_tim_ex.c ****   {
1031:Drivers/STM32H7xx_HAL_Driver/Src/stm32h7xx_hal_tim_ex.c ****     case TIM_CHANNEL_1:
1032:Drivers/STM32H7xx_HAL_Driver/Src/stm32h7xx_hal_tim_ex.c ****     {
1033:Drivers/STM32H7xx_HAL_Driver/Src/stm32h7xx_hal_tim_ex.c ****       /* Disable the TIM Output Compare DMA request */
1034:Drivers/STM32H7xx_HAL_Driver/Src/stm32h7xx_hal_tim_ex.c ****       __HAL_TIM_DISABLE_DMA(htim, TIM_DMA_CC1);
 2910              		.loc 1 1034 7
 2911 0028 7B68     		ldr	r3, [r7, #4]
 2912 002a 1B68     		ldr	r3, [r3]
 2913 002c DA68     		ldr	r2, [r3, #12]
 2914 002e 7B68     		ldr	r3, [r7, #4]
 2915 0030 1B68     		ldr	r3, [r3]
 2916 0032 22F40072 		bic	r2, r2, #512
ARM GAS  C:\Users\TGSPOC~1\AppData\Local\Temp\ccBCX0SZ.s 			page 70


 2917 0036 DA60     		str	r2, [r3, #12]
1035:Drivers/STM32H7xx_HAL_Driver/Src/stm32h7xx_hal_tim_ex.c ****       (void)HAL_DMA_Abort_IT(htim->hdma[TIM_DMA_ID_CC1]);
 2918              		.loc 1 1035 13
 2919 0038 7B68     		ldr	r3, [r7, #4]
 2920 003a 5B6A     		ldr	r3, [r3, #36]
 2921 003c 1846     		mov	r0, r3
 2922 003e FFF7FEFF 		bl	HAL_DMA_Abort_IT
1036:Drivers/STM32H7xx_HAL_Driver/Src/stm32h7xx_hal_tim_ex.c ****       break;
 2923              		.loc 1 1036 7
 2924 0042 1EE0     		b	.L180
 2925              	.L179:
1037:Drivers/STM32H7xx_HAL_Driver/Src/stm32h7xx_hal_tim_ex.c ****     }
1038:Drivers/STM32H7xx_HAL_Driver/Src/stm32h7xx_hal_tim_ex.c **** 
1039:Drivers/STM32H7xx_HAL_Driver/Src/stm32h7xx_hal_tim_ex.c ****     case TIM_CHANNEL_2:
1040:Drivers/STM32H7xx_HAL_Driver/Src/stm32h7xx_hal_tim_ex.c ****     {
1041:Drivers/STM32H7xx_HAL_Driver/Src/stm32h7xx_hal_tim_ex.c ****       /* Disable the TIM Output Compare DMA request */
1042:Drivers/STM32H7xx_HAL_Driver/Src/stm32h7xx_hal_tim_ex.c ****       __HAL_TIM_DISABLE_DMA(htim, TIM_DMA_CC2);
 2926              		.loc 1 1042 7
 2927 0044 7B68     		ldr	r3, [r7, #4]
 2928 0046 1B68     		ldr	r3, [r3]
 2929 0048 DA68     		ldr	r2, [r3, #12]
 2930 004a 7B68     		ldr	r3, [r7, #4]
 2931 004c 1B68     		ldr	r3, [r3]
 2932 004e 22F48062 		bic	r2, r2, #1024
 2933 0052 DA60     		str	r2, [r3, #12]
1043:Drivers/STM32H7xx_HAL_Driver/Src/stm32h7xx_hal_tim_ex.c ****       (void)HAL_DMA_Abort_IT(htim->hdma[TIM_DMA_ID_CC2]);
 2934              		.loc 1 1043 13
 2935 0054 7B68     		ldr	r3, [r7, #4]
 2936 0056 9B6A     		ldr	r3, [r3, #40]
 2937 0058 1846     		mov	r0, r3
 2938 005a FFF7FEFF 		bl	HAL_DMA_Abort_IT
1044:Drivers/STM32H7xx_HAL_Driver/Src/stm32h7xx_hal_tim_ex.c ****       break;
 2939              		.loc 1 1044 7
 2940 005e 10E0     		b	.L180
 2941              	.L176:
1045:Drivers/STM32H7xx_HAL_Driver/Src/stm32h7xx_hal_tim_ex.c ****     }
1046:Drivers/STM32H7xx_HAL_Driver/Src/stm32h7xx_hal_tim_ex.c **** 
1047:Drivers/STM32H7xx_HAL_Driver/Src/stm32h7xx_hal_tim_ex.c ****     case TIM_CHANNEL_3:
1048:Drivers/STM32H7xx_HAL_Driver/Src/stm32h7xx_hal_tim_ex.c ****     {
1049:Drivers/STM32H7xx_HAL_Driver/Src/stm32h7xx_hal_tim_ex.c ****       /* Disable the TIM Output Compare DMA request */
1050:Drivers/STM32H7xx_HAL_Driver/Src/stm32h7xx_hal_tim_ex.c ****       __HAL_TIM_DISABLE_DMA(htim, TIM_DMA_CC3);
 2942              		.loc 1 1050 7
 2943 0060 7B68     		ldr	r3, [r7, #4]
 2944 0062 1B68     		ldr	r3, [r3]
 2945 0064 DA68     		ldr	r2, [r3, #12]
 2946 0066 7B68     		ldr	r3, [r7, #4]
 2947 0068 1B68     		ldr	r3, [r3]
 2948 006a 22F40062 		bic	r2, r2, #2048
 2949 006e DA60     		str	r2, [r3, #12]
1051:Drivers/STM32H7xx_HAL_Driver/Src/stm32h7xx_hal_tim_ex.c ****       (void)HAL_DMA_Abort_IT(htim->hdma[TIM_DMA_ID_CC3]);
 2950              		.loc 1 1051 13
 2951 0070 7B68     		ldr	r3, [r7, #4]
 2952 0072 DB6A     		ldr	r3, [r3, #44]
 2953 0074 1846     		mov	r0, r3
 2954 0076 FFF7FEFF 		bl	HAL_DMA_Abort_IT
1052:Drivers/STM32H7xx_HAL_Driver/Src/stm32h7xx_hal_tim_ex.c ****       break;
 2955              		.loc 1 1052 7
ARM GAS  C:\Users\TGSPOC~1\AppData\Local\Temp\ccBCX0SZ.s 			page 71


 2956 007a 02E0     		b	.L180
 2957              	.L177:
1053:Drivers/STM32H7xx_HAL_Driver/Src/stm32h7xx_hal_tim_ex.c ****     }
1054:Drivers/STM32H7xx_HAL_Driver/Src/stm32h7xx_hal_tim_ex.c **** 
1055:Drivers/STM32H7xx_HAL_Driver/Src/stm32h7xx_hal_tim_ex.c ****     default:
1056:Drivers/STM32H7xx_HAL_Driver/Src/stm32h7xx_hal_tim_ex.c ****       status = HAL_ERROR;
 2958              		.loc 1 1056 14
 2959 007c 0123     		movs	r3, #1
 2960 007e FB73     		strb	r3, [r7, #15]
1057:Drivers/STM32H7xx_HAL_Driver/Src/stm32h7xx_hal_tim_ex.c ****       break;
 2961              		.loc 1 1057 7
 2962 0080 00BF     		nop
 2963              	.L180:
1058:Drivers/STM32H7xx_HAL_Driver/Src/stm32h7xx_hal_tim_ex.c ****   }
1059:Drivers/STM32H7xx_HAL_Driver/Src/stm32h7xx_hal_tim_ex.c **** 
1060:Drivers/STM32H7xx_HAL_Driver/Src/stm32h7xx_hal_tim_ex.c ****   if (status == HAL_OK)
 2964              		.loc 1 1060 6
 2965 0082 FB7B     		ldrb	r3, [r7, #15]	@ zero_extendqisi2
 2966 0084 002B     		cmp	r3, #0
 2967 0086 52D1     		bne	.L181
1061:Drivers/STM32H7xx_HAL_Driver/Src/stm32h7xx_hal_tim_ex.c ****   {
1062:Drivers/STM32H7xx_HAL_Driver/Src/stm32h7xx_hal_tim_ex.c ****     /* Disable the Capture compare channel N */
1063:Drivers/STM32H7xx_HAL_Driver/Src/stm32h7xx_hal_tim_ex.c ****     TIM_CCxNChannelCmd(htim->Instance, Channel, TIM_CCxN_DISABLE);
 2968              		.loc 1 1063 5
 2969 0088 7B68     		ldr	r3, [r7, #4]
 2970 008a 1B68     		ldr	r3, [r3]
 2971 008c 0022     		movs	r2, #0
 2972 008e 3968     		ldr	r1, [r7]
 2973 0090 1846     		mov	r0, r3
 2974 0092 FFF7FEFF 		bl	TIM_CCxNChannelCmd
1064:Drivers/STM32H7xx_HAL_Driver/Src/stm32h7xx_hal_tim_ex.c **** 
1065:Drivers/STM32H7xx_HAL_Driver/Src/stm32h7xx_hal_tim_ex.c ****     /* Disable the Main Output */
1066:Drivers/STM32H7xx_HAL_Driver/Src/stm32h7xx_hal_tim_ex.c ****     __HAL_TIM_MOE_DISABLE(htim);
 2975              		.loc 1 1066 5
 2976 0096 7B68     		ldr	r3, [r7, #4]
 2977 0098 1B68     		ldr	r3, [r3]
 2978 009a 1A6A     		ldr	r2, [r3, #32]
 2979 009c 41F21113 		movw	r3, #4369
 2980 00a0 1340     		ands	r3, r3, r2
 2981 00a2 002B     		cmp	r3, #0
 2982 00a4 0FD1     		bne	.L182
 2983              		.loc 1 1066 5 is_stmt 0 discriminator 1
 2984 00a6 7B68     		ldr	r3, [r7, #4]
 2985 00a8 1B68     		ldr	r3, [r3]
 2986 00aa 1A6A     		ldr	r2, [r3, #32]
 2987 00ac 40F24443 		movw	r3, #1092
 2988 00b0 1340     		ands	r3, r3, r2
 2989 00b2 002B     		cmp	r3, #0
 2990 00b4 07D1     		bne	.L182
 2991              		.loc 1 1066 5 discriminator 2
 2992 00b6 7B68     		ldr	r3, [r7, #4]
 2993 00b8 1B68     		ldr	r3, [r3]
 2994 00ba 5A6C     		ldr	r2, [r3, #68]
 2995 00bc 7B68     		ldr	r3, [r7, #4]
 2996 00be 1B68     		ldr	r3, [r3]
 2997 00c0 22F40042 		bic	r2, r2, #32768
 2998 00c4 5A64     		str	r2, [r3, #68]
ARM GAS  C:\Users\TGSPOC~1\AppData\Local\Temp\ccBCX0SZ.s 			page 72


 2999              	.L182:
1067:Drivers/STM32H7xx_HAL_Driver/Src/stm32h7xx_hal_tim_ex.c **** 
1068:Drivers/STM32H7xx_HAL_Driver/Src/stm32h7xx_hal_tim_ex.c ****     /* Disable the Peripheral */
1069:Drivers/STM32H7xx_HAL_Driver/Src/stm32h7xx_hal_tim_ex.c ****     __HAL_TIM_DISABLE(htim);
 3000              		.loc 1 1069 5 is_stmt 1
 3001 00c6 7B68     		ldr	r3, [r7, #4]
 3002 00c8 1B68     		ldr	r3, [r3]
 3003 00ca 1A6A     		ldr	r2, [r3, #32]
 3004 00cc 41F21113 		movw	r3, #4369
 3005 00d0 1340     		ands	r3, r3, r2
 3006 00d2 002B     		cmp	r3, #0
 3007 00d4 0FD1     		bne	.L183
 3008              		.loc 1 1069 5 is_stmt 0 discriminator 1
 3009 00d6 7B68     		ldr	r3, [r7, #4]
 3010 00d8 1B68     		ldr	r3, [r3]
 3011 00da 1A6A     		ldr	r2, [r3, #32]
 3012 00dc 40F24443 		movw	r3, #1092
 3013 00e0 1340     		ands	r3, r3, r2
 3014 00e2 002B     		cmp	r3, #0
 3015 00e4 07D1     		bne	.L183
 3016              		.loc 1 1069 5 discriminator 2
 3017 00e6 7B68     		ldr	r3, [r7, #4]
 3018 00e8 1B68     		ldr	r3, [r3]
 3019 00ea 1A68     		ldr	r2, [r3]
 3020 00ec 7B68     		ldr	r3, [r7, #4]
 3021 00ee 1B68     		ldr	r3, [r3]
 3022 00f0 22F00102 		bic	r2, r2, #1
 3023 00f4 1A60     		str	r2, [r3]
 3024              	.L183:
1070:Drivers/STM32H7xx_HAL_Driver/Src/stm32h7xx_hal_tim_ex.c **** 
1071:Drivers/STM32H7xx_HAL_Driver/Src/stm32h7xx_hal_tim_ex.c ****     /* Set the TIM complementary channel state */
1072:Drivers/STM32H7xx_HAL_Driver/Src/stm32h7xx_hal_tim_ex.c ****     TIM_CHANNEL_N_STATE_SET(htim, Channel, HAL_TIM_CHANNEL_STATE_READY);
 3025              		.loc 1 1072 5 is_stmt 1
 3026 00f6 3B68     		ldr	r3, [r7]
 3027 00f8 002B     		cmp	r3, #0
 3028 00fa 04D1     		bne	.L184
 3029              		.loc 1 1072 5 is_stmt 0 discriminator 1
 3030 00fc 7B68     		ldr	r3, [r7, #4]
 3031 00fe 0122     		movs	r2, #1
 3032 0100 83F84420 		strb	r2, [r3, #68]
 3033 0104 13E0     		b	.L181
 3034              	.L184:
 3035              		.loc 1 1072 5 discriminator 2
 3036 0106 3B68     		ldr	r3, [r7]
 3037 0108 042B     		cmp	r3, #4
 3038 010a 04D1     		bne	.L185
 3039              		.loc 1 1072 5 discriminator 3
 3040 010c 7B68     		ldr	r3, [r7, #4]
 3041 010e 0122     		movs	r2, #1
 3042 0110 83F84520 		strb	r2, [r3, #69]
 3043 0114 0BE0     		b	.L181
 3044              	.L185:
 3045              		.loc 1 1072 5 discriminator 4
 3046 0116 3B68     		ldr	r3, [r7]
 3047 0118 082B     		cmp	r3, #8
 3048 011a 04D1     		bne	.L187
 3049              		.loc 1 1072 5 discriminator 6
ARM GAS  C:\Users\TGSPOC~1\AppData\Local\Temp\ccBCX0SZ.s 			page 73


 3050 011c 7B68     		ldr	r3, [r7, #4]
 3051 011e 0122     		movs	r2, #1
 3052 0120 83F84620 		strb	r2, [r3, #70]
 3053 0124 03E0     		b	.L181
 3054              	.L187:
 3055              		.loc 1 1072 5 discriminator 7
 3056 0126 7B68     		ldr	r3, [r7, #4]
 3057 0128 0122     		movs	r2, #1
 3058 012a 83F84720 		strb	r2, [r3, #71]
 3059              	.L181:
1073:Drivers/STM32H7xx_HAL_Driver/Src/stm32h7xx_hal_tim_ex.c ****   }
1074:Drivers/STM32H7xx_HAL_Driver/Src/stm32h7xx_hal_tim_ex.c **** 
1075:Drivers/STM32H7xx_HAL_Driver/Src/stm32h7xx_hal_tim_ex.c ****   /* Return function status */
1076:Drivers/STM32H7xx_HAL_Driver/Src/stm32h7xx_hal_tim_ex.c ****   return status;
 3060              		.loc 1 1076 10 is_stmt 1
 3061 012e FB7B     		ldrb	r3, [r7, #15]	@ zero_extendqisi2
1077:Drivers/STM32H7xx_HAL_Driver/Src/stm32h7xx_hal_tim_ex.c **** }
 3062              		.loc 1 1077 1
 3063 0130 1846     		mov	r0, r3
 3064 0132 1037     		adds	r7, r7, #16
 3065              	.LCFI80:
 3066              		.cfi_def_cfa_offset 8
 3067 0134 BD46     		mov	sp, r7
 3068              	.LCFI81:
 3069              		.cfi_def_cfa_register 13
 3070              		@ sp needed
 3071 0136 80BD     		pop	{r7, pc}
 3072              		.cfi_endproc
 3073              	.LFE159:
 3075              		.section	.text.HAL_TIMEx_PWMN_Start,"ax",%progbits
 3076              		.align	1
 3077              		.global	HAL_TIMEx_PWMN_Start
 3078              		.syntax unified
 3079              		.thumb
 3080              		.thumb_func
 3082              	HAL_TIMEx_PWMN_Start:
 3083              	.LFB160:
1078:Drivers/STM32H7xx_HAL_Driver/Src/stm32h7xx_hal_tim_ex.c **** 
1079:Drivers/STM32H7xx_HAL_Driver/Src/stm32h7xx_hal_tim_ex.c **** /**
1080:Drivers/STM32H7xx_HAL_Driver/Src/stm32h7xx_hal_tim_ex.c ****   * @}
1081:Drivers/STM32H7xx_HAL_Driver/Src/stm32h7xx_hal_tim_ex.c ****   */
1082:Drivers/STM32H7xx_HAL_Driver/Src/stm32h7xx_hal_tim_ex.c **** 
1083:Drivers/STM32H7xx_HAL_Driver/Src/stm32h7xx_hal_tim_ex.c **** /** @defgroup TIMEx_Exported_Functions_Group3 Extended Timer Complementary PWM functions
1084:Drivers/STM32H7xx_HAL_Driver/Src/stm32h7xx_hal_tim_ex.c ****   * @brief    Timer Complementary PWM functions
1085:Drivers/STM32H7xx_HAL_Driver/Src/stm32h7xx_hal_tim_ex.c ****   *
1086:Drivers/STM32H7xx_HAL_Driver/Src/stm32h7xx_hal_tim_ex.c **** @verbatim
1087:Drivers/STM32H7xx_HAL_Driver/Src/stm32h7xx_hal_tim_ex.c ****   ==============================================================================
1088:Drivers/STM32H7xx_HAL_Driver/Src/stm32h7xx_hal_tim_ex.c ****                  ##### Timer Complementary PWM functions #####
1089:Drivers/STM32H7xx_HAL_Driver/Src/stm32h7xx_hal_tim_ex.c ****   ==============================================================================
1090:Drivers/STM32H7xx_HAL_Driver/Src/stm32h7xx_hal_tim_ex.c ****   [..]
1091:Drivers/STM32H7xx_HAL_Driver/Src/stm32h7xx_hal_tim_ex.c ****     This section provides functions allowing to:
1092:Drivers/STM32H7xx_HAL_Driver/Src/stm32h7xx_hal_tim_ex.c ****     (+) Start the Complementary PWM.
1093:Drivers/STM32H7xx_HAL_Driver/Src/stm32h7xx_hal_tim_ex.c ****     (+) Stop the Complementary PWM.
1094:Drivers/STM32H7xx_HAL_Driver/Src/stm32h7xx_hal_tim_ex.c ****     (+) Start the Complementary PWM and enable interrupts.
1095:Drivers/STM32H7xx_HAL_Driver/Src/stm32h7xx_hal_tim_ex.c ****     (+) Stop the Complementary PWM and disable interrupts.
1096:Drivers/STM32H7xx_HAL_Driver/Src/stm32h7xx_hal_tim_ex.c ****     (+) Start the Complementary PWM and enable DMA transfers.
1097:Drivers/STM32H7xx_HAL_Driver/Src/stm32h7xx_hal_tim_ex.c ****     (+) Stop the Complementary PWM and disable DMA transfers.
ARM GAS  C:\Users\TGSPOC~1\AppData\Local\Temp\ccBCX0SZ.s 			page 74


1098:Drivers/STM32H7xx_HAL_Driver/Src/stm32h7xx_hal_tim_ex.c **** @endverbatim
1099:Drivers/STM32H7xx_HAL_Driver/Src/stm32h7xx_hal_tim_ex.c ****   * @{
1100:Drivers/STM32H7xx_HAL_Driver/Src/stm32h7xx_hal_tim_ex.c ****   */
1101:Drivers/STM32H7xx_HAL_Driver/Src/stm32h7xx_hal_tim_ex.c **** 
1102:Drivers/STM32H7xx_HAL_Driver/Src/stm32h7xx_hal_tim_ex.c **** /**
1103:Drivers/STM32H7xx_HAL_Driver/Src/stm32h7xx_hal_tim_ex.c ****   * @brief  Starts the PWM signal generation on the complementary output.
1104:Drivers/STM32H7xx_HAL_Driver/Src/stm32h7xx_hal_tim_ex.c ****   * @param  htim TIM handle
1105:Drivers/STM32H7xx_HAL_Driver/Src/stm32h7xx_hal_tim_ex.c ****   * @param  Channel TIM Channel to be enabled
1106:Drivers/STM32H7xx_HAL_Driver/Src/stm32h7xx_hal_tim_ex.c ****   *          This parameter can be one of the following values:
1107:Drivers/STM32H7xx_HAL_Driver/Src/stm32h7xx_hal_tim_ex.c ****   *            @arg TIM_CHANNEL_1: TIM Channel 1 selected
1108:Drivers/STM32H7xx_HAL_Driver/Src/stm32h7xx_hal_tim_ex.c ****   *            @arg TIM_CHANNEL_2: TIM Channel 2 selected
1109:Drivers/STM32H7xx_HAL_Driver/Src/stm32h7xx_hal_tim_ex.c ****   *            @arg TIM_CHANNEL_3: TIM Channel 3 selected
1110:Drivers/STM32H7xx_HAL_Driver/Src/stm32h7xx_hal_tim_ex.c ****   * @retval HAL status
1111:Drivers/STM32H7xx_HAL_Driver/Src/stm32h7xx_hal_tim_ex.c ****   */
1112:Drivers/STM32H7xx_HAL_Driver/Src/stm32h7xx_hal_tim_ex.c **** HAL_StatusTypeDef HAL_TIMEx_PWMN_Start(TIM_HandleTypeDef *htim, uint32_t Channel)
1113:Drivers/STM32H7xx_HAL_Driver/Src/stm32h7xx_hal_tim_ex.c **** {
 3084              		.loc 1 1113 1
 3085              		.cfi_startproc
 3086              		@ args = 0, pretend = 0, frame = 16
 3087              		@ frame_needed = 1, uses_anonymous_args = 0
 3088 0000 80B5     		push	{r7, lr}
 3089              	.LCFI82:
 3090              		.cfi_def_cfa_offset 8
 3091              		.cfi_offset 7, -8
 3092              		.cfi_offset 14, -4
 3093 0002 84B0     		sub	sp, sp, #16
 3094              	.LCFI83:
 3095              		.cfi_def_cfa_offset 24
 3096 0004 00AF     		add	r7, sp, #0
 3097              	.LCFI84:
 3098              		.cfi_def_cfa_register 7
 3099 0006 7860     		str	r0, [r7, #4]
 3100 0008 3960     		str	r1, [r7]
1114:Drivers/STM32H7xx_HAL_Driver/Src/stm32h7xx_hal_tim_ex.c ****   uint32_t tmpsmcr;
1115:Drivers/STM32H7xx_HAL_Driver/Src/stm32h7xx_hal_tim_ex.c **** 
1116:Drivers/STM32H7xx_HAL_Driver/Src/stm32h7xx_hal_tim_ex.c ****   /* Check the parameters */
1117:Drivers/STM32H7xx_HAL_Driver/Src/stm32h7xx_hal_tim_ex.c ****   assert_param(IS_TIM_CCXN_INSTANCE(htim->Instance, Channel));
1118:Drivers/STM32H7xx_HAL_Driver/Src/stm32h7xx_hal_tim_ex.c **** 
1119:Drivers/STM32H7xx_HAL_Driver/Src/stm32h7xx_hal_tim_ex.c ****   /* Check the TIM complementary channel state */
1120:Drivers/STM32H7xx_HAL_Driver/Src/stm32h7xx_hal_tim_ex.c ****   if (TIM_CHANNEL_N_STATE_GET(htim, Channel) != HAL_TIM_CHANNEL_STATE_READY)
 3101              		.loc 1 1120 46
 3102 000a 3B68     		ldr	r3, [r7]
 3103 000c 002B     		cmp	r3, #0
 3104 000e 09D1     		bne	.L191
 3105              		.loc 1 1120 7 discriminator 1
 3106 0010 7B68     		ldr	r3, [r7, #4]
 3107 0012 93F84430 		ldrb	r3, [r3, #68]
 3108 0016 DBB2     		uxtb	r3, r3
 3109              		.loc 1 1120 46 discriminator 1
 3110 0018 012B     		cmp	r3, #1
 3111 001a 14BF     		ite	ne
 3112 001c 0123     		movne	r3, #1
 3113 001e 0023     		moveq	r3, #0
 3114 0020 DBB2     		uxtb	r3, r3
 3115 0022 22E0     		b	.L192
 3116              	.L191:
 3117              		.loc 1 1120 46 is_stmt 0 discriminator 2
ARM GAS  C:\Users\TGSPOC~1\AppData\Local\Temp\ccBCX0SZ.s 			page 75


 3118 0024 3B68     		ldr	r3, [r7]
 3119 0026 042B     		cmp	r3, #4
 3120 0028 09D1     		bne	.L193
 3121              		.loc 1 1120 7 is_stmt 1 discriminator 4
 3122 002a 7B68     		ldr	r3, [r7, #4]
 3123 002c 93F84530 		ldrb	r3, [r3, #69]
 3124 0030 DBB2     		uxtb	r3, r3
 3125              		.loc 1 1120 46 discriminator 4
 3126 0032 012B     		cmp	r3, #1
 3127 0034 14BF     		ite	ne
 3128 0036 0123     		movne	r3, #1
 3129 0038 0023     		moveq	r3, #0
 3130 003a DBB2     		uxtb	r3, r3
 3131 003c 15E0     		b	.L192
 3132              	.L193:
 3133              		.loc 1 1120 46 is_stmt 0 discriminator 5
 3134 003e 3B68     		ldr	r3, [r7]
 3135 0040 082B     		cmp	r3, #8
 3136 0042 09D1     		bne	.L195
 3137              		.loc 1 1120 7 is_stmt 1 discriminator 7
 3138 0044 7B68     		ldr	r3, [r7, #4]
 3139 0046 93F84630 		ldrb	r3, [r3, #70]
 3140 004a DBB2     		uxtb	r3, r3
 3141              		.loc 1 1120 46 discriminator 7
 3142 004c 012B     		cmp	r3, #1
 3143 004e 14BF     		ite	ne
 3144 0050 0123     		movne	r3, #1
 3145 0052 0023     		moveq	r3, #0
 3146 0054 DBB2     		uxtb	r3, r3
 3147 0056 08E0     		b	.L192
 3148              	.L195:
 3149              		.loc 1 1120 7 discriminator 8
 3150 0058 7B68     		ldr	r3, [r7, #4]
 3151 005a 93F84730 		ldrb	r3, [r3, #71]
 3152 005e DBB2     		uxtb	r3, r3
 3153              		.loc 1 1120 46 discriminator 8
 3154 0060 012B     		cmp	r3, #1
 3155 0062 14BF     		ite	ne
 3156 0064 0123     		movne	r3, #1
 3157 0066 0023     		moveq	r3, #0
 3158 0068 DBB2     		uxtb	r3, r3
 3159              	.L192:
 3160              		.loc 1 1120 6 discriminator 12
 3161 006a 002B     		cmp	r3, #0
 3162 006c 01D0     		beq	.L197
1121:Drivers/STM32H7xx_HAL_Driver/Src/stm32h7xx_hal_tim_ex.c ****   {
1122:Drivers/STM32H7xx_HAL_Driver/Src/stm32h7xx_hal_tim_ex.c ****     return HAL_ERROR;
 3163              		.loc 1 1122 12
 3164 006e 0123     		movs	r3, #1
 3165 0070 73E0     		b	.L198
 3166              	.L197:
1123:Drivers/STM32H7xx_HAL_Driver/Src/stm32h7xx_hal_tim_ex.c ****   }
1124:Drivers/STM32H7xx_HAL_Driver/Src/stm32h7xx_hal_tim_ex.c **** 
1125:Drivers/STM32H7xx_HAL_Driver/Src/stm32h7xx_hal_tim_ex.c ****   /* Set the TIM complementary channel state */
1126:Drivers/STM32H7xx_HAL_Driver/Src/stm32h7xx_hal_tim_ex.c ****   TIM_CHANNEL_N_STATE_SET(htim, Channel, HAL_TIM_CHANNEL_STATE_BUSY);
 3167              		.loc 1 1126 3
 3168 0072 3B68     		ldr	r3, [r7]
ARM GAS  C:\Users\TGSPOC~1\AppData\Local\Temp\ccBCX0SZ.s 			page 76


 3169 0074 002B     		cmp	r3, #0
 3170 0076 04D1     		bne	.L199
 3171              		.loc 1 1126 3 is_stmt 0 discriminator 1
 3172 0078 7B68     		ldr	r3, [r7, #4]
 3173 007a 0222     		movs	r2, #2
 3174 007c 83F84420 		strb	r2, [r3, #68]
 3175 0080 13E0     		b	.L200
 3176              	.L199:
 3177              		.loc 1 1126 3 discriminator 2
 3178 0082 3B68     		ldr	r3, [r7]
 3179 0084 042B     		cmp	r3, #4
 3180 0086 04D1     		bne	.L201
 3181              		.loc 1 1126 3 discriminator 3
 3182 0088 7B68     		ldr	r3, [r7, #4]
 3183 008a 0222     		movs	r2, #2
 3184 008c 83F84520 		strb	r2, [r3, #69]
 3185 0090 0BE0     		b	.L200
 3186              	.L201:
 3187              		.loc 1 1126 3 discriminator 4
 3188 0092 3B68     		ldr	r3, [r7]
 3189 0094 082B     		cmp	r3, #8
 3190 0096 04D1     		bne	.L203
 3191              		.loc 1 1126 3 discriminator 6
 3192 0098 7B68     		ldr	r3, [r7, #4]
 3193 009a 0222     		movs	r2, #2
 3194 009c 83F84620 		strb	r2, [r3, #70]
 3195 00a0 03E0     		b	.L200
 3196              	.L203:
 3197              		.loc 1 1126 3 discriminator 7
 3198 00a2 7B68     		ldr	r3, [r7, #4]
 3199 00a4 0222     		movs	r2, #2
 3200 00a6 83F84720 		strb	r2, [r3, #71]
 3201              	.L200:
1127:Drivers/STM32H7xx_HAL_Driver/Src/stm32h7xx_hal_tim_ex.c **** 
1128:Drivers/STM32H7xx_HAL_Driver/Src/stm32h7xx_hal_tim_ex.c ****   /* Enable the complementary PWM output  */
1129:Drivers/STM32H7xx_HAL_Driver/Src/stm32h7xx_hal_tim_ex.c ****   TIM_CCxNChannelCmd(htim->Instance, Channel, TIM_CCxN_ENABLE);
 3202              		.loc 1 1129 3 is_stmt 1
 3203 00aa 7B68     		ldr	r3, [r7, #4]
 3204 00ac 1B68     		ldr	r3, [r3]
 3205 00ae 0422     		movs	r2, #4
 3206 00b0 3968     		ldr	r1, [r7]
 3207 00b2 1846     		mov	r0, r3
 3208 00b4 FFF7FEFF 		bl	TIM_CCxNChannelCmd
1130:Drivers/STM32H7xx_HAL_Driver/Src/stm32h7xx_hal_tim_ex.c **** 
1131:Drivers/STM32H7xx_HAL_Driver/Src/stm32h7xx_hal_tim_ex.c ****   /* Enable the Main Output */
1132:Drivers/STM32H7xx_HAL_Driver/Src/stm32h7xx_hal_tim_ex.c ****   __HAL_TIM_MOE_ENABLE(htim);
 3209              		.loc 1 1132 3
 3210 00b8 7B68     		ldr	r3, [r7, #4]
 3211 00ba 1B68     		ldr	r3, [r3]
 3212 00bc 5A6C     		ldr	r2, [r3, #68]
 3213 00be 7B68     		ldr	r3, [r7, #4]
 3214 00c0 1B68     		ldr	r3, [r3]
 3215 00c2 42F40042 		orr	r2, r2, #32768
 3216 00c6 5A64     		str	r2, [r3, #68]
1133:Drivers/STM32H7xx_HAL_Driver/Src/stm32h7xx_hal_tim_ex.c **** 
1134:Drivers/STM32H7xx_HAL_Driver/Src/stm32h7xx_hal_tim_ex.c ****   /* Enable the Peripheral, except in trigger mode where enable is automatically done with trigger 
1135:Drivers/STM32H7xx_HAL_Driver/Src/stm32h7xx_hal_tim_ex.c ****   if (IS_TIM_SLAVE_INSTANCE(htim->Instance))
ARM GAS  C:\Users\TGSPOC~1\AppData\Local\Temp\ccBCX0SZ.s 			page 77


 3217              		.loc 1 1135 7
 3218 00c8 7B68     		ldr	r3, [r7, #4]
 3219 00ca 1B68     		ldr	r3, [r3]
 3220              		.loc 1 1135 6
 3221 00cc 254A     		ldr	r2, .L210
 3222 00ce 9342     		cmp	r3, r2
 3223 00d0 22D0     		beq	.L205
 3224              		.loc 1 1135 7 discriminator 1
 3225 00d2 7B68     		ldr	r3, [r7, #4]
 3226 00d4 1B68     		ldr	r3, [r3]
 3227 00d6 B3F1804F 		cmp	r3, #1073741824
 3228 00da 1DD0     		beq	.L205
 3229              		.loc 1 1135 7 is_stmt 0 discriminator 2
 3230 00dc 7B68     		ldr	r3, [r7, #4]
 3231 00de 1B68     		ldr	r3, [r3]
 3232 00e0 214A     		ldr	r2, .L210+4
 3233 00e2 9342     		cmp	r3, r2
 3234 00e4 18D0     		beq	.L205
 3235              		.loc 1 1135 7 discriminator 3
 3236 00e6 7B68     		ldr	r3, [r7, #4]
 3237 00e8 1B68     		ldr	r3, [r3]
 3238 00ea 204A     		ldr	r2, .L210+8
 3239 00ec 9342     		cmp	r3, r2
 3240 00ee 13D0     		beq	.L205
 3241              		.loc 1 1135 7 discriminator 4
 3242 00f0 7B68     		ldr	r3, [r7, #4]
 3243 00f2 1B68     		ldr	r3, [r3]
 3244 00f4 1E4A     		ldr	r2, .L210+12
 3245 00f6 9342     		cmp	r3, r2
 3246 00f8 0ED0     		beq	.L205
 3247              		.loc 1 1135 7 discriminator 5
 3248 00fa 7B68     		ldr	r3, [r7, #4]
 3249 00fc 1B68     		ldr	r3, [r3]
 3250 00fe 1D4A     		ldr	r2, .L210+16
 3251 0100 9342     		cmp	r3, r2
 3252 0102 09D0     		beq	.L205
 3253              		.loc 1 1135 7 discriminator 6
 3254 0104 7B68     		ldr	r3, [r7, #4]
 3255 0106 1B68     		ldr	r3, [r3]
 3256 0108 1B4A     		ldr	r2, .L210+20
 3257 010a 9342     		cmp	r3, r2
 3258 010c 04D0     		beq	.L205
 3259              		.loc 1 1135 7 discriminator 7
 3260 010e 7B68     		ldr	r3, [r7, #4]
 3261 0110 1B68     		ldr	r3, [r3]
 3262 0112 1A4A     		ldr	r2, .L210+24
 3263 0114 9342     		cmp	r3, r2
 3264 0116 15D1     		bne	.L206
 3265              	.L205:
1136:Drivers/STM32H7xx_HAL_Driver/Src/stm32h7xx_hal_tim_ex.c ****   {
1137:Drivers/STM32H7xx_HAL_Driver/Src/stm32h7xx_hal_tim_ex.c ****     tmpsmcr = htim->Instance->SMCR & TIM_SMCR_SMS;
 3266              		.loc 1 1137 19 is_stmt 1
 3267 0118 7B68     		ldr	r3, [r7, #4]
 3268 011a 1B68     		ldr	r3, [r3]
 3269              		.loc 1 1137 29
 3270 011c 9A68     		ldr	r2, [r3, #8]
 3271              		.loc 1 1137 13
ARM GAS  C:\Users\TGSPOC~1\AppData\Local\Temp\ccBCX0SZ.s 			page 78


 3272 011e 184B     		ldr	r3, .L210+28
 3273 0120 1340     		ands	r3, r3, r2
 3274 0122 FB60     		str	r3, [r7, #12]
1138:Drivers/STM32H7xx_HAL_Driver/Src/stm32h7xx_hal_tim_ex.c ****     if (!IS_TIM_SLAVEMODE_TRIGGER_ENABLED(tmpsmcr))
 3275              		.loc 1 1138 8
 3276 0124 FB68     		ldr	r3, [r7, #12]
 3277 0126 062B     		cmp	r3, #6
 3278 0128 15D0     		beq	.L209
 3279              		.loc 1 1138 9 discriminator 1
 3280 012a FB68     		ldr	r3, [r7, #12]
 3281 012c B3F5803F 		cmp	r3, #65536
 3282 0130 11D0     		beq	.L209
1139:Drivers/STM32H7xx_HAL_Driver/Src/stm32h7xx_hal_tim_ex.c ****     {
1140:Drivers/STM32H7xx_HAL_Driver/Src/stm32h7xx_hal_tim_ex.c ****       __HAL_TIM_ENABLE(htim);
 3283              		.loc 1 1140 7
 3284 0132 7B68     		ldr	r3, [r7, #4]
 3285 0134 1B68     		ldr	r3, [r3]
 3286 0136 1A68     		ldr	r2, [r3]
 3287 0138 7B68     		ldr	r3, [r7, #4]
 3288 013a 1B68     		ldr	r3, [r3]
 3289 013c 42F00102 		orr	r2, r2, #1
 3290 0140 1A60     		str	r2, [r3]
1138:Drivers/STM32H7xx_HAL_Driver/Src/stm32h7xx_hal_tim_ex.c ****     if (!IS_TIM_SLAVEMODE_TRIGGER_ENABLED(tmpsmcr))
 3291              		.loc 1 1138 8
 3292 0142 08E0     		b	.L209
 3293              	.L206:
1141:Drivers/STM32H7xx_HAL_Driver/Src/stm32h7xx_hal_tim_ex.c ****     }
1142:Drivers/STM32H7xx_HAL_Driver/Src/stm32h7xx_hal_tim_ex.c ****   }
1143:Drivers/STM32H7xx_HAL_Driver/Src/stm32h7xx_hal_tim_ex.c ****   else
1144:Drivers/STM32H7xx_HAL_Driver/Src/stm32h7xx_hal_tim_ex.c ****   {
1145:Drivers/STM32H7xx_HAL_Driver/Src/stm32h7xx_hal_tim_ex.c ****     __HAL_TIM_ENABLE(htim);
 3294              		.loc 1 1145 5
 3295 0144 7B68     		ldr	r3, [r7, #4]
 3296 0146 1B68     		ldr	r3, [r3]
 3297 0148 1A68     		ldr	r2, [r3]
 3298 014a 7B68     		ldr	r3, [r7, #4]
 3299 014c 1B68     		ldr	r3, [r3]
 3300 014e 42F00102 		orr	r2, r2, #1
 3301 0152 1A60     		str	r2, [r3]
 3302 0154 00E0     		b	.L208
 3303              	.L209:
1138:Drivers/STM32H7xx_HAL_Driver/Src/stm32h7xx_hal_tim_ex.c ****     {
 3304              		.loc 1 1138 8
 3305 0156 00BF     		nop
 3306              	.L208:
1146:Drivers/STM32H7xx_HAL_Driver/Src/stm32h7xx_hal_tim_ex.c ****   }
1147:Drivers/STM32H7xx_HAL_Driver/Src/stm32h7xx_hal_tim_ex.c **** 
1148:Drivers/STM32H7xx_HAL_Driver/Src/stm32h7xx_hal_tim_ex.c ****   /* Return function status */
1149:Drivers/STM32H7xx_HAL_Driver/Src/stm32h7xx_hal_tim_ex.c ****   return HAL_OK;
 3307              		.loc 1 1149 10
 3308 0158 0023     		movs	r3, #0
 3309              	.L198:
1150:Drivers/STM32H7xx_HAL_Driver/Src/stm32h7xx_hal_tim_ex.c **** }
 3310              		.loc 1 1150 1
 3311 015a 1846     		mov	r0, r3
 3312 015c 1037     		adds	r7, r7, #16
 3313              	.LCFI85:
ARM GAS  C:\Users\TGSPOC~1\AppData\Local\Temp\ccBCX0SZ.s 			page 79


 3314              		.cfi_def_cfa_offset 8
 3315 015e BD46     		mov	sp, r7
 3316              	.LCFI86:
 3317              		.cfi_def_cfa_register 13
 3318              		@ sp needed
 3319 0160 80BD     		pop	{r7, pc}
 3320              	.L211:
 3321 0162 00BF     		.align	2
 3322              	.L210:
 3323 0164 00000140 		.word	1073807360
 3324 0168 00040040 		.word	1073742848
 3325 016c 00080040 		.word	1073743872
 3326 0170 000C0040 		.word	1073744896
 3327 0174 00040140 		.word	1073808384
 3328 0178 00180040 		.word	1073747968
 3329 017c 00400140 		.word	1073823744
 3330 0180 07000100 		.word	65543
 3331              		.cfi_endproc
 3332              	.LFE160:
 3334              		.section	.text.HAL_TIMEx_PWMN_Stop,"ax",%progbits
 3335              		.align	1
 3336              		.global	HAL_TIMEx_PWMN_Stop
 3337              		.syntax unified
 3338              		.thumb
 3339              		.thumb_func
 3341              	HAL_TIMEx_PWMN_Stop:
 3342              	.LFB161:
1151:Drivers/STM32H7xx_HAL_Driver/Src/stm32h7xx_hal_tim_ex.c **** 
1152:Drivers/STM32H7xx_HAL_Driver/Src/stm32h7xx_hal_tim_ex.c **** /**
1153:Drivers/STM32H7xx_HAL_Driver/Src/stm32h7xx_hal_tim_ex.c ****   * @brief  Stops the PWM signal generation on the complementary output.
1154:Drivers/STM32H7xx_HAL_Driver/Src/stm32h7xx_hal_tim_ex.c ****   * @param  htim TIM handle
1155:Drivers/STM32H7xx_HAL_Driver/Src/stm32h7xx_hal_tim_ex.c ****   * @param  Channel TIM Channel to be disabled
1156:Drivers/STM32H7xx_HAL_Driver/Src/stm32h7xx_hal_tim_ex.c ****   *          This parameter can be one of the following values:
1157:Drivers/STM32H7xx_HAL_Driver/Src/stm32h7xx_hal_tim_ex.c ****   *            @arg TIM_CHANNEL_1: TIM Channel 1 selected
1158:Drivers/STM32H7xx_HAL_Driver/Src/stm32h7xx_hal_tim_ex.c ****   *            @arg TIM_CHANNEL_2: TIM Channel 2 selected
1159:Drivers/STM32H7xx_HAL_Driver/Src/stm32h7xx_hal_tim_ex.c ****   *            @arg TIM_CHANNEL_3: TIM Channel 3 selected
1160:Drivers/STM32H7xx_HAL_Driver/Src/stm32h7xx_hal_tim_ex.c ****   * @retval HAL status
1161:Drivers/STM32H7xx_HAL_Driver/Src/stm32h7xx_hal_tim_ex.c ****   */
1162:Drivers/STM32H7xx_HAL_Driver/Src/stm32h7xx_hal_tim_ex.c **** HAL_StatusTypeDef HAL_TIMEx_PWMN_Stop(TIM_HandleTypeDef *htim, uint32_t Channel)
1163:Drivers/STM32H7xx_HAL_Driver/Src/stm32h7xx_hal_tim_ex.c **** {
 3343              		.loc 1 1163 1
 3344              		.cfi_startproc
 3345              		@ args = 0, pretend = 0, frame = 8
 3346              		@ frame_needed = 1, uses_anonymous_args = 0
 3347 0000 80B5     		push	{r7, lr}
 3348              	.LCFI87:
 3349              		.cfi_def_cfa_offset 8
 3350              		.cfi_offset 7, -8
 3351              		.cfi_offset 14, -4
 3352 0002 82B0     		sub	sp, sp, #8
 3353              	.LCFI88:
 3354              		.cfi_def_cfa_offset 16
 3355 0004 00AF     		add	r7, sp, #0
 3356              	.LCFI89:
 3357              		.cfi_def_cfa_register 7
 3358 0006 7860     		str	r0, [r7, #4]
 3359 0008 3960     		str	r1, [r7]
ARM GAS  C:\Users\TGSPOC~1\AppData\Local\Temp\ccBCX0SZ.s 			page 80


1164:Drivers/STM32H7xx_HAL_Driver/Src/stm32h7xx_hal_tim_ex.c ****   /* Check the parameters */
1165:Drivers/STM32H7xx_HAL_Driver/Src/stm32h7xx_hal_tim_ex.c ****   assert_param(IS_TIM_CCXN_INSTANCE(htim->Instance, Channel));
1166:Drivers/STM32H7xx_HAL_Driver/Src/stm32h7xx_hal_tim_ex.c **** 
1167:Drivers/STM32H7xx_HAL_Driver/Src/stm32h7xx_hal_tim_ex.c ****   /* Disable the complementary PWM output  */
1168:Drivers/STM32H7xx_HAL_Driver/Src/stm32h7xx_hal_tim_ex.c ****   TIM_CCxNChannelCmd(htim->Instance, Channel, TIM_CCxN_DISABLE);
 3360              		.loc 1 1168 3
 3361 000a 7B68     		ldr	r3, [r7, #4]
 3362 000c 1B68     		ldr	r3, [r3]
 3363 000e 0022     		movs	r2, #0
 3364 0010 3968     		ldr	r1, [r7]
 3365 0012 1846     		mov	r0, r3
 3366 0014 FFF7FEFF 		bl	TIM_CCxNChannelCmd
1169:Drivers/STM32H7xx_HAL_Driver/Src/stm32h7xx_hal_tim_ex.c **** 
1170:Drivers/STM32H7xx_HAL_Driver/Src/stm32h7xx_hal_tim_ex.c ****   /* Disable the Main Output */
1171:Drivers/STM32H7xx_HAL_Driver/Src/stm32h7xx_hal_tim_ex.c ****   __HAL_TIM_MOE_DISABLE(htim);
 3367              		.loc 1 1171 3
 3368 0018 7B68     		ldr	r3, [r7, #4]
 3369 001a 1B68     		ldr	r3, [r3]
 3370 001c 1A6A     		ldr	r2, [r3, #32]
 3371 001e 41F21113 		movw	r3, #4369
 3372 0022 1340     		ands	r3, r3, r2
 3373 0024 002B     		cmp	r3, #0
 3374 0026 0FD1     		bne	.L213
 3375              		.loc 1 1171 3 is_stmt 0 discriminator 1
 3376 0028 7B68     		ldr	r3, [r7, #4]
 3377 002a 1B68     		ldr	r3, [r3]
 3378 002c 1A6A     		ldr	r2, [r3, #32]
 3379 002e 40F24443 		movw	r3, #1092
 3380 0032 1340     		ands	r3, r3, r2
 3381 0034 002B     		cmp	r3, #0
 3382 0036 07D1     		bne	.L213
 3383              		.loc 1 1171 3 discriminator 2
 3384 0038 7B68     		ldr	r3, [r7, #4]
 3385 003a 1B68     		ldr	r3, [r3]
 3386 003c 5A6C     		ldr	r2, [r3, #68]
 3387 003e 7B68     		ldr	r3, [r7, #4]
 3388 0040 1B68     		ldr	r3, [r3]
 3389 0042 22F40042 		bic	r2, r2, #32768
 3390 0046 5A64     		str	r2, [r3, #68]
 3391              	.L213:
1172:Drivers/STM32H7xx_HAL_Driver/Src/stm32h7xx_hal_tim_ex.c **** 
1173:Drivers/STM32H7xx_HAL_Driver/Src/stm32h7xx_hal_tim_ex.c ****   /* Disable the Peripheral */
1174:Drivers/STM32H7xx_HAL_Driver/Src/stm32h7xx_hal_tim_ex.c ****   __HAL_TIM_DISABLE(htim);
 3392              		.loc 1 1174 3 is_stmt 1
 3393 0048 7B68     		ldr	r3, [r7, #4]
 3394 004a 1B68     		ldr	r3, [r3]
 3395 004c 1A6A     		ldr	r2, [r3, #32]
 3396 004e 41F21113 		movw	r3, #4369
 3397 0052 1340     		ands	r3, r3, r2
 3398 0054 002B     		cmp	r3, #0
 3399 0056 0FD1     		bne	.L214
 3400              		.loc 1 1174 3 is_stmt 0 discriminator 1
 3401 0058 7B68     		ldr	r3, [r7, #4]
 3402 005a 1B68     		ldr	r3, [r3]
 3403 005c 1A6A     		ldr	r2, [r3, #32]
 3404 005e 40F24443 		movw	r3, #1092
 3405 0062 1340     		ands	r3, r3, r2
ARM GAS  C:\Users\TGSPOC~1\AppData\Local\Temp\ccBCX0SZ.s 			page 81


 3406 0064 002B     		cmp	r3, #0
 3407 0066 07D1     		bne	.L214
 3408              		.loc 1 1174 3 discriminator 2
 3409 0068 7B68     		ldr	r3, [r7, #4]
 3410 006a 1B68     		ldr	r3, [r3]
 3411 006c 1A68     		ldr	r2, [r3]
 3412 006e 7B68     		ldr	r3, [r7, #4]
 3413 0070 1B68     		ldr	r3, [r3]
 3414 0072 22F00102 		bic	r2, r2, #1
 3415 0076 1A60     		str	r2, [r3]
 3416              	.L214:
1175:Drivers/STM32H7xx_HAL_Driver/Src/stm32h7xx_hal_tim_ex.c **** 
1176:Drivers/STM32H7xx_HAL_Driver/Src/stm32h7xx_hal_tim_ex.c ****   /* Set the TIM complementary channel state */
1177:Drivers/STM32H7xx_HAL_Driver/Src/stm32h7xx_hal_tim_ex.c ****   TIM_CHANNEL_N_STATE_SET(htim, Channel, HAL_TIM_CHANNEL_STATE_READY);
 3417              		.loc 1 1177 3 is_stmt 1
 3418 0078 3B68     		ldr	r3, [r7]
 3419 007a 002B     		cmp	r3, #0
 3420 007c 04D1     		bne	.L215
 3421              		.loc 1 1177 3 is_stmt 0 discriminator 1
 3422 007e 7B68     		ldr	r3, [r7, #4]
 3423 0080 0122     		movs	r2, #1
 3424 0082 83F84420 		strb	r2, [r3, #68]
 3425 0086 13E0     		b	.L216
 3426              	.L215:
 3427              		.loc 1 1177 3 discriminator 2
 3428 0088 3B68     		ldr	r3, [r7]
 3429 008a 042B     		cmp	r3, #4
 3430 008c 04D1     		bne	.L217
 3431              		.loc 1 1177 3 discriminator 3
 3432 008e 7B68     		ldr	r3, [r7, #4]
 3433 0090 0122     		movs	r2, #1
 3434 0092 83F84520 		strb	r2, [r3, #69]
 3435 0096 0BE0     		b	.L216
 3436              	.L217:
 3437              		.loc 1 1177 3 discriminator 4
 3438 0098 3B68     		ldr	r3, [r7]
 3439 009a 082B     		cmp	r3, #8
 3440 009c 04D1     		bne	.L219
