ARM GAS  C:\Users\TGSPOC~1\AppData\Local\Temp\cchOEqPT.s 			page 1


   1              		.cpu cortex-m7
   2              		.arch armv7e-m
   3              		.fpu fpv5-d16
   4              		.eabi_attribute 28, 1
   5              		.eabi_attribute 20, 1
   6              		.eabi_attribute 21, 1
   7              		.eabi_attribute 23, 3
   8              		.eabi_attribute 24, 1
   9              		.eabi_attribute 25, 1
  10              		.eabi_attribute 26, 1
  11              		.eabi_attribute 30, 6
  12              		.eabi_attribute 34, 1
  13              		.eabi_attribute 18, 4
  14              		.file	"stm32h7xx_hal_tim.c"
  15              		.text
  16              	.Ltext0:
  17              		.cfi_sections	.debug_frame
  18              		.file 1 "Drivers/STM32H7xx_HAL_Driver/Src/stm32h7xx_hal_tim.c"
  19              		.section	.text.HAL_TIM_Base_Init,"ax",%progbits
  20              		.align	1
  21              		.global	HAL_TIM_Base_Init
  22              		.syntax unified
  23              		.thumb
  24              		.thumb_func
  26              	HAL_TIM_Base_Init:
  27              	.LFB144:
   1:Drivers/STM32H7xx_HAL_Driver/Src/stm32h7xx_hal_tim.c **** /**
   2:Drivers/STM32H7xx_HAL_Driver/Src/stm32h7xx_hal_tim.c ****   ******************************************************************************
   3:Drivers/STM32H7xx_HAL_Driver/Src/stm32h7xx_hal_tim.c ****   * @file    stm32h7xx_hal_tim.c
   4:Drivers/STM32H7xx_HAL_Driver/Src/stm32h7xx_hal_tim.c ****   * @author  MCD Application Team
   5:Drivers/STM32H7xx_HAL_Driver/Src/stm32h7xx_hal_tim.c ****   * @brief   TIM HAL module driver.
   6:Drivers/STM32H7xx_HAL_Driver/Src/stm32h7xx_hal_tim.c ****   *          This file provides firmware functions to manage the following
   7:Drivers/STM32H7xx_HAL_Driver/Src/stm32h7xx_hal_tim.c ****   *          functionalities of the Timer (TIM) peripheral:
   8:Drivers/STM32H7xx_HAL_Driver/Src/stm32h7xx_hal_tim.c ****   *           + TIM Time Base Initialization
   9:Drivers/STM32H7xx_HAL_Driver/Src/stm32h7xx_hal_tim.c ****   *           + TIM Time Base Start
  10:Drivers/STM32H7xx_HAL_Driver/Src/stm32h7xx_hal_tim.c ****   *           + TIM Time Base Start Interruption
  11:Drivers/STM32H7xx_HAL_Driver/Src/stm32h7xx_hal_tim.c ****   *           + TIM Time Base Start DMA
  12:Drivers/STM32H7xx_HAL_Driver/Src/stm32h7xx_hal_tim.c ****   *           + TIM Output Compare/PWM Initialization
  13:Drivers/STM32H7xx_HAL_Driver/Src/stm32h7xx_hal_tim.c ****   *           + TIM Output Compare/PWM Channel Configuration
  14:Drivers/STM32H7xx_HAL_Driver/Src/stm32h7xx_hal_tim.c ****   *           + TIM Output Compare/PWM  Start
  15:Drivers/STM32H7xx_HAL_Driver/Src/stm32h7xx_hal_tim.c ****   *           + TIM Output Compare/PWM  Start Interruption
  16:Drivers/STM32H7xx_HAL_Driver/Src/stm32h7xx_hal_tim.c ****   *           + TIM Output Compare/PWM Start DMA
  17:Drivers/STM32H7xx_HAL_Driver/Src/stm32h7xx_hal_tim.c ****   *           + TIM Input Capture Initialization
  18:Drivers/STM32H7xx_HAL_Driver/Src/stm32h7xx_hal_tim.c ****   *           + TIM Input Capture Channel Configuration
  19:Drivers/STM32H7xx_HAL_Driver/Src/stm32h7xx_hal_tim.c ****   *           + TIM Input Capture Start
  20:Drivers/STM32H7xx_HAL_Driver/Src/stm32h7xx_hal_tim.c ****   *           + TIM Input Capture Start Interruption
  21:Drivers/STM32H7xx_HAL_Driver/Src/stm32h7xx_hal_tim.c ****   *           + TIM Input Capture Start DMA
  22:Drivers/STM32H7xx_HAL_Driver/Src/stm32h7xx_hal_tim.c ****   *           + TIM One Pulse Initialization
  23:Drivers/STM32H7xx_HAL_Driver/Src/stm32h7xx_hal_tim.c ****   *           + TIM One Pulse Channel Configuration
  24:Drivers/STM32H7xx_HAL_Driver/Src/stm32h7xx_hal_tim.c ****   *           + TIM One Pulse Start
  25:Drivers/STM32H7xx_HAL_Driver/Src/stm32h7xx_hal_tim.c ****   *           + TIM Encoder Interface Initialization
  26:Drivers/STM32H7xx_HAL_Driver/Src/stm32h7xx_hal_tim.c ****   *           + TIM Encoder Interface Start
  27:Drivers/STM32H7xx_HAL_Driver/Src/stm32h7xx_hal_tim.c ****   *           + TIM Encoder Interface Start Interruption
  28:Drivers/STM32H7xx_HAL_Driver/Src/stm32h7xx_hal_tim.c ****   *           + TIM Encoder Interface Start DMA
  29:Drivers/STM32H7xx_HAL_Driver/Src/stm32h7xx_hal_tim.c ****   *           + Commutation Event configuration with Interruption and DMA
  30:Drivers/STM32H7xx_HAL_Driver/Src/stm32h7xx_hal_tim.c ****   *           + TIM OCRef clear configuration
  31:Drivers/STM32H7xx_HAL_Driver/Src/stm32h7xx_hal_tim.c ****   *           + TIM External Clock configuration
ARM GAS  C:\Users\TGSPOC~1\AppData\Local\Temp\cchOEqPT.s 			page 2


  32:Drivers/STM32H7xx_HAL_Driver/Src/stm32h7xx_hal_tim.c ****   ******************************************************************************
  33:Drivers/STM32H7xx_HAL_Driver/Src/stm32h7xx_hal_tim.c ****   * @attention
  34:Drivers/STM32H7xx_HAL_Driver/Src/stm32h7xx_hal_tim.c ****   *
  35:Drivers/STM32H7xx_HAL_Driver/Src/stm32h7xx_hal_tim.c ****   * Copyright (c) 2017 STMicroelectronics.
  36:Drivers/STM32H7xx_HAL_Driver/Src/stm32h7xx_hal_tim.c ****   * All rights reserved.
  37:Drivers/STM32H7xx_HAL_Driver/Src/stm32h7xx_hal_tim.c ****   *
  38:Drivers/STM32H7xx_HAL_Driver/Src/stm32h7xx_hal_tim.c ****   * This software is licensed under terms that can be found in the LICENSE file
  39:Drivers/STM32H7xx_HAL_Driver/Src/stm32h7xx_hal_tim.c ****   * in the root directory of this software component.
  40:Drivers/STM32H7xx_HAL_Driver/Src/stm32h7xx_hal_tim.c ****   * If no LICENSE file comes with this software, it is provided AS-IS.
  41:Drivers/STM32H7xx_HAL_Driver/Src/stm32h7xx_hal_tim.c ****   *
  42:Drivers/STM32H7xx_HAL_Driver/Src/stm32h7xx_hal_tim.c ****   ******************************************************************************
  43:Drivers/STM32H7xx_HAL_Driver/Src/stm32h7xx_hal_tim.c ****   @verbatim
  44:Drivers/STM32H7xx_HAL_Driver/Src/stm32h7xx_hal_tim.c ****   ==============================================================================
  45:Drivers/STM32H7xx_HAL_Driver/Src/stm32h7xx_hal_tim.c ****                       ##### TIMER Generic features #####
  46:Drivers/STM32H7xx_HAL_Driver/Src/stm32h7xx_hal_tim.c ****   ==============================================================================
  47:Drivers/STM32H7xx_HAL_Driver/Src/stm32h7xx_hal_tim.c ****   [..] The Timer features include:
  48:Drivers/STM32H7xx_HAL_Driver/Src/stm32h7xx_hal_tim.c ****        (#) 16-bit up, down, up/down auto-reload counter.
  49:Drivers/STM32H7xx_HAL_Driver/Src/stm32h7xx_hal_tim.c ****        (#) 16-bit programmable prescaler allowing dividing (also on the fly) the
  50:Drivers/STM32H7xx_HAL_Driver/Src/stm32h7xx_hal_tim.c ****            counter clock frequency either by any factor between 1 and 65536.
  51:Drivers/STM32H7xx_HAL_Driver/Src/stm32h7xx_hal_tim.c ****        (#) Up to 4 independent channels for:
  52:Drivers/STM32H7xx_HAL_Driver/Src/stm32h7xx_hal_tim.c ****            (++) Input Capture
  53:Drivers/STM32H7xx_HAL_Driver/Src/stm32h7xx_hal_tim.c ****            (++) Output Compare
  54:Drivers/STM32H7xx_HAL_Driver/Src/stm32h7xx_hal_tim.c ****            (++) PWM generation (Edge and Center-aligned Mode)
  55:Drivers/STM32H7xx_HAL_Driver/Src/stm32h7xx_hal_tim.c ****            (++) One-pulse mode output
  56:Drivers/STM32H7xx_HAL_Driver/Src/stm32h7xx_hal_tim.c ****        (#) Synchronization circuit to control the timer with external signals and to interconnect
  57:Drivers/STM32H7xx_HAL_Driver/Src/stm32h7xx_hal_tim.c ****             several timers together.
  58:Drivers/STM32H7xx_HAL_Driver/Src/stm32h7xx_hal_tim.c ****        (#) Supports incremental encoder for positioning purposes
  59:Drivers/STM32H7xx_HAL_Driver/Src/stm32h7xx_hal_tim.c **** 
  60:Drivers/STM32H7xx_HAL_Driver/Src/stm32h7xx_hal_tim.c ****             ##### How to use this driver #####
  61:Drivers/STM32H7xx_HAL_Driver/Src/stm32h7xx_hal_tim.c ****   ==============================================================================
  62:Drivers/STM32H7xx_HAL_Driver/Src/stm32h7xx_hal_tim.c ****     [..]
  63:Drivers/STM32H7xx_HAL_Driver/Src/stm32h7xx_hal_tim.c ****      (#) Initialize the TIM low level resources by implementing the following functions
  64:Drivers/STM32H7xx_HAL_Driver/Src/stm32h7xx_hal_tim.c ****          depending on the selected feature:
  65:Drivers/STM32H7xx_HAL_Driver/Src/stm32h7xx_hal_tim.c ****            (++) Time Base : HAL_TIM_Base_MspInit()
  66:Drivers/STM32H7xx_HAL_Driver/Src/stm32h7xx_hal_tim.c ****            (++) Input Capture : HAL_TIM_IC_MspInit()
  67:Drivers/STM32H7xx_HAL_Driver/Src/stm32h7xx_hal_tim.c ****            (++) Output Compare : HAL_TIM_OC_MspInit()
  68:Drivers/STM32H7xx_HAL_Driver/Src/stm32h7xx_hal_tim.c ****            (++) PWM generation : HAL_TIM_PWM_MspInit()
  69:Drivers/STM32H7xx_HAL_Driver/Src/stm32h7xx_hal_tim.c ****            (++) One-pulse mode output : HAL_TIM_OnePulse_MspInit()
  70:Drivers/STM32H7xx_HAL_Driver/Src/stm32h7xx_hal_tim.c ****            (++) Encoder mode output : HAL_TIM_Encoder_MspInit()
  71:Drivers/STM32H7xx_HAL_Driver/Src/stm32h7xx_hal_tim.c **** 
  72:Drivers/STM32H7xx_HAL_Driver/Src/stm32h7xx_hal_tim.c ****      (#) Initialize the TIM low level resources :
  73:Drivers/STM32H7xx_HAL_Driver/Src/stm32h7xx_hal_tim.c ****         (##) Enable the TIM interface clock using __HAL_RCC_TIMx_CLK_ENABLE();
  74:Drivers/STM32H7xx_HAL_Driver/Src/stm32h7xx_hal_tim.c ****         (##) TIM pins configuration
  75:Drivers/STM32H7xx_HAL_Driver/Src/stm32h7xx_hal_tim.c ****             (+++) Enable the clock for the TIM GPIOs using the following function:
  76:Drivers/STM32H7xx_HAL_Driver/Src/stm32h7xx_hal_tim.c ****              __HAL_RCC_GPIOx_CLK_ENABLE();
  77:Drivers/STM32H7xx_HAL_Driver/Src/stm32h7xx_hal_tim.c ****             (+++) Configure these TIM pins in Alternate function mode using HAL_GPIO_Init();
  78:Drivers/STM32H7xx_HAL_Driver/Src/stm32h7xx_hal_tim.c **** 
  79:Drivers/STM32H7xx_HAL_Driver/Src/stm32h7xx_hal_tim.c ****      (#) The external Clock can be configured, if needed (the default clock is the
  80:Drivers/STM32H7xx_HAL_Driver/Src/stm32h7xx_hal_tim.c ****          internal clock from the APBx), using the following function:
  81:Drivers/STM32H7xx_HAL_Driver/Src/stm32h7xx_hal_tim.c ****          HAL_TIM_ConfigClockSource, the clock configuration should be done before
  82:Drivers/STM32H7xx_HAL_Driver/Src/stm32h7xx_hal_tim.c ****          any start function.
  83:Drivers/STM32H7xx_HAL_Driver/Src/stm32h7xx_hal_tim.c **** 
  84:Drivers/STM32H7xx_HAL_Driver/Src/stm32h7xx_hal_tim.c ****      (#) Configure the TIM in the desired functioning mode using one of the
  85:Drivers/STM32H7xx_HAL_Driver/Src/stm32h7xx_hal_tim.c ****        Initialization function of this driver:
  86:Drivers/STM32H7xx_HAL_Driver/Src/stm32h7xx_hal_tim.c ****        (++) HAL_TIM_Base_Init: to use the Timer to generate a simple time base
  87:Drivers/STM32H7xx_HAL_Driver/Src/stm32h7xx_hal_tim.c ****        (++) HAL_TIM_OC_Init and HAL_TIM_OC_ConfigChannel: to use the Timer to generate an
  88:Drivers/STM32H7xx_HAL_Driver/Src/stm32h7xx_hal_tim.c ****             Output Compare signal.
ARM GAS  C:\Users\TGSPOC~1\AppData\Local\Temp\cchOEqPT.s 			page 3


  89:Drivers/STM32H7xx_HAL_Driver/Src/stm32h7xx_hal_tim.c ****        (++) HAL_TIM_PWM_Init and HAL_TIM_PWM_ConfigChannel: to use the Timer to generate a
  90:Drivers/STM32H7xx_HAL_Driver/Src/stm32h7xx_hal_tim.c ****             PWM signal.
  91:Drivers/STM32H7xx_HAL_Driver/Src/stm32h7xx_hal_tim.c ****        (++) HAL_TIM_IC_Init and HAL_TIM_IC_ConfigChannel: to use the Timer to measure an
  92:Drivers/STM32H7xx_HAL_Driver/Src/stm32h7xx_hal_tim.c ****             external signal.
  93:Drivers/STM32H7xx_HAL_Driver/Src/stm32h7xx_hal_tim.c ****        (++) HAL_TIM_OnePulse_Init and HAL_TIM_OnePulse_ConfigChannel: to use the Timer
  94:Drivers/STM32H7xx_HAL_Driver/Src/stm32h7xx_hal_tim.c ****             in One Pulse Mode.
  95:Drivers/STM32H7xx_HAL_Driver/Src/stm32h7xx_hal_tim.c ****        (++) HAL_TIM_Encoder_Init: to use the Timer Encoder Interface.
  96:Drivers/STM32H7xx_HAL_Driver/Src/stm32h7xx_hal_tim.c **** 
  97:Drivers/STM32H7xx_HAL_Driver/Src/stm32h7xx_hal_tim.c ****      (#) Activate the TIM peripheral using one of the start functions depending from the feature us
  98:Drivers/STM32H7xx_HAL_Driver/Src/stm32h7xx_hal_tim.c ****            (++) Time Base : HAL_TIM_Base_Start(), HAL_TIM_Base_Start_DMA(), HAL_TIM_Base_Start_IT()
  99:Drivers/STM32H7xx_HAL_Driver/Src/stm32h7xx_hal_tim.c ****            (++) Input Capture :  HAL_TIM_IC_Start(), HAL_TIM_IC_Start_DMA(), HAL_TIM_IC_Start_IT()
 100:Drivers/STM32H7xx_HAL_Driver/Src/stm32h7xx_hal_tim.c ****            (++) Output Compare : HAL_TIM_OC_Start(), HAL_TIM_OC_Start_DMA(), HAL_TIM_OC_Start_IT()
 101:Drivers/STM32H7xx_HAL_Driver/Src/stm32h7xx_hal_tim.c ****            (++) PWM generation : HAL_TIM_PWM_Start(), HAL_TIM_PWM_Start_DMA(), HAL_TIM_PWM_Start_IT
 102:Drivers/STM32H7xx_HAL_Driver/Src/stm32h7xx_hal_tim.c ****            (++) One-pulse mode output : HAL_TIM_OnePulse_Start(), HAL_TIM_OnePulse_Start_IT()
 103:Drivers/STM32H7xx_HAL_Driver/Src/stm32h7xx_hal_tim.c ****            (++) Encoder mode output : HAL_TIM_Encoder_Start(), HAL_TIM_Encoder_Start_DMA(), HAL_TIM
 104:Drivers/STM32H7xx_HAL_Driver/Src/stm32h7xx_hal_tim.c **** 
 105:Drivers/STM32H7xx_HAL_Driver/Src/stm32h7xx_hal_tim.c ****      (#) The DMA Burst is managed with the two following functions:
 106:Drivers/STM32H7xx_HAL_Driver/Src/stm32h7xx_hal_tim.c ****          HAL_TIM_DMABurst_WriteStart()
 107:Drivers/STM32H7xx_HAL_Driver/Src/stm32h7xx_hal_tim.c ****          HAL_TIM_DMABurst_ReadStart()
 108:Drivers/STM32H7xx_HAL_Driver/Src/stm32h7xx_hal_tim.c **** 
 109:Drivers/STM32H7xx_HAL_Driver/Src/stm32h7xx_hal_tim.c ****     *** Callback registration ***
 110:Drivers/STM32H7xx_HAL_Driver/Src/stm32h7xx_hal_tim.c ****   =============================================
 111:Drivers/STM32H7xx_HAL_Driver/Src/stm32h7xx_hal_tim.c **** 
 112:Drivers/STM32H7xx_HAL_Driver/Src/stm32h7xx_hal_tim.c ****   [..]
 113:Drivers/STM32H7xx_HAL_Driver/Src/stm32h7xx_hal_tim.c ****   The compilation define  USE_HAL_TIM_REGISTER_CALLBACKS when set to 1
 114:Drivers/STM32H7xx_HAL_Driver/Src/stm32h7xx_hal_tim.c ****   allows the user to configure dynamically the driver callbacks.
 115:Drivers/STM32H7xx_HAL_Driver/Src/stm32h7xx_hal_tim.c **** 
 116:Drivers/STM32H7xx_HAL_Driver/Src/stm32h7xx_hal_tim.c ****   [..]
 117:Drivers/STM32H7xx_HAL_Driver/Src/stm32h7xx_hal_tim.c ****   Use Function HAL_TIM_RegisterCallback() to register a callback.
 118:Drivers/STM32H7xx_HAL_Driver/Src/stm32h7xx_hal_tim.c ****   HAL_TIM_RegisterCallback() takes as parameters the HAL peripheral handle,
 119:Drivers/STM32H7xx_HAL_Driver/Src/stm32h7xx_hal_tim.c ****   the Callback ID and a pointer to the user callback function.
 120:Drivers/STM32H7xx_HAL_Driver/Src/stm32h7xx_hal_tim.c **** 
 121:Drivers/STM32H7xx_HAL_Driver/Src/stm32h7xx_hal_tim.c ****   [..]
 122:Drivers/STM32H7xx_HAL_Driver/Src/stm32h7xx_hal_tim.c ****   Use function HAL_TIM_UnRegisterCallback() to reset a callback to the default
 123:Drivers/STM32H7xx_HAL_Driver/Src/stm32h7xx_hal_tim.c ****   weak function.
 124:Drivers/STM32H7xx_HAL_Driver/Src/stm32h7xx_hal_tim.c ****   HAL_TIM_UnRegisterCallback takes as parameters the HAL peripheral handle,
 125:Drivers/STM32H7xx_HAL_Driver/Src/stm32h7xx_hal_tim.c ****   and the Callback ID.
 126:Drivers/STM32H7xx_HAL_Driver/Src/stm32h7xx_hal_tim.c **** 
 127:Drivers/STM32H7xx_HAL_Driver/Src/stm32h7xx_hal_tim.c ****   [..]
 128:Drivers/STM32H7xx_HAL_Driver/Src/stm32h7xx_hal_tim.c ****   These functions allow to register/unregister following callbacks:
 129:Drivers/STM32H7xx_HAL_Driver/Src/stm32h7xx_hal_tim.c ****     (+) Base_MspInitCallback              : TIM Base Msp Init Callback.
 130:Drivers/STM32H7xx_HAL_Driver/Src/stm32h7xx_hal_tim.c ****     (+) Base_MspDeInitCallback            : TIM Base Msp DeInit Callback.
 131:Drivers/STM32H7xx_HAL_Driver/Src/stm32h7xx_hal_tim.c ****     (+) IC_MspInitCallback                : TIM IC Msp Init Callback.
 132:Drivers/STM32H7xx_HAL_Driver/Src/stm32h7xx_hal_tim.c ****     (+) IC_MspDeInitCallback              : TIM IC Msp DeInit Callback.
 133:Drivers/STM32H7xx_HAL_Driver/Src/stm32h7xx_hal_tim.c ****     (+) OC_MspInitCallback                : TIM OC Msp Init Callback.
 134:Drivers/STM32H7xx_HAL_Driver/Src/stm32h7xx_hal_tim.c ****     (+) OC_MspDeInitCallback              : TIM OC Msp DeInit Callback.
 135:Drivers/STM32H7xx_HAL_Driver/Src/stm32h7xx_hal_tim.c ****     (+) PWM_MspInitCallback               : TIM PWM Msp Init Callback.
 136:Drivers/STM32H7xx_HAL_Driver/Src/stm32h7xx_hal_tim.c ****     (+) PWM_MspDeInitCallback             : TIM PWM Msp DeInit Callback.
 137:Drivers/STM32H7xx_HAL_Driver/Src/stm32h7xx_hal_tim.c ****     (+) OnePulse_MspInitCallback          : TIM One Pulse Msp Init Callback.
 138:Drivers/STM32H7xx_HAL_Driver/Src/stm32h7xx_hal_tim.c ****     (+) OnePulse_MspDeInitCallback        : TIM One Pulse Msp DeInit Callback.
 139:Drivers/STM32H7xx_HAL_Driver/Src/stm32h7xx_hal_tim.c ****     (+) Encoder_MspInitCallback           : TIM Encoder Msp Init Callback.
 140:Drivers/STM32H7xx_HAL_Driver/Src/stm32h7xx_hal_tim.c ****     (+) Encoder_MspDeInitCallback         : TIM Encoder Msp DeInit Callback.
 141:Drivers/STM32H7xx_HAL_Driver/Src/stm32h7xx_hal_tim.c ****     (+) HallSensor_MspInitCallback        : TIM Hall Sensor Msp Init Callback.
 142:Drivers/STM32H7xx_HAL_Driver/Src/stm32h7xx_hal_tim.c ****     (+) HallSensor_MspDeInitCallback      : TIM Hall Sensor Msp DeInit Callback.
 143:Drivers/STM32H7xx_HAL_Driver/Src/stm32h7xx_hal_tim.c ****     (+) PeriodElapsedCallback             : TIM Period Elapsed Callback.
 144:Drivers/STM32H7xx_HAL_Driver/Src/stm32h7xx_hal_tim.c ****     (+) PeriodElapsedHalfCpltCallback     : TIM Period Elapsed half complete Callback.
 145:Drivers/STM32H7xx_HAL_Driver/Src/stm32h7xx_hal_tim.c ****     (+) TriggerCallback                   : TIM Trigger Callback.
ARM GAS  C:\Users\TGSPOC~1\AppData\Local\Temp\cchOEqPT.s 			page 4


 146:Drivers/STM32H7xx_HAL_Driver/Src/stm32h7xx_hal_tim.c ****     (+) TriggerHalfCpltCallback           : TIM Trigger half complete Callback.
 147:Drivers/STM32H7xx_HAL_Driver/Src/stm32h7xx_hal_tim.c ****     (+) IC_CaptureCallback                : TIM Input Capture Callback.
 148:Drivers/STM32H7xx_HAL_Driver/Src/stm32h7xx_hal_tim.c ****     (+) IC_CaptureHalfCpltCallback        : TIM Input Capture half complete Callback.
 149:Drivers/STM32H7xx_HAL_Driver/Src/stm32h7xx_hal_tim.c ****     (+) OC_DelayElapsedCallback           : TIM Output Compare Delay Elapsed Callback.
 150:Drivers/STM32H7xx_HAL_Driver/Src/stm32h7xx_hal_tim.c ****     (+) PWM_PulseFinishedCallback         : TIM PWM Pulse Finished Callback.
 151:Drivers/STM32H7xx_HAL_Driver/Src/stm32h7xx_hal_tim.c ****     (+) PWM_PulseFinishedHalfCpltCallback : TIM PWM Pulse Finished half complete Callback.
 152:Drivers/STM32H7xx_HAL_Driver/Src/stm32h7xx_hal_tim.c ****     (+) ErrorCallback                     : TIM Error Callback.
 153:Drivers/STM32H7xx_HAL_Driver/Src/stm32h7xx_hal_tim.c ****     (+) CommutationCallback               : TIM Commutation Callback.
 154:Drivers/STM32H7xx_HAL_Driver/Src/stm32h7xx_hal_tim.c ****     (+) CommutationHalfCpltCallback       : TIM Commutation half complete Callback.
 155:Drivers/STM32H7xx_HAL_Driver/Src/stm32h7xx_hal_tim.c ****     (+) BreakCallback                     : TIM Break Callback.
 156:Drivers/STM32H7xx_HAL_Driver/Src/stm32h7xx_hal_tim.c ****     (+) Break2Callback                    : TIM Break2 Callback.
 157:Drivers/STM32H7xx_HAL_Driver/Src/stm32h7xx_hal_tim.c **** 
 158:Drivers/STM32H7xx_HAL_Driver/Src/stm32h7xx_hal_tim.c ****   [..]
 159:Drivers/STM32H7xx_HAL_Driver/Src/stm32h7xx_hal_tim.c **** By default, after the Init and when the state is HAL_TIM_STATE_RESET
 160:Drivers/STM32H7xx_HAL_Driver/Src/stm32h7xx_hal_tim.c **** all interrupt callbacks are set to the corresponding weak functions:
 161:Drivers/STM32H7xx_HAL_Driver/Src/stm32h7xx_hal_tim.c ****   examples HAL_TIM_TriggerCallback(), HAL_TIM_ErrorCallback().
 162:Drivers/STM32H7xx_HAL_Driver/Src/stm32h7xx_hal_tim.c **** 
 163:Drivers/STM32H7xx_HAL_Driver/Src/stm32h7xx_hal_tim.c ****   [..]
 164:Drivers/STM32H7xx_HAL_Driver/Src/stm32h7xx_hal_tim.c ****   Exception done for MspInit and MspDeInit functions that are reset to the legacy weak
 165:Drivers/STM32H7xx_HAL_Driver/Src/stm32h7xx_hal_tim.c ****   functionalities in the Init / DeInit only when these callbacks are null
 166:Drivers/STM32H7xx_HAL_Driver/Src/stm32h7xx_hal_tim.c ****   (not registered beforehand). If not, MspInit or MspDeInit are not null, the Init / DeInit
 167:Drivers/STM32H7xx_HAL_Driver/Src/stm32h7xx_hal_tim.c ****     keep and use the user MspInit / MspDeInit callbacks(registered beforehand)
 168:Drivers/STM32H7xx_HAL_Driver/Src/stm32h7xx_hal_tim.c **** 
 169:Drivers/STM32H7xx_HAL_Driver/Src/stm32h7xx_hal_tim.c ****   [..]
 170:Drivers/STM32H7xx_HAL_Driver/Src/stm32h7xx_hal_tim.c ****     Callbacks can be registered / unregistered in HAL_TIM_STATE_READY state only.
 171:Drivers/STM32H7xx_HAL_Driver/Src/stm32h7xx_hal_tim.c ****     Exception done MspInit / MspDeInit that can be registered / unregistered
 172:Drivers/STM32H7xx_HAL_Driver/Src/stm32h7xx_hal_tim.c ****     in HAL_TIM_STATE_READY or HAL_TIM_STATE_RESET state,
 173:Drivers/STM32H7xx_HAL_Driver/Src/stm32h7xx_hal_tim.c ****     thus registered(user) MspInit / DeInit callbacks can be used during the Init / DeInit.
 174:Drivers/STM32H7xx_HAL_Driver/Src/stm32h7xx_hal_tim.c ****   In that case first register the MspInit/MspDeInit user callbacks
 175:Drivers/STM32H7xx_HAL_Driver/Src/stm32h7xx_hal_tim.c ****       using HAL_TIM_RegisterCallback() before calling DeInit or Init function.
 176:Drivers/STM32H7xx_HAL_Driver/Src/stm32h7xx_hal_tim.c **** 
 177:Drivers/STM32H7xx_HAL_Driver/Src/stm32h7xx_hal_tim.c ****   [..]
 178:Drivers/STM32H7xx_HAL_Driver/Src/stm32h7xx_hal_tim.c ****       When The compilation define USE_HAL_TIM_REGISTER_CALLBACKS is set to 0 or
 179:Drivers/STM32H7xx_HAL_Driver/Src/stm32h7xx_hal_tim.c ****       not defined, the callback registration feature is not available and all callbacks
 180:Drivers/STM32H7xx_HAL_Driver/Src/stm32h7xx_hal_tim.c ****       are set to the corresponding weak functions.
 181:Drivers/STM32H7xx_HAL_Driver/Src/stm32h7xx_hal_tim.c **** 
 182:Drivers/STM32H7xx_HAL_Driver/Src/stm32h7xx_hal_tim.c ****   @endverbatim
 183:Drivers/STM32H7xx_HAL_Driver/Src/stm32h7xx_hal_tim.c ****   ******************************************************************************
 184:Drivers/STM32H7xx_HAL_Driver/Src/stm32h7xx_hal_tim.c ****   */
 185:Drivers/STM32H7xx_HAL_Driver/Src/stm32h7xx_hal_tim.c **** 
 186:Drivers/STM32H7xx_HAL_Driver/Src/stm32h7xx_hal_tim.c **** /* Includes ------------------------------------------------------------------*/
 187:Drivers/STM32H7xx_HAL_Driver/Src/stm32h7xx_hal_tim.c **** #include "stm32h7xx_hal.h"
 188:Drivers/STM32H7xx_HAL_Driver/Src/stm32h7xx_hal_tim.c **** 
 189:Drivers/STM32H7xx_HAL_Driver/Src/stm32h7xx_hal_tim.c **** /** @addtogroup STM32H7xx_HAL_Driver
 190:Drivers/STM32H7xx_HAL_Driver/Src/stm32h7xx_hal_tim.c ****   * @{
 191:Drivers/STM32H7xx_HAL_Driver/Src/stm32h7xx_hal_tim.c ****   */
 192:Drivers/STM32H7xx_HAL_Driver/Src/stm32h7xx_hal_tim.c **** 
 193:Drivers/STM32H7xx_HAL_Driver/Src/stm32h7xx_hal_tim.c **** /** @defgroup TIM TIM
 194:Drivers/STM32H7xx_HAL_Driver/Src/stm32h7xx_hal_tim.c ****   * @brief TIM HAL module driver
 195:Drivers/STM32H7xx_HAL_Driver/Src/stm32h7xx_hal_tim.c ****   * @{
 196:Drivers/STM32H7xx_HAL_Driver/Src/stm32h7xx_hal_tim.c ****   */
 197:Drivers/STM32H7xx_HAL_Driver/Src/stm32h7xx_hal_tim.c **** 
 198:Drivers/STM32H7xx_HAL_Driver/Src/stm32h7xx_hal_tim.c **** #ifdef HAL_TIM_MODULE_ENABLED
 199:Drivers/STM32H7xx_HAL_Driver/Src/stm32h7xx_hal_tim.c **** 
 200:Drivers/STM32H7xx_HAL_Driver/Src/stm32h7xx_hal_tim.c **** /* Private typedef -----------------------------------------------------------*/
 201:Drivers/STM32H7xx_HAL_Driver/Src/stm32h7xx_hal_tim.c **** /* Private define ------------------------------------------------------------*/
 202:Drivers/STM32H7xx_HAL_Driver/Src/stm32h7xx_hal_tim.c **** /* Private macros ------------------------------------------------------------*/
ARM GAS  C:\Users\TGSPOC~1\AppData\Local\Temp\cchOEqPT.s 			page 5


 203:Drivers/STM32H7xx_HAL_Driver/Src/stm32h7xx_hal_tim.c **** /* Private variables ---------------------------------------------------------*/
 204:Drivers/STM32H7xx_HAL_Driver/Src/stm32h7xx_hal_tim.c **** /* Private function prototypes -----------------------------------------------*/
 205:Drivers/STM32H7xx_HAL_Driver/Src/stm32h7xx_hal_tim.c **** /** @addtogroup TIM_Private_Functions
 206:Drivers/STM32H7xx_HAL_Driver/Src/stm32h7xx_hal_tim.c ****   * @{
 207:Drivers/STM32H7xx_HAL_Driver/Src/stm32h7xx_hal_tim.c ****   */
 208:Drivers/STM32H7xx_HAL_Driver/Src/stm32h7xx_hal_tim.c **** static void TIM_OC1_SetConfig(TIM_TypeDef *TIMx, const TIM_OC_InitTypeDef *OC_Config);
 209:Drivers/STM32H7xx_HAL_Driver/Src/stm32h7xx_hal_tim.c **** static void TIM_OC3_SetConfig(TIM_TypeDef *TIMx, const TIM_OC_InitTypeDef *OC_Config);
 210:Drivers/STM32H7xx_HAL_Driver/Src/stm32h7xx_hal_tim.c **** static void TIM_OC4_SetConfig(TIM_TypeDef *TIMx, const TIM_OC_InitTypeDef *OC_Config);
 211:Drivers/STM32H7xx_HAL_Driver/Src/stm32h7xx_hal_tim.c **** static void TIM_OC5_SetConfig(TIM_TypeDef *TIMx, const TIM_OC_InitTypeDef *OC_Config);
 212:Drivers/STM32H7xx_HAL_Driver/Src/stm32h7xx_hal_tim.c **** static void TIM_OC6_SetConfig(TIM_TypeDef *TIMx, const TIM_OC_InitTypeDef *OC_Config);
 213:Drivers/STM32H7xx_HAL_Driver/Src/stm32h7xx_hal_tim.c **** static void TIM_TI1_ConfigInputStage(TIM_TypeDef *TIMx, uint32_t TIM_ICPolarity, uint32_t TIM_ICFil
 214:Drivers/STM32H7xx_HAL_Driver/Src/stm32h7xx_hal_tim.c **** static void TIM_TI2_SetConfig(TIM_TypeDef *TIMx, uint32_t TIM_ICPolarity, uint32_t TIM_ICSelection,
 215:Drivers/STM32H7xx_HAL_Driver/Src/stm32h7xx_hal_tim.c ****                               uint32_t TIM_ICFilter);
 216:Drivers/STM32H7xx_HAL_Driver/Src/stm32h7xx_hal_tim.c **** static void TIM_TI2_ConfigInputStage(TIM_TypeDef *TIMx, uint32_t TIM_ICPolarity, uint32_t TIM_ICFil
 217:Drivers/STM32H7xx_HAL_Driver/Src/stm32h7xx_hal_tim.c **** static void TIM_TI3_SetConfig(TIM_TypeDef *TIMx, uint32_t TIM_ICPolarity, uint32_t TIM_ICSelection,
 218:Drivers/STM32H7xx_HAL_Driver/Src/stm32h7xx_hal_tim.c ****                               uint32_t TIM_ICFilter);
 219:Drivers/STM32H7xx_HAL_Driver/Src/stm32h7xx_hal_tim.c **** static void TIM_TI4_SetConfig(TIM_TypeDef *TIMx, uint32_t TIM_ICPolarity, uint32_t TIM_ICSelection,
 220:Drivers/STM32H7xx_HAL_Driver/Src/stm32h7xx_hal_tim.c ****                               uint32_t TIM_ICFilter);
 221:Drivers/STM32H7xx_HAL_Driver/Src/stm32h7xx_hal_tim.c **** static void TIM_ITRx_SetConfig(TIM_TypeDef *TIMx, uint32_t InputTriggerSource);
 222:Drivers/STM32H7xx_HAL_Driver/Src/stm32h7xx_hal_tim.c **** static void TIM_DMAPeriodElapsedCplt(DMA_HandleTypeDef *hdma);
 223:Drivers/STM32H7xx_HAL_Driver/Src/stm32h7xx_hal_tim.c **** static void TIM_DMAPeriodElapsedHalfCplt(DMA_HandleTypeDef *hdma);
 224:Drivers/STM32H7xx_HAL_Driver/Src/stm32h7xx_hal_tim.c **** static void TIM_DMADelayPulseCplt(DMA_HandleTypeDef *hdma);
 225:Drivers/STM32H7xx_HAL_Driver/Src/stm32h7xx_hal_tim.c **** static void TIM_DMATriggerCplt(DMA_HandleTypeDef *hdma);
 226:Drivers/STM32H7xx_HAL_Driver/Src/stm32h7xx_hal_tim.c **** static void TIM_DMATriggerHalfCplt(DMA_HandleTypeDef *hdma);
 227:Drivers/STM32H7xx_HAL_Driver/Src/stm32h7xx_hal_tim.c **** static HAL_StatusTypeDef TIM_SlaveTimer_SetConfig(TIM_HandleTypeDef *htim,
 228:Drivers/STM32H7xx_HAL_Driver/Src/stm32h7xx_hal_tim.c ****                                                   const TIM_SlaveConfigTypeDef *sSlaveConfig);
 229:Drivers/STM32H7xx_HAL_Driver/Src/stm32h7xx_hal_tim.c **** /**
 230:Drivers/STM32H7xx_HAL_Driver/Src/stm32h7xx_hal_tim.c ****   * @}
 231:Drivers/STM32H7xx_HAL_Driver/Src/stm32h7xx_hal_tim.c ****   */
 232:Drivers/STM32H7xx_HAL_Driver/Src/stm32h7xx_hal_tim.c **** /* Exported functions --------------------------------------------------------*/
 233:Drivers/STM32H7xx_HAL_Driver/Src/stm32h7xx_hal_tim.c **** 
 234:Drivers/STM32H7xx_HAL_Driver/Src/stm32h7xx_hal_tim.c **** /** @defgroup TIM_Exported_Functions TIM Exported Functions
 235:Drivers/STM32H7xx_HAL_Driver/Src/stm32h7xx_hal_tim.c ****   * @{
 236:Drivers/STM32H7xx_HAL_Driver/Src/stm32h7xx_hal_tim.c ****   */
 237:Drivers/STM32H7xx_HAL_Driver/Src/stm32h7xx_hal_tim.c **** 
 238:Drivers/STM32H7xx_HAL_Driver/Src/stm32h7xx_hal_tim.c **** /** @defgroup TIM_Exported_Functions_Group1 TIM Time Base functions
 239:Drivers/STM32H7xx_HAL_Driver/Src/stm32h7xx_hal_tim.c ****   *  @brief    Time Base functions
 240:Drivers/STM32H7xx_HAL_Driver/Src/stm32h7xx_hal_tim.c ****   *
 241:Drivers/STM32H7xx_HAL_Driver/Src/stm32h7xx_hal_tim.c **** @verbatim
 242:Drivers/STM32H7xx_HAL_Driver/Src/stm32h7xx_hal_tim.c ****   ==============================================================================
 243:Drivers/STM32H7xx_HAL_Driver/Src/stm32h7xx_hal_tim.c ****               ##### Time Base functions #####
 244:Drivers/STM32H7xx_HAL_Driver/Src/stm32h7xx_hal_tim.c ****   ==============================================================================
 245:Drivers/STM32H7xx_HAL_Driver/Src/stm32h7xx_hal_tim.c ****   [..]
 246:Drivers/STM32H7xx_HAL_Driver/Src/stm32h7xx_hal_tim.c ****     This section provides functions allowing to:
 247:Drivers/STM32H7xx_HAL_Driver/Src/stm32h7xx_hal_tim.c ****     (+) Initialize and configure the TIM base.
 248:Drivers/STM32H7xx_HAL_Driver/Src/stm32h7xx_hal_tim.c ****     (+) De-initialize the TIM base.
 249:Drivers/STM32H7xx_HAL_Driver/Src/stm32h7xx_hal_tim.c ****     (+) Start the Time Base.
 250:Drivers/STM32H7xx_HAL_Driver/Src/stm32h7xx_hal_tim.c ****     (+) Stop the Time Base.
 251:Drivers/STM32H7xx_HAL_Driver/Src/stm32h7xx_hal_tim.c ****     (+) Start the Time Base and enable interrupt.
 252:Drivers/STM32H7xx_HAL_Driver/Src/stm32h7xx_hal_tim.c ****     (+) Stop the Time Base and disable interrupt.
 253:Drivers/STM32H7xx_HAL_Driver/Src/stm32h7xx_hal_tim.c ****     (+) Start the Time Base and enable DMA transfer.
 254:Drivers/STM32H7xx_HAL_Driver/Src/stm32h7xx_hal_tim.c ****     (+) Stop the Time Base and disable DMA transfer.
 255:Drivers/STM32H7xx_HAL_Driver/Src/stm32h7xx_hal_tim.c **** 
 256:Drivers/STM32H7xx_HAL_Driver/Src/stm32h7xx_hal_tim.c **** @endverbatim
 257:Drivers/STM32H7xx_HAL_Driver/Src/stm32h7xx_hal_tim.c ****   * @{
 258:Drivers/STM32H7xx_HAL_Driver/Src/stm32h7xx_hal_tim.c ****   */
 259:Drivers/STM32H7xx_HAL_Driver/Src/stm32h7xx_hal_tim.c **** /**
ARM GAS  C:\Users\TGSPOC~1\AppData\Local\Temp\cchOEqPT.s 			page 6


 260:Drivers/STM32H7xx_HAL_Driver/Src/stm32h7xx_hal_tim.c ****   * @brief  Initializes the TIM Time base Unit according to the specified
 261:Drivers/STM32H7xx_HAL_Driver/Src/stm32h7xx_hal_tim.c ****   *         parameters in the TIM_HandleTypeDef and initialize the associated handle.
 262:Drivers/STM32H7xx_HAL_Driver/Src/stm32h7xx_hal_tim.c ****   * @note   Switching from Center Aligned counter mode to Edge counter mode (or reverse)
 263:Drivers/STM32H7xx_HAL_Driver/Src/stm32h7xx_hal_tim.c ****   *         requires a timer reset to avoid unexpected direction
 264:Drivers/STM32H7xx_HAL_Driver/Src/stm32h7xx_hal_tim.c ****   *         due to DIR bit readonly in center aligned mode.
 265:Drivers/STM32H7xx_HAL_Driver/Src/stm32h7xx_hal_tim.c ****   *         Ex: call @ref HAL_TIM_Base_DeInit() before HAL_TIM_Base_Init()
 266:Drivers/STM32H7xx_HAL_Driver/Src/stm32h7xx_hal_tim.c ****   * @param  htim TIM Base handle
 267:Drivers/STM32H7xx_HAL_Driver/Src/stm32h7xx_hal_tim.c ****   * @retval HAL status
 268:Drivers/STM32H7xx_HAL_Driver/Src/stm32h7xx_hal_tim.c ****   */
 269:Drivers/STM32H7xx_HAL_Driver/Src/stm32h7xx_hal_tim.c **** HAL_StatusTypeDef HAL_TIM_Base_Init(TIM_HandleTypeDef *htim)
 270:Drivers/STM32H7xx_HAL_Driver/Src/stm32h7xx_hal_tim.c **** {
  28              		.loc 1 270 1
  29              		.cfi_startproc
  30              		@ args = 0, pretend = 0, frame = 8
  31              		@ frame_needed = 1, uses_anonymous_args = 0
  32 0000 80B5     		push	{r7, lr}
  33              	.LCFI0:
  34              		.cfi_def_cfa_offset 8
  35              		.cfi_offset 7, -8
  36              		.cfi_offset 14, -4
  37 0002 82B0     		sub	sp, sp, #8
  38              	.LCFI1:
  39              		.cfi_def_cfa_offset 16
  40 0004 00AF     		add	r7, sp, #0
  41              	.LCFI2:
  42              		.cfi_def_cfa_register 7
  43 0006 7860     		str	r0, [r7, #4]
 271:Drivers/STM32H7xx_HAL_Driver/Src/stm32h7xx_hal_tim.c ****   /* Check the TIM handle allocation */
 272:Drivers/STM32H7xx_HAL_Driver/Src/stm32h7xx_hal_tim.c ****   if (htim == NULL)
  44              		.loc 1 272 6
  45 0008 7B68     		ldr	r3, [r7, #4]
  46 000a 002B     		cmp	r3, #0
  47 000c 01D1     		bne	.L2
 273:Drivers/STM32H7xx_HAL_Driver/Src/stm32h7xx_hal_tim.c ****   {
 274:Drivers/STM32H7xx_HAL_Driver/Src/stm32h7xx_hal_tim.c ****     return HAL_ERROR;
  48              		.loc 1 274 12
  49 000e 0123     		movs	r3, #1
  50 0010 49E0     		b	.L3
  51              	.L2:
 275:Drivers/STM32H7xx_HAL_Driver/Src/stm32h7xx_hal_tim.c ****   }
 276:Drivers/STM32H7xx_HAL_Driver/Src/stm32h7xx_hal_tim.c **** 
 277:Drivers/STM32H7xx_HAL_Driver/Src/stm32h7xx_hal_tim.c ****   /* Check the parameters */
 278:Drivers/STM32H7xx_HAL_Driver/Src/stm32h7xx_hal_tim.c ****   assert_param(IS_TIM_INSTANCE(htim->Instance));
 279:Drivers/STM32H7xx_HAL_Driver/Src/stm32h7xx_hal_tim.c ****   assert_param(IS_TIM_COUNTER_MODE(htim->Init.CounterMode));
 280:Drivers/STM32H7xx_HAL_Driver/Src/stm32h7xx_hal_tim.c ****   assert_param(IS_TIM_CLOCKDIVISION_DIV(htim->Init.ClockDivision));
 281:Drivers/STM32H7xx_HAL_Driver/Src/stm32h7xx_hal_tim.c ****   assert_param(IS_TIM_PERIOD(htim, htim->Init.Period));
 282:Drivers/STM32H7xx_HAL_Driver/Src/stm32h7xx_hal_tim.c ****   assert_param(IS_TIM_AUTORELOAD_PRELOAD(htim->Init.AutoReloadPreload));
 283:Drivers/STM32H7xx_HAL_Driver/Src/stm32h7xx_hal_tim.c **** 
 284:Drivers/STM32H7xx_HAL_Driver/Src/stm32h7xx_hal_tim.c ****   if (htim->State == HAL_TIM_STATE_RESET)
  52              		.loc 1 284 11
  53 0012 7B68     		ldr	r3, [r7, #4]
  54 0014 93F83D30 		ldrb	r3, [r3, #61]
  55 0018 DBB2     		uxtb	r3, r3
  56              		.loc 1 284 6
  57 001a 002B     		cmp	r3, #0
  58 001c 06D1     		bne	.L4
 285:Drivers/STM32H7xx_HAL_Driver/Src/stm32h7xx_hal_tim.c ****   {
ARM GAS  C:\Users\TGSPOC~1\AppData\Local\Temp\cchOEqPT.s 			page 7


 286:Drivers/STM32H7xx_HAL_Driver/Src/stm32h7xx_hal_tim.c ****     /* Allocate lock resource and initialize it */
 287:Drivers/STM32H7xx_HAL_Driver/Src/stm32h7xx_hal_tim.c ****     htim->Lock = HAL_UNLOCKED;
  59              		.loc 1 287 16
  60 001e 7B68     		ldr	r3, [r7, #4]
  61 0020 0022     		movs	r2, #0
  62 0022 83F83C20 		strb	r2, [r3, #60]
 288:Drivers/STM32H7xx_HAL_Driver/Src/stm32h7xx_hal_tim.c **** 
 289:Drivers/STM32H7xx_HAL_Driver/Src/stm32h7xx_hal_tim.c **** #if (USE_HAL_TIM_REGISTER_CALLBACKS == 1)
 290:Drivers/STM32H7xx_HAL_Driver/Src/stm32h7xx_hal_tim.c ****     /* Reset interrupt callbacks to legacy weak callbacks */
 291:Drivers/STM32H7xx_HAL_Driver/Src/stm32h7xx_hal_tim.c ****     TIM_ResetCallback(htim);
 292:Drivers/STM32H7xx_HAL_Driver/Src/stm32h7xx_hal_tim.c **** 
 293:Drivers/STM32H7xx_HAL_Driver/Src/stm32h7xx_hal_tim.c ****     if (htim->Base_MspInitCallback == NULL)
 294:Drivers/STM32H7xx_HAL_Driver/Src/stm32h7xx_hal_tim.c ****     {
 295:Drivers/STM32H7xx_HAL_Driver/Src/stm32h7xx_hal_tim.c ****       htim->Base_MspInitCallback = HAL_TIM_Base_MspInit;
 296:Drivers/STM32H7xx_HAL_Driver/Src/stm32h7xx_hal_tim.c ****     }
 297:Drivers/STM32H7xx_HAL_Driver/Src/stm32h7xx_hal_tim.c ****     /* Init the low level hardware : GPIO, CLOCK, NVIC */
 298:Drivers/STM32H7xx_HAL_Driver/Src/stm32h7xx_hal_tim.c ****     htim->Base_MspInitCallback(htim);
 299:Drivers/STM32H7xx_HAL_Driver/Src/stm32h7xx_hal_tim.c **** #else
 300:Drivers/STM32H7xx_HAL_Driver/Src/stm32h7xx_hal_tim.c ****     /* Init the low level hardware : GPIO, CLOCK, NVIC */
 301:Drivers/STM32H7xx_HAL_Driver/Src/stm32h7xx_hal_tim.c ****     HAL_TIM_Base_MspInit(htim);
  63              		.loc 1 301 5
  64 0026 7868     		ldr	r0, [r7, #4]
  65 0028 FFF7FEFF 		bl	HAL_TIM_Base_MspInit
  66              	.L4:
 302:Drivers/STM32H7xx_HAL_Driver/Src/stm32h7xx_hal_tim.c **** #endif /* USE_HAL_TIM_REGISTER_CALLBACKS */
 303:Drivers/STM32H7xx_HAL_Driver/Src/stm32h7xx_hal_tim.c ****   }
 304:Drivers/STM32H7xx_HAL_Driver/Src/stm32h7xx_hal_tim.c **** 
 305:Drivers/STM32H7xx_HAL_Driver/Src/stm32h7xx_hal_tim.c ****   /* Set the TIM state */
 306:Drivers/STM32H7xx_HAL_Driver/Src/stm32h7xx_hal_tim.c ****   htim->State = HAL_TIM_STATE_BUSY;
  67              		.loc 1 306 15
  68 002c 7B68     		ldr	r3, [r7, #4]
  69 002e 0222     		movs	r2, #2
  70 0030 83F83D20 		strb	r2, [r3, #61]
 307:Drivers/STM32H7xx_HAL_Driver/Src/stm32h7xx_hal_tim.c **** 
 308:Drivers/STM32H7xx_HAL_Driver/Src/stm32h7xx_hal_tim.c ****   /* Set the Time Base configuration */
 309:Drivers/STM32H7xx_HAL_Driver/Src/stm32h7xx_hal_tim.c ****   TIM_Base_SetConfig(htim->Instance, &htim->Init);
  71              		.loc 1 309 3
  72 0034 7B68     		ldr	r3, [r7, #4]
  73 0036 1A68     		ldr	r2, [r3]
  74              		.loc 1 309 38
  75 0038 7B68     		ldr	r3, [r7, #4]
  76 003a 0433     		adds	r3, r3, #4
  77              		.loc 1 309 3
  78 003c 1946     		mov	r1, r3
  79 003e 1046     		mov	r0, r2
  80 0040 FFF7FEFF 		bl	TIM_Base_SetConfig
 310:Drivers/STM32H7xx_HAL_Driver/Src/stm32h7xx_hal_tim.c **** 
 311:Drivers/STM32H7xx_HAL_Driver/Src/stm32h7xx_hal_tim.c ****   /* Initialize the DMA burst operation state */
 312:Drivers/STM32H7xx_HAL_Driver/Src/stm32h7xx_hal_tim.c ****   htim->DMABurstState = HAL_DMA_BURST_STATE_READY;
  81              		.loc 1 312 23
  82 0044 7B68     		ldr	r3, [r7, #4]
  83 0046 0122     		movs	r2, #1
  84 0048 83F84820 		strb	r2, [r3, #72]
 313:Drivers/STM32H7xx_HAL_Driver/Src/stm32h7xx_hal_tim.c **** 
 314:Drivers/STM32H7xx_HAL_Driver/Src/stm32h7xx_hal_tim.c ****   /* Initialize the TIM channels state */
 315:Drivers/STM32H7xx_HAL_Driver/Src/stm32h7xx_hal_tim.c ****   TIM_CHANNEL_STATE_SET_ALL(htim, HAL_TIM_CHANNEL_STATE_READY);
  85              		.loc 1 315 3
ARM GAS  C:\Users\TGSPOC~1\AppData\Local\Temp\cchOEqPT.s 			page 8


  86 004c 7B68     		ldr	r3, [r7, #4]
  87 004e 0122     		movs	r2, #1
  88 0050 83F83E20 		strb	r2, [r3, #62]
  89 0054 7B68     		ldr	r3, [r7, #4]
  90 0056 0122     		movs	r2, #1
  91 0058 83F83F20 		strb	r2, [r3, #63]
  92 005c 7B68     		ldr	r3, [r7, #4]
  93 005e 0122     		movs	r2, #1
  94 0060 83F84020 		strb	r2, [r3, #64]
  95 0064 7B68     		ldr	r3, [r7, #4]
  96 0066 0122     		movs	r2, #1
  97 0068 83F84120 		strb	r2, [r3, #65]
  98 006c 7B68     		ldr	r3, [r7, #4]
  99 006e 0122     		movs	r2, #1
 100 0070 83F84220 		strb	r2, [r3, #66]
 101 0074 7B68     		ldr	r3, [r7, #4]
 102 0076 0122     		movs	r2, #1
 103 0078 83F84320 		strb	r2, [r3, #67]
 316:Drivers/STM32H7xx_HAL_Driver/Src/stm32h7xx_hal_tim.c ****   TIM_CHANNEL_N_STATE_SET_ALL(htim, HAL_TIM_CHANNEL_STATE_READY);
 104              		.loc 1 316 3
 105 007c 7B68     		ldr	r3, [r7, #4]
 106 007e 0122     		movs	r2, #1
 107 0080 83F84420 		strb	r2, [r3, #68]
 108 0084 7B68     		ldr	r3, [r7, #4]
 109 0086 0122     		movs	r2, #1
 110 0088 83F84520 		strb	r2, [r3, #69]
 111 008c 7B68     		ldr	r3, [r7, #4]
 112 008e 0122     		movs	r2, #1
 113 0090 83F84620 		strb	r2, [r3, #70]
 114 0094 7B68     		ldr	r3, [r7, #4]
 115 0096 0122     		movs	r2, #1
 116 0098 83F84720 		strb	r2, [r3, #71]
 317:Drivers/STM32H7xx_HAL_Driver/Src/stm32h7xx_hal_tim.c **** 
 318:Drivers/STM32H7xx_HAL_Driver/Src/stm32h7xx_hal_tim.c ****   /* Initialize the TIM state*/
 319:Drivers/STM32H7xx_HAL_Driver/Src/stm32h7xx_hal_tim.c ****   htim->State = HAL_TIM_STATE_READY;
 117              		.loc 1 319 15
 118 009c 7B68     		ldr	r3, [r7, #4]
 119 009e 0122     		movs	r2, #1
 120 00a0 83F83D20 		strb	r2, [r3, #61]
 320:Drivers/STM32H7xx_HAL_Driver/Src/stm32h7xx_hal_tim.c **** 
 321:Drivers/STM32H7xx_HAL_Driver/Src/stm32h7xx_hal_tim.c ****   return HAL_OK;
 121              		.loc 1 321 10
 122 00a4 0023     		movs	r3, #0
 123              	.L3:
 322:Drivers/STM32H7xx_HAL_Driver/Src/stm32h7xx_hal_tim.c **** }
 124              		.loc 1 322 1
 125 00a6 1846     		mov	r0, r3
 126 00a8 0837     		adds	r7, r7, #8
 127              	.LCFI3:
 128              		.cfi_def_cfa_offset 8
 129 00aa BD46     		mov	sp, r7
 130              	.LCFI4:
 131              		.cfi_def_cfa_register 13
 132              		@ sp needed
 133 00ac 80BD     		pop	{r7, pc}
 134              		.cfi_endproc
 135              	.LFE144:
ARM GAS  C:\Users\TGSPOC~1\AppData\Local\Temp\cchOEqPT.s 			page 9


 137              		.section	.text.HAL_TIM_Base_DeInit,"ax",%progbits
 138              		.align	1
 139              		.global	HAL_TIM_Base_DeInit
 140              		.syntax unified
 141              		.thumb
 142              		.thumb_func
 144              	HAL_TIM_Base_DeInit:
 145              	.LFB145:
 323:Drivers/STM32H7xx_HAL_Driver/Src/stm32h7xx_hal_tim.c **** 
 324:Drivers/STM32H7xx_HAL_Driver/Src/stm32h7xx_hal_tim.c **** /**
 325:Drivers/STM32H7xx_HAL_Driver/Src/stm32h7xx_hal_tim.c ****   * @brief  DeInitializes the TIM Base peripheral
 326:Drivers/STM32H7xx_HAL_Driver/Src/stm32h7xx_hal_tim.c ****   * @param  htim TIM Base handle
 327:Drivers/STM32H7xx_HAL_Driver/Src/stm32h7xx_hal_tim.c ****   * @retval HAL status
 328:Drivers/STM32H7xx_HAL_Driver/Src/stm32h7xx_hal_tim.c ****   */
 329:Drivers/STM32H7xx_HAL_Driver/Src/stm32h7xx_hal_tim.c **** HAL_StatusTypeDef HAL_TIM_Base_DeInit(TIM_HandleTypeDef *htim)
 330:Drivers/STM32H7xx_HAL_Driver/Src/stm32h7xx_hal_tim.c **** {
 146              		.loc 1 330 1
 147              		.cfi_startproc
 148              		@ args = 0, pretend = 0, frame = 8
 149              		@ frame_needed = 1, uses_anonymous_args = 0
 150 0000 80B5     		push	{r7, lr}
 151              	.LCFI5:
 152              		.cfi_def_cfa_offset 8
 153              		.cfi_offset 7, -8
 154              		.cfi_offset 14, -4
 155 0002 82B0     		sub	sp, sp, #8
 156              	.LCFI6:
 157              		.cfi_def_cfa_offset 16
 158 0004 00AF     		add	r7, sp, #0
 159              	.LCFI7:
 160              		.cfi_def_cfa_register 7
 161 0006 7860     		str	r0, [r7, #4]
 331:Drivers/STM32H7xx_HAL_Driver/Src/stm32h7xx_hal_tim.c ****   /* Check the parameters */
 332:Drivers/STM32H7xx_HAL_Driver/Src/stm32h7xx_hal_tim.c ****   assert_param(IS_TIM_INSTANCE(htim->Instance));
 333:Drivers/STM32H7xx_HAL_Driver/Src/stm32h7xx_hal_tim.c **** 
 334:Drivers/STM32H7xx_HAL_Driver/Src/stm32h7xx_hal_tim.c ****   htim->State = HAL_TIM_STATE_BUSY;
 162              		.loc 1 334 15
 163 0008 7B68     		ldr	r3, [r7, #4]
 164 000a 0222     		movs	r2, #2
 165 000c 83F83D20 		strb	r2, [r3, #61]
 335:Drivers/STM32H7xx_HAL_Driver/Src/stm32h7xx_hal_tim.c **** 
 336:Drivers/STM32H7xx_HAL_Driver/Src/stm32h7xx_hal_tim.c ****   /* Disable the TIM Peripheral Clock */
 337:Drivers/STM32H7xx_HAL_Driver/Src/stm32h7xx_hal_tim.c ****   __HAL_TIM_DISABLE(htim);
 166              		.loc 1 337 3
 167 0010 7B68     		ldr	r3, [r7, #4]
 168 0012 1B68     		ldr	r3, [r3]
 169 0014 1A6A     		ldr	r2, [r3, #32]
 170 0016 41F21113 		movw	r3, #4369
 171 001a 1340     		ands	r3, r3, r2
 172 001c 002B     		cmp	r3, #0
 173 001e 0FD1     		bne	.L6
 174              		.loc 1 337 3 is_stmt 0 discriminator 1
 175 0020 7B68     		ldr	r3, [r7, #4]
 176 0022 1B68     		ldr	r3, [r3]
 177 0024 1A6A     		ldr	r2, [r3, #32]
 178 0026 40F24443 		movw	r3, #1092
 179 002a 1340     		ands	r3, r3, r2
ARM GAS  C:\Users\TGSPOC~1\AppData\Local\Temp\cchOEqPT.s 			page 10


 180 002c 002B     		cmp	r3, #0
 181 002e 07D1     		bne	.L6
 182              		.loc 1 337 3 discriminator 2
 183 0030 7B68     		ldr	r3, [r7, #4]
 184 0032 1B68     		ldr	r3, [r3]
 185 0034 1A68     		ldr	r2, [r3]
 186 0036 7B68     		ldr	r3, [r7, #4]
 187 0038 1B68     		ldr	r3, [r3]
 188 003a 22F00102 		bic	r2, r2, #1
 189 003e 1A60     		str	r2, [r3]
 190              	.L6:
 338:Drivers/STM32H7xx_HAL_Driver/Src/stm32h7xx_hal_tim.c **** 
 339:Drivers/STM32H7xx_HAL_Driver/Src/stm32h7xx_hal_tim.c **** #if (USE_HAL_TIM_REGISTER_CALLBACKS == 1)
 340:Drivers/STM32H7xx_HAL_Driver/Src/stm32h7xx_hal_tim.c ****   if (htim->Base_MspDeInitCallback == NULL)
 341:Drivers/STM32H7xx_HAL_Driver/Src/stm32h7xx_hal_tim.c ****   {
 342:Drivers/STM32H7xx_HAL_Driver/Src/stm32h7xx_hal_tim.c ****     htim->Base_MspDeInitCallback = HAL_TIM_Base_MspDeInit;
 343:Drivers/STM32H7xx_HAL_Driver/Src/stm32h7xx_hal_tim.c ****   }
 344:Drivers/STM32H7xx_HAL_Driver/Src/stm32h7xx_hal_tim.c ****   /* DeInit the low level hardware */
 345:Drivers/STM32H7xx_HAL_Driver/Src/stm32h7xx_hal_tim.c ****   htim->Base_MspDeInitCallback(htim);
 346:Drivers/STM32H7xx_HAL_Driver/Src/stm32h7xx_hal_tim.c **** #else
 347:Drivers/STM32H7xx_HAL_Driver/Src/stm32h7xx_hal_tim.c ****   /* DeInit the low level hardware: GPIO, CLOCK, NVIC */
 348:Drivers/STM32H7xx_HAL_Driver/Src/stm32h7xx_hal_tim.c ****   HAL_TIM_Base_MspDeInit(htim);
 191              		.loc 1 348 3 is_stmt 1
 192 0040 7868     		ldr	r0, [r7, #4]
 193 0042 FFF7FEFF 		bl	HAL_TIM_Base_MspDeInit
 349:Drivers/STM32H7xx_HAL_Driver/Src/stm32h7xx_hal_tim.c **** #endif /* USE_HAL_TIM_REGISTER_CALLBACKS */
 350:Drivers/STM32H7xx_HAL_Driver/Src/stm32h7xx_hal_tim.c **** 
 351:Drivers/STM32H7xx_HAL_Driver/Src/stm32h7xx_hal_tim.c ****   /* Change the DMA burst operation state */
 352:Drivers/STM32H7xx_HAL_Driver/Src/stm32h7xx_hal_tim.c ****   htim->DMABurstState = HAL_DMA_BURST_STATE_RESET;
 194              		.loc 1 352 23
 195 0046 7B68     		ldr	r3, [r7, #4]
 196 0048 0022     		movs	r2, #0
 197 004a 83F84820 		strb	r2, [r3, #72]
 353:Drivers/STM32H7xx_HAL_Driver/Src/stm32h7xx_hal_tim.c **** 
 354:Drivers/STM32H7xx_HAL_Driver/Src/stm32h7xx_hal_tim.c ****   /* Change the TIM channels state */
 355:Drivers/STM32H7xx_HAL_Driver/Src/stm32h7xx_hal_tim.c ****   TIM_CHANNEL_STATE_SET_ALL(htim, HAL_TIM_CHANNEL_STATE_RESET);
 198              		.loc 1 355 3
 199 004e 7B68     		ldr	r3, [r7, #4]
 200 0050 0022     		movs	r2, #0
 201 0052 83F83E20 		strb	r2, [r3, #62]
 202 0056 7B68     		ldr	r3, [r7, #4]
 203 0058 0022     		movs	r2, #0
 204 005a 83F83F20 		strb	r2, [r3, #63]
 205 005e 7B68     		ldr	r3, [r7, #4]
 206 0060 0022     		movs	r2, #0
 207 0062 83F84020 		strb	r2, [r3, #64]
 208 0066 7B68     		ldr	r3, [r7, #4]
 209 0068 0022     		movs	r2, #0
 210 006a 83F84120 		strb	r2, [r3, #65]
 211 006e 7B68     		ldr	r3, [r7, #4]
 212 0070 0022     		movs	r2, #0
 213 0072 83F84220 		strb	r2, [r3, #66]
 214 0076 7B68     		ldr	r3, [r7, #4]
 215 0078 0022     		movs	r2, #0
 216 007a 83F84320 		strb	r2, [r3, #67]
 356:Drivers/STM32H7xx_HAL_Driver/Src/stm32h7xx_hal_tim.c ****   TIM_CHANNEL_N_STATE_SET_ALL(htim, HAL_TIM_CHANNEL_STATE_RESET);
 217              		.loc 1 356 3
ARM GAS  C:\Users\TGSPOC~1\AppData\Local\Temp\cchOEqPT.s 			page 11


 218 007e 7B68     		ldr	r3, [r7, #4]
 219 0080 0022     		movs	r2, #0
 220 0082 83F84420 		strb	r2, [r3, #68]
 221 0086 7B68     		ldr	r3, [r7, #4]
 222 0088 0022     		movs	r2, #0
 223 008a 83F84520 		strb	r2, [r3, #69]
 224 008e 7B68     		ldr	r3, [r7, #4]
 225 0090 0022     		movs	r2, #0
 226 0092 83F84620 		strb	r2, [r3, #70]
 227 0096 7B68     		ldr	r3, [r7, #4]
 228 0098 0022     		movs	r2, #0
 229 009a 83F84720 		strb	r2, [r3, #71]
 357:Drivers/STM32H7xx_HAL_Driver/Src/stm32h7xx_hal_tim.c **** 
 358:Drivers/STM32H7xx_HAL_Driver/Src/stm32h7xx_hal_tim.c ****   /* Change TIM state */
 359:Drivers/STM32H7xx_HAL_Driver/Src/stm32h7xx_hal_tim.c ****   htim->State = HAL_TIM_STATE_RESET;
 230              		.loc 1 359 15
 231 009e 7B68     		ldr	r3, [r7, #4]
 232 00a0 0022     		movs	r2, #0
 233 00a2 83F83D20 		strb	r2, [r3, #61]
 360:Drivers/STM32H7xx_HAL_Driver/Src/stm32h7xx_hal_tim.c **** 
 361:Drivers/STM32H7xx_HAL_Driver/Src/stm32h7xx_hal_tim.c ****   /* Release Lock */
 362:Drivers/STM32H7xx_HAL_Driver/Src/stm32h7xx_hal_tim.c ****   __HAL_UNLOCK(htim);
 234              		.loc 1 362 3
 235 00a6 7B68     		ldr	r3, [r7, #4]
 236 00a8 0022     		movs	r2, #0
 237 00aa 83F83C20 		strb	r2, [r3, #60]
 363:Drivers/STM32H7xx_HAL_Driver/Src/stm32h7xx_hal_tim.c **** 
 364:Drivers/STM32H7xx_HAL_Driver/Src/stm32h7xx_hal_tim.c ****   return HAL_OK;
 238              		.loc 1 364 10
 239 00ae 0023     		movs	r3, #0
 365:Drivers/STM32H7xx_HAL_Driver/Src/stm32h7xx_hal_tim.c **** }
 240              		.loc 1 365 1
 241 00b0 1846     		mov	r0, r3
 242 00b2 0837     		adds	r7, r7, #8
 243              	.LCFI8:
 244              		.cfi_def_cfa_offset 8
 245 00b4 BD46     		mov	sp, r7
 246              	.LCFI9:
 247              		.cfi_def_cfa_register 13
 248              		@ sp needed
 249 00b6 80BD     		pop	{r7, pc}
 250              		.cfi_endproc
 251              	.LFE145:
 253              		.section	.text.HAL_TIM_Base_MspInit,"ax",%progbits
 254              		.align	1
 255              		.weak	HAL_TIM_Base_MspInit
 256              		.syntax unified
 257              		.thumb
 258              		.thumb_func
 260              	HAL_TIM_Base_MspInit:
 261              	.LFB146:
 366:Drivers/STM32H7xx_HAL_Driver/Src/stm32h7xx_hal_tim.c **** 
 367:Drivers/STM32H7xx_HAL_Driver/Src/stm32h7xx_hal_tim.c **** /**
 368:Drivers/STM32H7xx_HAL_Driver/Src/stm32h7xx_hal_tim.c ****   * @brief  Initializes the TIM Base MSP.
 369:Drivers/STM32H7xx_HAL_Driver/Src/stm32h7xx_hal_tim.c ****   * @param  htim TIM Base handle
 370:Drivers/STM32H7xx_HAL_Driver/Src/stm32h7xx_hal_tim.c ****   * @retval None
 371:Drivers/STM32H7xx_HAL_Driver/Src/stm32h7xx_hal_tim.c ****   */
ARM GAS  C:\Users\TGSPOC~1\AppData\Local\Temp\cchOEqPT.s 			page 12


 372:Drivers/STM32H7xx_HAL_Driver/Src/stm32h7xx_hal_tim.c **** __weak void HAL_TIM_Base_MspInit(TIM_HandleTypeDef *htim)
 373:Drivers/STM32H7xx_HAL_Driver/Src/stm32h7xx_hal_tim.c **** {
 262              		.loc 1 373 1
 263              		.cfi_startproc
 264              		@ args = 0, pretend = 0, frame = 8
 265              		@ frame_needed = 1, uses_anonymous_args = 0
 266              		@ link register save eliminated.
 267 0000 80B4     		push	{r7}
 268              	.LCFI10:
 269              		.cfi_def_cfa_offset 4
 270              		.cfi_offset 7, -4
 271 0002 83B0     		sub	sp, sp, #12
 272              	.LCFI11:
 273              		.cfi_def_cfa_offset 16
 274 0004 00AF     		add	r7, sp, #0
 275              	.LCFI12:
 276              		.cfi_def_cfa_register 7
 277 0006 7860     		str	r0, [r7, #4]
 374:Drivers/STM32H7xx_HAL_Driver/Src/stm32h7xx_hal_tim.c ****   /* Prevent unused argument(s) compilation warning */
 375:Drivers/STM32H7xx_HAL_Driver/Src/stm32h7xx_hal_tim.c ****   UNUSED(htim);
 376:Drivers/STM32H7xx_HAL_Driver/Src/stm32h7xx_hal_tim.c **** 
 377:Drivers/STM32H7xx_HAL_Driver/Src/stm32h7xx_hal_tim.c ****   /* NOTE : This function should not be modified, when the callback is needed,
 378:Drivers/STM32H7xx_HAL_Driver/Src/stm32h7xx_hal_tim.c ****             the HAL_TIM_Base_MspInit could be implemented in the user file
 379:Drivers/STM32H7xx_HAL_Driver/Src/stm32h7xx_hal_tim.c ****    */
 380:Drivers/STM32H7xx_HAL_Driver/Src/stm32h7xx_hal_tim.c **** }
 278              		.loc 1 380 1
 279 0008 00BF     		nop
 280 000a 0C37     		adds	r7, r7, #12
 281              	.LCFI13:
 282              		.cfi_def_cfa_offset 4
 283 000c BD46     		mov	sp, r7
 284              	.LCFI14:
 285              		.cfi_def_cfa_register 13
 286              		@ sp needed
 287 000e 5DF8047B 		ldr	r7, [sp], #4
 288              	.LCFI15:
 289              		.cfi_restore 7
 290              		.cfi_def_cfa_offset 0
 291 0012 7047     		bx	lr
 292              		.cfi_endproc
 293              	.LFE146:
 295              		.section	.text.HAL_TIM_Base_MspDeInit,"ax",%progbits
 296              		.align	1
 297              		.weak	HAL_TIM_Base_MspDeInit
 298              		.syntax unified
 299              		.thumb
 300              		.thumb_func
 302              	HAL_TIM_Base_MspDeInit:
 303              	.LFB147:
 381:Drivers/STM32H7xx_HAL_Driver/Src/stm32h7xx_hal_tim.c **** 
 382:Drivers/STM32H7xx_HAL_Driver/Src/stm32h7xx_hal_tim.c **** /**
 383:Drivers/STM32H7xx_HAL_Driver/Src/stm32h7xx_hal_tim.c ****   * @brief  DeInitializes TIM Base MSP.
 384:Drivers/STM32H7xx_HAL_Driver/Src/stm32h7xx_hal_tim.c ****   * @param  htim TIM Base handle
 385:Drivers/STM32H7xx_HAL_Driver/Src/stm32h7xx_hal_tim.c ****   * @retval None
 386:Drivers/STM32H7xx_HAL_Driver/Src/stm32h7xx_hal_tim.c ****   */
 387:Drivers/STM32H7xx_HAL_Driver/Src/stm32h7xx_hal_tim.c **** __weak void HAL_TIM_Base_MspDeInit(TIM_HandleTypeDef *htim)
 388:Drivers/STM32H7xx_HAL_Driver/Src/stm32h7xx_hal_tim.c **** {
ARM GAS  C:\Users\TGSPOC~1\AppData\Local\Temp\cchOEqPT.s 			page 13


 304              		.loc 1 388 1
 305              		.cfi_startproc
 306              		@ args = 0, pretend = 0, frame = 8
 307              		@ frame_needed = 1, uses_anonymous_args = 0
 308              		@ link register save eliminated.
 309 0000 80B4     		push	{r7}
 310              	.LCFI16:
 311              		.cfi_def_cfa_offset 4
 312              		.cfi_offset 7, -4
 313 0002 83B0     		sub	sp, sp, #12
 314              	.LCFI17:
 315              		.cfi_def_cfa_offset 16
 316 0004 00AF     		add	r7, sp, #0
 317              	.LCFI18:
 318              		.cfi_def_cfa_register 7
 319 0006 7860     		str	r0, [r7, #4]
 389:Drivers/STM32H7xx_HAL_Driver/Src/stm32h7xx_hal_tim.c ****   /* Prevent unused argument(s) compilation warning */
 390:Drivers/STM32H7xx_HAL_Driver/Src/stm32h7xx_hal_tim.c ****   UNUSED(htim);
 391:Drivers/STM32H7xx_HAL_Driver/Src/stm32h7xx_hal_tim.c **** 
 392:Drivers/STM32H7xx_HAL_Driver/Src/stm32h7xx_hal_tim.c ****   /* NOTE : This function should not be modified, when the callback is needed,
 393:Drivers/STM32H7xx_HAL_Driver/Src/stm32h7xx_hal_tim.c ****             the HAL_TIM_Base_MspDeInit could be implemented in the user file
 394:Drivers/STM32H7xx_HAL_Driver/Src/stm32h7xx_hal_tim.c ****    */
 395:Drivers/STM32H7xx_HAL_Driver/Src/stm32h7xx_hal_tim.c **** }
 320              		.loc 1 395 1
 321 0008 00BF     		nop
 322 000a 0C37     		adds	r7, r7, #12
 323              	.LCFI19:
 324              		.cfi_def_cfa_offset 4
 325 000c BD46     		mov	sp, r7
 326              	.LCFI20:
 327              		.cfi_def_cfa_register 13
 328              		@ sp needed
 329 000e 5DF8047B 		ldr	r7, [sp], #4
 330              	.LCFI21:
 331              		.cfi_restore 7
 332              		.cfi_def_cfa_offset 0
 333 0012 7047     		bx	lr
 334              		.cfi_endproc
 335              	.LFE147:
 337              		.section	.text.HAL_TIM_Base_Start,"ax",%progbits
 338              		.align	1
 339              		.global	HAL_TIM_Base_Start
 340              		.syntax unified
 341              		.thumb
 342              		.thumb_func
 344              	HAL_TIM_Base_Start:
 345              	.LFB148:
 396:Drivers/STM32H7xx_HAL_Driver/Src/stm32h7xx_hal_tim.c **** 
 397:Drivers/STM32H7xx_HAL_Driver/Src/stm32h7xx_hal_tim.c **** 
 398:Drivers/STM32H7xx_HAL_Driver/Src/stm32h7xx_hal_tim.c **** /**
 399:Drivers/STM32H7xx_HAL_Driver/Src/stm32h7xx_hal_tim.c ****   * @brief  Starts the TIM Base generation.
 400:Drivers/STM32H7xx_HAL_Driver/Src/stm32h7xx_hal_tim.c ****   * @param  htim TIM Base handle
 401:Drivers/STM32H7xx_HAL_Driver/Src/stm32h7xx_hal_tim.c ****   * @retval HAL status
 402:Drivers/STM32H7xx_HAL_Driver/Src/stm32h7xx_hal_tim.c ****   */
 403:Drivers/STM32H7xx_HAL_Driver/Src/stm32h7xx_hal_tim.c **** HAL_StatusTypeDef HAL_TIM_Base_Start(TIM_HandleTypeDef *htim)
 404:Drivers/STM32H7xx_HAL_Driver/Src/stm32h7xx_hal_tim.c **** {
 346              		.loc 1 404 1
ARM GAS  C:\Users\TGSPOC~1\AppData\Local\Temp\cchOEqPT.s 			page 14


 347              		.cfi_startproc
 348              		@ args = 0, pretend = 0, frame = 16
 349              		@ frame_needed = 1, uses_anonymous_args = 0
 350              		@ link register save eliminated.
 351 0000 80B4     		push	{r7}
 352              	.LCFI22:
 353              		.cfi_def_cfa_offset 4
 354              		.cfi_offset 7, -4
 355 0002 85B0     		sub	sp, sp, #20
 356              	.LCFI23:
 357              		.cfi_def_cfa_offset 24
 358 0004 00AF     		add	r7, sp, #0
 359              	.LCFI24:
 360              		.cfi_def_cfa_register 7
 361 0006 7860     		str	r0, [r7, #4]
 405:Drivers/STM32H7xx_HAL_Driver/Src/stm32h7xx_hal_tim.c ****   uint32_t tmpsmcr;
 406:Drivers/STM32H7xx_HAL_Driver/Src/stm32h7xx_hal_tim.c **** 
 407:Drivers/STM32H7xx_HAL_Driver/Src/stm32h7xx_hal_tim.c ****   /* Check the parameters */
 408:Drivers/STM32H7xx_HAL_Driver/Src/stm32h7xx_hal_tim.c ****   assert_param(IS_TIM_INSTANCE(htim->Instance));
 409:Drivers/STM32H7xx_HAL_Driver/Src/stm32h7xx_hal_tim.c **** 
 410:Drivers/STM32H7xx_HAL_Driver/Src/stm32h7xx_hal_tim.c ****   /* Check the TIM state */
 411:Drivers/STM32H7xx_HAL_Driver/Src/stm32h7xx_hal_tim.c ****   if (htim->State != HAL_TIM_STATE_READY)
 362              		.loc 1 411 11
 363 0008 7B68     		ldr	r3, [r7, #4]
 364 000a 93F83D30 		ldrb	r3, [r3, #61]
 365 000e DBB2     		uxtb	r3, r3
 366              		.loc 1 411 6
 367 0010 012B     		cmp	r3, #1
 368 0012 01D0     		beq	.L11
 412:Drivers/STM32H7xx_HAL_Driver/Src/stm32h7xx_hal_tim.c ****   {
 413:Drivers/STM32H7xx_HAL_Driver/Src/stm32h7xx_hal_tim.c ****     return HAL_ERROR;
 369              		.loc 1 413 12
 370 0014 0123     		movs	r3, #1
 371 0016 4CE0     		b	.L12
 372              	.L11:
 414:Drivers/STM32H7xx_HAL_Driver/Src/stm32h7xx_hal_tim.c ****   }
 415:Drivers/STM32H7xx_HAL_Driver/Src/stm32h7xx_hal_tim.c **** 
 416:Drivers/STM32H7xx_HAL_Driver/Src/stm32h7xx_hal_tim.c ****   /* Set the TIM state */
 417:Drivers/STM32H7xx_HAL_Driver/Src/stm32h7xx_hal_tim.c ****   htim->State = HAL_TIM_STATE_BUSY;
 373              		.loc 1 417 15
 374 0018 7B68     		ldr	r3, [r7, #4]
 375 001a 0222     		movs	r2, #2
 376 001c 83F83D20 		strb	r2, [r3, #61]
 418:Drivers/STM32H7xx_HAL_Driver/Src/stm32h7xx_hal_tim.c **** 
 419:Drivers/STM32H7xx_HAL_Driver/Src/stm32h7xx_hal_tim.c ****   /* Enable the Peripheral, except in trigger mode where enable is automatically done with trigger 
 420:Drivers/STM32H7xx_HAL_Driver/Src/stm32h7xx_hal_tim.c ****   if (IS_TIM_SLAVE_INSTANCE(htim->Instance))
 377              		.loc 1 420 7
 378 0020 7B68     		ldr	r3, [r7, #4]
 379 0022 1B68     		ldr	r3, [r3]
 380              		.loc 1 420 6
 381 0024 264A     		ldr	r2, .L18
 382 0026 9342     		cmp	r3, r2
 383 0028 22D0     		beq	.L13
 384              		.loc 1 420 7 discriminator 1
 385 002a 7B68     		ldr	r3, [r7, #4]
 386 002c 1B68     		ldr	r3, [r3]
 387 002e B3F1804F 		cmp	r3, #1073741824
ARM GAS  C:\Users\TGSPOC~1\AppData\Local\Temp\cchOEqPT.s 			page 15


 388 0032 1DD0     		beq	.L13
 389              		.loc 1 420 7 is_stmt 0 discriminator 2
 390 0034 7B68     		ldr	r3, [r7, #4]
 391 0036 1B68     		ldr	r3, [r3]
 392 0038 224A     		ldr	r2, .L18+4
 393 003a 9342     		cmp	r3, r2
 394 003c 18D0     		beq	.L13
 395              		.loc 1 420 7 discriminator 3
 396 003e 7B68     		ldr	r3, [r7, #4]
 397 0040 1B68     		ldr	r3, [r3]
 398 0042 214A     		ldr	r2, .L18+8
 399 0044 9342     		cmp	r3, r2
 400 0046 13D0     		beq	.L13
 401              		.loc 1 420 7 discriminator 4
 402 0048 7B68     		ldr	r3, [r7, #4]
 403 004a 1B68     		ldr	r3, [r3]
 404 004c 1F4A     		ldr	r2, .L18+12
 405 004e 9342     		cmp	r3, r2
 406 0050 0ED0     		beq	.L13
 407              		.loc 1 420 7 discriminator 5
 408 0052 7B68     		ldr	r3, [r7, #4]
 409 0054 1B68     		ldr	r3, [r3]
 410 0056 1E4A     		ldr	r2, .L18+16
 411 0058 9342     		cmp	r3, r2
 412 005a 09D0     		beq	.L13
 413              		.loc 1 420 7 discriminator 6
 414 005c 7B68     		ldr	r3, [r7, #4]
 415 005e 1B68     		ldr	r3, [r3]
 416 0060 1C4A     		ldr	r2, .L18+20
 417 0062 9342     		cmp	r3, r2
 418 0064 04D0     		beq	.L13
 419              		.loc 1 420 7 discriminator 7
 420 0066 7B68     		ldr	r3, [r7, #4]
 421 0068 1B68     		ldr	r3, [r3]
 422 006a 1B4A     		ldr	r2, .L18+24
 423 006c 9342     		cmp	r3, r2
 424 006e 15D1     		bne	.L14
 425              	.L13:
 421:Drivers/STM32H7xx_HAL_Driver/Src/stm32h7xx_hal_tim.c ****   {
 422:Drivers/STM32H7xx_HAL_Driver/Src/stm32h7xx_hal_tim.c ****     tmpsmcr = htim->Instance->SMCR & TIM_SMCR_SMS;
 426              		.loc 1 422 19 is_stmt 1
 427 0070 7B68     		ldr	r3, [r7, #4]
 428 0072 1B68     		ldr	r3, [r3]
 429              		.loc 1 422 29
 430 0074 9A68     		ldr	r2, [r3, #8]
 431              		.loc 1 422 13
 432 0076 194B     		ldr	r3, .L18+28
 433 0078 1340     		ands	r3, r3, r2
 434 007a FB60     		str	r3, [r7, #12]
 423:Drivers/STM32H7xx_HAL_Driver/Src/stm32h7xx_hal_tim.c ****     if (!IS_TIM_SLAVEMODE_TRIGGER_ENABLED(tmpsmcr))
 435              		.loc 1 423 8
 436 007c FB68     		ldr	r3, [r7, #12]
 437 007e 062B     		cmp	r3, #6
 438 0080 15D0     		beq	.L17
 439              		.loc 1 423 9 discriminator 1
 440 0082 FB68     		ldr	r3, [r7, #12]
 441 0084 B3F5803F 		cmp	r3, #65536
ARM GAS  C:\Users\TGSPOC~1\AppData\Local\Temp\cchOEqPT.s 			page 16


 442 0088 11D0     		beq	.L17
 424:Drivers/STM32H7xx_HAL_Driver/Src/stm32h7xx_hal_tim.c ****     {
 425:Drivers/STM32H7xx_HAL_Driver/Src/stm32h7xx_hal_tim.c ****       __HAL_TIM_ENABLE(htim);
 443              		.loc 1 425 7
 444 008a 7B68     		ldr	r3, [r7, #4]
 445 008c 1B68     		ldr	r3, [r3]
 446 008e 1A68     		ldr	r2, [r3]
 447 0090 7B68     		ldr	r3, [r7, #4]
 448 0092 1B68     		ldr	r3, [r3]
 449 0094 42F00102 		orr	r2, r2, #1
 450 0098 1A60     		str	r2, [r3]
 423:Drivers/STM32H7xx_HAL_Driver/Src/stm32h7xx_hal_tim.c ****     if (!IS_TIM_SLAVEMODE_TRIGGER_ENABLED(tmpsmcr))
 451              		.loc 1 423 8
 452 009a 08E0     		b	.L17
 453              	.L14:
 426:Drivers/STM32H7xx_HAL_Driver/Src/stm32h7xx_hal_tim.c ****     }
 427:Drivers/STM32H7xx_HAL_Driver/Src/stm32h7xx_hal_tim.c ****   }
 428:Drivers/STM32H7xx_HAL_Driver/Src/stm32h7xx_hal_tim.c ****   else
 429:Drivers/STM32H7xx_HAL_Driver/Src/stm32h7xx_hal_tim.c ****   {
 430:Drivers/STM32H7xx_HAL_Driver/Src/stm32h7xx_hal_tim.c ****     __HAL_TIM_ENABLE(htim);
 454              		.loc 1 430 5
 455 009c 7B68     		ldr	r3, [r7, #4]
 456 009e 1B68     		ldr	r3, [r3]
 457 00a0 1A68     		ldr	r2, [r3]
 458 00a2 7B68     		ldr	r3, [r7, #4]
 459 00a4 1B68     		ldr	r3, [r3]
 460 00a6 42F00102 		orr	r2, r2, #1
 461 00aa 1A60     		str	r2, [r3]
 462 00ac 00E0     		b	.L16
 463              	.L17:
 423:Drivers/STM32H7xx_HAL_Driver/Src/stm32h7xx_hal_tim.c ****     {
 464              		.loc 1 423 8
 465 00ae 00BF     		nop
 466              	.L16:
 431:Drivers/STM32H7xx_HAL_Driver/Src/stm32h7xx_hal_tim.c ****   }
 432:Drivers/STM32H7xx_HAL_Driver/Src/stm32h7xx_hal_tim.c **** 
 433:Drivers/STM32H7xx_HAL_Driver/Src/stm32h7xx_hal_tim.c ****   /* Return function status */
 434:Drivers/STM32H7xx_HAL_Driver/Src/stm32h7xx_hal_tim.c ****   return HAL_OK;
 467              		.loc 1 434 10
 468 00b0 0023     		movs	r3, #0
 469              	.L12:
 435:Drivers/STM32H7xx_HAL_Driver/Src/stm32h7xx_hal_tim.c **** }
 470              		.loc 1 435 1
 471 00b2 1846     		mov	r0, r3
 472 00b4 1437     		adds	r7, r7, #20
 473              	.LCFI25:
 474              		.cfi_def_cfa_offset 4
 475 00b6 BD46     		mov	sp, r7
 476              	.LCFI26:
 477              		.cfi_def_cfa_register 13
 478              		@ sp needed
 479 00b8 5DF8047B 		ldr	r7, [sp], #4
 480              	.LCFI27:
 481              		.cfi_restore 7
 482              		.cfi_def_cfa_offset 0
 483 00bc 7047     		bx	lr
 484              	.L19:
ARM GAS  C:\Users\TGSPOC~1\AppData\Local\Temp\cchOEqPT.s 			page 17


 485 00be 00BF     		.align	2
 486              	.L18:
 487 00c0 00000140 		.word	1073807360
 488 00c4 00040040 		.word	1073742848
 489 00c8 00080040 		.word	1073743872
 490 00cc 000C0040 		.word	1073744896
 491 00d0 00040140 		.word	1073808384
 492 00d4 00180040 		.word	1073747968
 493 00d8 00400140 		.word	1073823744
 494 00dc 07000100 		.word	65543
 495              		.cfi_endproc
 496              	.LFE148:
 498              		.section	.text.HAL_TIM_Base_Stop,"ax",%progbits
 499              		.align	1
 500              		.global	HAL_TIM_Base_Stop
 501              		.syntax unified
 502              		.thumb
 503              		.thumb_func
 505              	HAL_TIM_Base_Stop:
 506              	.LFB149:
 436:Drivers/STM32H7xx_HAL_Driver/Src/stm32h7xx_hal_tim.c **** 
 437:Drivers/STM32H7xx_HAL_Driver/Src/stm32h7xx_hal_tim.c **** /**
 438:Drivers/STM32H7xx_HAL_Driver/Src/stm32h7xx_hal_tim.c ****   * @brief  Stops the TIM Base generation.
 439:Drivers/STM32H7xx_HAL_Driver/Src/stm32h7xx_hal_tim.c ****   * @param  htim TIM Base handle
 440:Drivers/STM32H7xx_HAL_Driver/Src/stm32h7xx_hal_tim.c ****   * @retval HAL status
 441:Drivers/STM32H7xx_HAL_Driver/Src/stm32h7xx_hal_tim.c ****   */
 442:Drivers/STM32H7xx_HAL_Driver/Src/stm32h7xx_hal_tim.c **** HAL_StatusTypeDef HAL_TIM_Base_Stop(TIM_HandleTypeDef *htim)
 443:Drivers/STM32H7xx_HAL_Driver/Src/stm32h7xx_hal_tim.c **** {
 507              		.loc 1 443 1
 508              		.cfi_startproc
 509              		@ args = 0, pretend = 0, frame = 8
 510              		@ frame_needed = 1, uses_anonymous_args = 0
 511              		@ link register save eliminated.
 512 0000 80B4     		push	{r7}
 513              	.LCFI28:
 514              		.cfi_def_cfa_offset 4
 515              		.cfi_offset 7, -4
 516 0002 83B0     		sub	sp, sp, #12
 517              	.LCFI29:
 518              		.cfi_def_cfa_offset 16
 519 0004 00AF     		add	r7, sp, #0
 520              	.LCFI30:
 521              		.cfi_def_cfa_register 7
 522 0006 7860     		str	r0, [r7, #4]
 444:Drivers/STM32H7xx_HAL_Driver/Src/stm32h7xx_hal_tim.c ****   /* Check the parameters */
 445:Drivers/STM32H7xx_HAL_Driver/Src/stm32h7xx_hal_tim.c ****   assert_param(IS_TIM_INSTANCE(htim->Instance));
 446:Drivers/STM32H7xx_HAL_Driver/Src/stm32h7xx_hal_tim.c **** 
 447:Drivers/STM32H7xx_HAL_Driver/Src/stm32h7xx_hal_tim.c ****   /* Disable the Peripheral */
 448:Drivers/STM32H7xx_HAL_Driver/Src/stm32h7xx_hal_tim.c ****   __HAL_TIM_DISABLE(htim);
 523              		.loc 1 448 3
 524 0008 7B68     		ldr	r3, [r7, #4]
 525 000a 1B68     		ldr	r3, [r3]
 526 000c 1A6A     		ldr	r2, [r3, #32]
 527 000e 41F21113 		movw	r3, #4369
 528 0012 1340     		ands	r3, r3, r2
 529 0014 002B     		cmp	r3, #0
 530 0016 0FD1     		bne	.L21
ARM GAS  C:\Users\TGSPOC~1\AppData\Local\Temp\cchOEqPT.s 			page 18


 531              		.loc 1 448 3 is_stmt 0 discriminator 1
 532 0018 7B68     		ldr	r3, [r7, #4]
 533 001a 1B68     		ldr	r3, [r3]
 534 001c 1A6A     		ldr	r2, [r3, #32]
 535 001e 40F24443 		movw	r3, #1092
 536 0022 1340     		ands	r3, r3, r2
 537 0024 002B     		cmp	r3, #0
 538 0026 07D1     		bne	.L21
 539              		.loc 1 448 3 discriminator 2
 540 0028 7B68     		ldr	r3, [r7, #4]
 541 002a 1B68     		ldr	r3, [r3]
 542 002c 1A68     		ldr	r2, [r3]
 543 002e 7B68     		ldr	r3, [r7, #4]
 544 0030 1B68     		ldr	r3, [r3]
 545 0032 22F00102 		bic	r2, r2, #1
 546 0036 1A60     		str	r2, [r3]
 547              	.L21:
 449:Drivers/STM32H7xx_HAL_Driver/Src/stm32h7xx_hal_tim.c **** 
 450:Drivers/STM32H7xx_HAL_Driver/Src/stm32h7xx_hal_tim.c ****   /* Set the TIM state */
 451:Drivers/STM32H7xx_HAL_Driver/Src/stm32h7xx_hal_tim.c ****   htim->State = HAL_TIM_STATE_READY;
 548              		.loc 1 451 15 is_stmt 1
 549 0038 7B68     		ldr	r3, [r7, #4]
 550 003a 0122     		movs	r2, #1
 551 003c 83F83D20 		strb	r2, [r3, #61]
 452:Drivers/STM32H7xx_HAL_Driver/Src/stm32h7xx_hal_tim.c **** 
 453:Drivers/STM32H7xx_HAL_Driver/Src/stm32h7xx_hal_tim.c ****   /* Return function status */
 454:Drivers/STM32H7xx_HAL_Driver/Src/stm32h7xx_hal_tim.c ****   return HAL_OK;
 552              		.loc 1 454 10
 553 0040 0023     		movs	r3, #0
 455:Drivers/STM32H7xx_HAL_Driver/Src/stm32h7xx_hal_tim.c **** }
 554              		.loc 1 455 1
 555 0042 1846     		mov	r0, r3
 556 0044 0C37     		adds	r7, r7, #12
 557              	.LCFI31:
 558              		.cfi_def_cfa_offset 4
 559 0046 BD46     		mov	sp, r7
 560              	.LCFI32:
 561              		.cfi_def_cfa_register 13
 562              		@ sp needed
 563 0048 5DF8047B 		ldr	r7, [sp], #4
 564              	.LCFI33:
 565              		.cfi_restore 7
 566              		.cfi_def_cfa_offset 0
 567 004c 7047     		bx	lr
 568              		.cfi_endproc
 569              	.LFE149:
 571              		.section	.text.HAL_TIM_Base_Start_IT,"ax",%progbits
 572              		.align	1
 573              		.global	HAL_TIM_Base_Start_IT
 574              		.syntax unified
 575              		.thumb
 576              		.thumb_func
 578              	HAL_TIM_Base_Start_IT:
 579              	.LFB150:
 456:Drivers/STM32H7xx_HAL_Driver/Src/stm32h7xx_hal_tim.c **** 
 457:Drivers/STM32H7xx_HAL_Driver/Src/stm32h7xx_hal_tim.c **** /**
 458:Drivers/STM32H7xx_HAL_Driver/Src/stm32h7xx_hal_tim.c ****   * @brief  Starts the TIM Base generation in interrupt mode.
ARM GAS  C:\Users\TGSPOC~1\AppData\Local\Temp\cchOEqPT.s 			page 19


 459:Drivers/STM32H7xx_HAL_Driver/Src/stm32h7xx_hal_tim.c ****   * @param  htim TIM Base handle
 460:Drivers/STM32H7xx_HAL_Driver/Src/stm32h7xx_hal_tim.c ****   * @retval HAL status
 461:Drivers/STM32H7xx_HAL_Driver/Src/stm32h7xx_hal_tim.c ****   */
 462:Drivers/STM32H7xx_HAL_Driver/Src/stm32h7xx_hal_tim.c **** HAL_StatusTypeDef HAL_TIM_Base_Start_IT(TIM_HandleTypeDef *htim)
 463:Drivers/STM32H7xx_HAL_Driver/Src/stm32h7xx_hal_tim.c **** {
 580              		.loc 1 463 1
 581              		.cfi_startproc
 582              		@ args = 0, pretend = 0, frame = 16
 583              		@ frame_needed = 1, uses_anonymous_args = 0
 584              		@ link register save eliminated.
 585 0000 80B4     		push	{r7}
 586              	.LCFI34:
 587              		.cfi_def_cfa_offset 4
 588              		.cfi_offset 7, -4
 589 0002 85B0     		sub	sp, sp, #20
 590              	.LCFI35:
 591              		.cfi_def_cfa_offset 24
 592 0004 00AF     		add	r7, sp, #0
 593              	.LCFI36:
 594              		.cfi_def_cfa_register 7
 595 0006 7860     		str	r0, [r7, #4]
 464:Drivers/STM32H7xx_HAL_Driver/Src/stm32h7xx_hal_tim.c ****   uint32_t tmpsmcr;
 465:Drivers/STM32H7xx_HAL_Driver/Src/stm32h7xx_hal_tim.c **** 
 466:Drivers/STM32H7xx_HAL_Driver/Src/stm32h7xx_hal_tim.c ****   /* Check the parameters */
 467:Drivers/STM32H7xx_HAL_Driver/Src/stm32h7xx_hal_tim.c ****   assert_param(IS_TIM_INSTANCE(htim->Instance));
 468:Drivers/STM32H7xx_HAL_Driver/Src/stm32h7xx_hal_tim.c **** 
 469:Drivers/STM32H7xx_HAL_Driver/Src/stm32h7xx_hal_tim.c ****   /* Check the TIM state */
 470:Drivers/STM32H7xx_HAL_Driver/Src/stm32h7xx_hal_tim.c ****   if (htim->State != HAL_TIM_STATE_READY)
 596              		.loc 1 470 11
 597 0008 7B68     		ldr	r3, [r7, #4]
 598 000a 93F83D30 		ldrb	r3, [r3, #61]
 599 000e DBB2     		uxtb	r3, r3
 600              		.loc 1 470 6
 601 0010 012B     		cmp	r3, #1
 602 0012 01D0     		beq	.L24
 471:Drivers/STM32H7xx_HAL_Driver/Src/stm32h7xx_hal_tim.c ****   {
 472:Drivers/STM32H7xx_HAL_Driver/Src/stm32h7xx_hal_tim.c ****     return HAL_ERROR;
 603              		.loc 1 472 12
 604 0014 0123     		movs	r3, #1
 605 0016 54E0     		b	.L25
 606              	.L24:
 473:Drivers/STM32H7xx_HAL_Driver/Src/stm32h7xx_hal_tim.c ****   }
 474:Drivers/STM32H7xx_HAL_Driver/Src/stm32h7xx_hal_tim.c **** 
 475:Drivers/STM32H7xx_HAL_Driver/Src/stm32h7xx_hal_tim.c ****   /* Set the TIM state */
 476:Drivers/STM32H7xx_HAL_Driver/Src/stm32h7xx_hal_tim.c ****   htim->State = HAL_TIM_STATE_BUSY;
 607              		.loc 1 476 15
 608 0018 7B68     		ldr	r3, [r7, #4]
 609 001a 0222     		movs	r2, #2
 610 001c 83F83D20 		strb	r2, [r3, #61]
 477:Drivers/STM32H7xx_HAL_Driver/Src/stm32h7xx_hal_tim.c **** 
 478:Drivers/STM32H7xx_HAL_Driver/Src/stm32h7xx_hal_tim.c ****   /* Enable the TIM Update interrupt */
 479:Drivers/STM32H7xx_HAL_Driver/Src/stm32h7xx_hal_tim.c ****   __HAL_TIM_ENABLE_IT(htim, TIM_IT_UPDATE);
 611              		.loc 1 479 3
 612 0020 7B68     		ldr	r3, [r7, #4]
 613 0022 1B68     		ldr	r3, [r3]
 614 0024 DA68     		ldr	r2, [r3, #12]
 615 0026 7B68     		ldr	r3, [r7, #4]
ARM GAS  C:\Users\TGSPOC~1\AppData\Local\Temp\cchOEqPT.s 			page 20


 616 0028 1B68     		ldr	r3, [r3]
 617 002a 42F00102 		orr	r2, r2, #1
 618 002e DA60     		str	r2, [r3, #12]
 480:Drivers/STM32H7xx_HAL_Driver/Src/stm32h7xx_hal_tim.c **** 
 481:Drivers/STM32H7xx_HAL_Driver/Src/stm32h7xx_hal_tim.c ****   /* Enable the Peripheral, except in trigger mode where enable is automatically done with trigger 
 482:Drivers/STM32H7xx_HAL_Driver/Src/stm32h7xx_hal_tim.c ****   if (IS_TIM_SLAVE_INSTANCE(htim->Instance))
 619              		.loc 1 482 7
 620 0030 7B68     		ldr	r3, [r7, #4]
 621 0032 1B68     		ldr	r3, [r3]
 622              		.loc 1 482 6
 623 0034 264A     		ldr	r2, .L31
 624 0036 9342     		cmp	r3, r2
 625 0038 22D0     		beq	.L26
 626              		.loc 1 482 7 discriminator 1
 627 003a 7B68     		ldr	r3, [r7, #4]
 628 003c 1B68     		ldr	r3, [r3]
 629 003e B3F1804F 		cmp	r3, #1073741824
 630 0042 1DD0     		beq	.L26
 631              		.loc 1 482 7 is_stmt 0 discriminator 2
 632 0044 7B68     		ldr	r3, [r7, #4]
 633 0046 1B68     		ldr	r3, [r3]
 634 0048 224A     		ldr	r2, .L31+4
 635 004a 9342     		cmp	r3, r2
 636 004c 18D0     		beq	.L26
 637              		.loc 1 482 7 discriminator 3
 638 004e 7B68     		ldr	r3, [r7, #4]
 639 0050 1B68     		ldr	r3, [r3]
 640 0052 214A     		ldr	r2, .L31+8
 641 0054 9342     		cmp	r3, r2
 642 0056 13D0     		beq	.L26
 643              		.loc 1 482 7 discriminator 4
 644 0058 7B68     		ldr	r3, [r7, #4]
 645 005a 1B68     		ldr	r3, [r3]
 646 005c 1F4A     		ldr	r2, .L31+12
 647 005e 9342     		cmp	r3, r2
 648 0060 0ED0     		beq	.L26
 649              		.loc 1 482 7 discriminator 5
 650 0062 7B68     		ldr	r3, [r7, #4]
 651 0064 1B68     		ldr	r3, [r3]
 652 0066 1E4A     		ldr	r2, .L31+16
 653 0068 9342     		cmp	r3, r2
 654 006a 09D0     		beq	.L26
 655              		.loc 1 482 7 discriminator 6
 656 006c 7B68     		ldr	r3, [r7, #4]
 657 006e 1B68     		ldr	r3, [r3]
 658 0070 1C4A     		ldr	r2, .L31+20
 659 0072 9342     		cmp	r3, r2
 660 0074 04D0     		beq	.L26
 661              		.loc 1 482 7 discriminator 7
 662 0076 7B68     		ldr	r3, [r7, #4]
 663 0078 1B68     		ldr	r3, [r3]
 664 007a 1B4A     		ldr	r2, .L31+24
 665 007c 9342     		cmp	r3, r2
 666 007e 15D1     		bne	.L27
 667              	.L26:
 483:Drivers/STM32H7xx_HAL_Driver/Src/stm32h7xx_hal_tim.c ****   {
 484:Drivers/STM32H7xx_HAL_Driver/Src/stm32h7xx_hal_tim.c ****     tmpsmcr = htim->Instance->SMCR & TIM_SMCR_SMS;
ARM GAS  C:\Users\TGSPOC~1\AppData\Local\Temp\cchOEqPT.s 			page 21


 668              		.loc 1 484 19 is_stmt 1
 669 0080 7B68     		ldr	r3, [r7, #4]
 670 0082 1B68     		ldr	r3, [r3]
 671              		.loc 1 484 29
 672 0084 9A68     		ldr	r2, [r3, #8]
 673              		.loc 1 484 13
 674 0086 194B     		ldr	r3, .L31+28
 675 0088 1340     		ands	r3, r3, r2
 676 008a FB60     		str	r3, [r7, #12]
 485:Drivers/STM32H7xx_HAL_Driver/Src/stm32h7xx_hal_tim.c ****     if (!IS_TIM_SLAVEMODE_TRIGGER_ENABLED(tmpsmcr))
 677              		.loc 1 485 8
 678 008c FB68     		ldr	r3, [r7, #12]
 679 008e 062B     		cmp	r3, #6
 680 0090 15D0     		beq	.L30
 681              		.loc 1 485 9 discriminator 1
 682 0092 FB68     		ldr	r3, [r7, #12]
 683 0094 B3F5803F 		cmp	r3, #65536
 684 0098 11D0     		beq	.L30
 486:Drivers/STM32H7xx_HAL_Driver/Src/stm32h7xx_hal_tim.c ****     {
 487:Drivers/STM32H7xx_HAL_Driver/Src/stm32h7xx_hal_tim.c ****       __HAL_TIM_ENABLE(htim);
 685              		.loc 1 487 7
 686 009a 7B68     		ldr	r3, [r7, #4]
 687 009c 1B68     		ldr	r3, [r3]
 688 009e 1A68     		ldr	r2, [r3]
 689 00a0 7B68     		ldr	r3, [r7, #4]
 690 00a2 1B68     		ldr	r3, [r3]
 691 00a4 42F00102 		orr	r2, r2, #1
 692 00a8 1A60     		str	r2, [r3]
 485:Drivers/STM32H7xx_HAL_Driver/Src/stm32h7xx_hal_tim.c ****     if (!IS_TIM_SLAVEMODE_TRIGGER_ENABLED(tmpsmcr))
 693              		.loc 1 485 8
 694 00aa 08E0     		b	.L30
 695              	.L27:
 488:Drivers/STM32H7xx_HAL_Driver/Src/stm32h7xx_hal_tim.c ****     }
 489:Drivers/STM32H7xx_HAL_Driver/Src/stm32h7xx_hal_tim.c ****   }
 490:Drivers/STM32H7xx_HAL_Driver/Src/stm32h7xx_hal_tim.c ****   else
 491:Drivers/STM32H7xx_HAL_Driver/Src/stm32h7xx_hal_tim.c ****   {
 492:Drivers/STM32H7xx_HAL_Driver/Src/stm32h7xx_hal_tim.c ****     __HAL_TIM_ENABLE(htim);
 696              		.loc 1 492 5
 697 00ac 7B68     		ldr	r3, [r7, #4]
 698 00ae 1B68     		ldr	r3, [r3]
 699 00b0 1A68     		ldr	r2, [r3]
 700 00b2 7B68     		ldr	r3, [r7, #4]
 701 00b4 1B68     		ldr	r3, [r3]
 702 00b6 42F00102 		orr	r2, r2, #1
 703 00ba 1A60     		str	r2, [r3]
 704 00bc 00E0     		b	.L29
 705              	.L30:
 485:Drivers/STM32H7xx_HAL_Driver/Src/stm32h7xx_hal_tim.c ****     {
 706              		.loc 1 485 8
 707 00be 00BF     		nop
 708              	.L29:
 493:Drivers/STM32H7xx_HAL_Driver/Src/stm32h7xx_hal_tim.c ****   }
 494:Drivers/STM32H7xx_HAL_Driver/Src/stm32h7xx_hal_tim.c **** 
 495:Drivers/STM32H7xx_HAL_Driver/Src/stm32h7xx_hal_tim.c ****   /* Return function status */
 496:Drivers/STM32H7xx_HAL_Driver/Src/stm32h7xx_hal_tim.c ****   return HAL_OK;
 709              		.loc 1 496 10
 710 00c0 0023     		movs	r3, #0
ARM GAS  C:\Users\TGSPOC~1\AppData\Local\Temp\cchOEqPT.s 			page 22


 711              	.L25:
 497:Drivers/STM32H7xx_HAL_Driver/Src/stm32h7xx_hal_tim.c **** }
 712              		.loc 1 497 1
 713 00c2 1846     		mov	r0, r3
 714 00c4 1437     		adds	r7, r7, #20
 715              	.LCFI37:
 716              		.cfi_def_cfa_offset 4
 717 00c6 BD46     		mov	sp, r7
 718              	.LCFI38:
 719              		.cfi_def_cfa_register 13
 720              		@ sp needed
 721 00c8 5DF8047B 		ldr	r7, [sp], #4
 722              	.LCFI39:
 723              		.cfi_restore 7
 724              		.cfi_def_cfa_offset 0
 725 00cc 7047     		bx	lr
 726              	.L32:
 727 00ce 00BF     		.align	2
 728              	.L31:
 729 00d0 00000140 		.word	1073807360
 730 00d4 00040040 		.word	1073742848
 731 00d8 00080040 		.word	1073743872
 732 00dc 000C0040 		.word	1073744896
 733 00e0 00040140 		.word	1073808384
 734 00e4 00180040 		.word	1073747968
 735 00e8 00400140 		.word	1073823744
 736 00ec 07000100 		.word	65543
 737              		.cfi_endproc
 738              	.LFE150:
 740              		.section	.text.HAL_TIM_Base_Stop_IT,"ax",%progbits
 741              		.align	1
 742              		.global	HAL_TIM_Base_Stop_IT
 743              		.syntax unified
 744              		.thumb
 745              		.thumb_func
 747              	HAL_TIM_Base_Stop_IT:
 748              	.LFB151:
 498:Drivers/STM32H7xx_HAL_Driver/Src/stm32h7xx_hal_tim.c **** 
 499:Drivers/STM32H7xx_HAL_Driver/Src/stm32h7xx_hal_tim.c **** /**
 500:Drivers/STM32H7xx_HAL_Driver/Src/stm32h7xx_hal_tim.c ****   * @brief  Stops the TIM Base generation in interrupt mode.
 501:Drivers/STM32H7xx_HAL_Driver/Src/stm32h7xx_hal_tim.c ****   * @param  htim TIM Base handle
 502:Drivers/STM32H7xx_HAL_Driver/Src/stm32h7xx_hal_tim.c ****   * @retval HAL status
 503:Drivers/STM32H7xx_HAL_Driver/Src/stm32h7xx_hal_tim.c ****   */
 504:Drivers/STM32H7xx_HAL_Driver/Src/stm32h7xx_hal_tim.c **** HAL_StatusTypeDef HAL_TIM_Base_Stop_IT(TIM_HandleTypeDef *htim)
 505:Drivers/STM32H7xx_HAL_Driver/Src/stm32h7xx_hal_tim.c **** {
 749              		.loc 1 505 1
 750              		.cfi_startproc
 751              		@ args = 0, pretend = 0, frame = 8
 752              		@ frame_needed = 1, uses_anonymous_args = 0
 753              		@ link register save eliminated.
 754 0000 80B4     		push	{r7}
 755              	.LCFI40:
 756              		.cfi_def_cfa_offset 4
 757              		.cfi_offset 7, -4
 758 0002 83B0     		sub	sp, sp, #12
 759              	.LCFI41:
 760              		.cfi_def_cfa_offset 16
ARM GAS  C:\Users\TGSPOC~1\AppData\Local\Temp\cchOEqPT.s 			page 23


 761 0004 00AF     		add	r7, sp, #0
 762              	.LCFI42:
 763              		.cfi_def_cfa_register 7
 764 0006 7860     		str	r0, [r7, #4]
 506:Drivers/STM32H7xx_HAL_Driver/Src/stm32h7xx_hal_tim.c ****   /* Check the parameters */
 507:Drivers/STM32H7xx_HAL_Driver/Src/stm32h7xx_hal_tim.c ****   assert_param(IS_TIM_INSTANCE(htim->Instance));
 508:Drivers/STM32H7xx_HAL_Driver/Src/stm32h7xx_hal_tim.c **** 
 509:Drivers/STM32H7xx_HAL_Driver/Src/stm32h7xx_hal_tim.c ****   /* Disable the TIM Update interrupt */
 510:Drivers/STM32H7xx_HAL_Driver/Src/stm32h7xx_hal_tim.c ****   __HAL_TIM_DISABLE_IT(htim, TIM_IT_UPDATE);
 765              		.loc 1 510 3
 766 0008 7B68     		ldr	r3, [r7, #4]
 767 000a 1B68     		ldr	r3, [r3]
 768 000c DA68     		ldr	r2, [r3, #12]
 769 000e 7B68     		ldr	r3, [r7, #4]
 770 0010 1B68     		ldr	r3, [r3]
 771 0012 22F00102 		bic	r2, r2, #1
 772 0016 DA60     		str	r2, [r3, #12]
 511:Drivers/STM32H7xx_HAL_Driver/Src/stm32h7xx_hal_tim.c **** 
 512:Drivers/STM32H7xx_HAL_Driver/Src/stm32h7xx_hal_tim.c ****   /* Disable the Peripheral */
 513:Drivers/STM32H7xx_HAL_Driver/Src/stm32h7xx_hal_tim.c ****   __HAL_TIM_DISABLE(htim);
 773              		.loc 1 513 3
 774 0018 7B68     		ldr	r3, [r7, #4]
 775 001a 1B68     		ldr	r3, [r3]
 776 001c 1A6A     		ldr	r2, [r3, #32]
 777 001e 41F21113 		movw	r3, #4369
 778 0022 1340     		ands	r3, r3, r2
 779 0024 002B     		cmp	r3, #0
 780 0026 0FD1     		bne	.L34
 781              		.loc 1 513 3 is_stmt 0 discriminator 1
 782 0028 7B68     		ldr	r3, [r7, #4]
 783 002a 1B68     		ldr	r3, [r3]
 784 002c 1A6A     		ldr	r2, [r3, #32]
 785 002e 40F24443 		movw	r3, #1092
 786 0032 1340     		ands	r3, r3, r2
 787 0034 002B     		cmp	r3, #0
 788 0036 07D1     		bne	.L34
 789              		.loc 1 513 3 discriminator 2
 790 0038 7B68     		ldr	r3, [r7, #4]
 791 003a 1B68     		ldr	r3, [r3]
 792 003c 1A68     		ldr	r2, [r3]
 793 003e 7B68     		ldr	r3, [r7, #4]
 794 0040 1B68     		ldr	r3, [r3]
 795 0042 22F00102 		bic	r2, r2, #1
 796 0046 1A60     		str	r2, [r3]
 797              	.L34:
 514:Drivers/STM32H7xx_HAL_Driver/Src/stm32h7xx_hal_tim.c **** 
 515:Drivers/STM32H7xx_HAL_Driver/Src/stm32h7xx_hal_tim.c ****   /* Set the TIM state */
 516:Drivers/STM32H7xx_HAL_Driver/Src/stm32h7xx_hal_tim.c ****   htim->State = HAL_TIM_STATE_READY;
 798              		.loc 1 516 15 is_stmt 1
 799 0048 7B68     		ldr	r3, [r7, #4]
 800 004a 0122     		movs	r2, #1
 801 004c 83F83D20 		strb	r2, [r3, #61]
 517:Drivers/STM32H7xx_HAL_Driver/Src/stm32h7xx_hal_tim.c **** 
 518:Drivers/STM32H7xx_HAL_Driver/Src/stm32h7xx_hal_tim.c ****   /* Return function status */
 519:Drivers/STM32H7xx_HAL_Driver/Src/stm32h7xx_hal_tim.c ****   return HAL_OK;
 802              		.loc 1 519 10
 803 0050 0023     		movs	r3, #0
ARM GAS  C:\Users\TGSPOC~1\AppData\Local\Temp\cchOEqPT.s 			page 24


 520:Drivers/STM32H7xx_HAL_Driver/Src/stm32h7xx_hal_tim.c **** }
 804              		.loc 1 520 1
 805 0052 1846     		mov	r0, r3
 806 0054 0C37     		adds	r7, r7, #12
 807              	.LCFI43:
 808              		.cfi_def_cfa_offset 4
 809 0056 BD46     		mov	sp, r7
 810              	.LCFI44:
 811              		.cfi_def_cfa_register 13
 812              		@ sp needed
 813 0058 5DF8047B 		ldr	r7, [sp], #4
 814              	.LCFI45:
 815              		.cfi_restore 7
 816              		.cfi_def_cfa_offset 0
 817 005c 7047     		bx	lr
 818              		.cfi_endproc
 819              	.LFE151:
 821              		.section	.text.HAL_TIM_Base_Start_DMA,"ax",%progbits
 822              		.align	1
 823              		.global	HAL_TIM_Base_Start_DMA
 824              		.syntax unified
 825              		.thumb
 826              		.thumb_func
 828              	HAL_TIM_Base_Start_DMA:
 829              	.LFB152:
 521:Drivers/STM32H7xx_HAL_Driver/Src/stm32h7xx_hal_tim.c **** 
 522:Drivers/STM32H7xx_HAL_Driver/Src/stm32h7xx_hal_tim.c **** /**
 523:Drivers/STM32H7xx_HAL_Driver/Src/stm32h7xx_hal_tim.c ****   * @brief  Starts the TIM Base generation in DMA mode.
 524:Drivers/STM32H7xx_HAL_Driver/Src/stm32h7xx_hal_tim.c ****   * @param  htim TIM Base handle
 525:Drivers/STM32H7xx_HAL_Driver/Src/stm32h7xx_hal_tim.c ****   * @param  pData The source Buffer address.
 526:Drivers/STM32H7xx_HAL_Driver/Src/stm32h7xx_hal_tim.c ****   * @param  Length The length of data to be transferred from memory to peripheral.
 527:Drivers/STM32H7xx_HAL_Driver/Src/stm32h7xx_hal_tim.c ****   * @retval HAL status
 528:Drivers/STM32H7xx_HAL_Driver/Src/stm32h7xx_hal_tim.c ****   */
 529:Drivers/STM32H7xx_HAL_Driver/Src/stm32h7xx_hal_tim.c **** HAL_StatusTypeDef HAL_TIM_Base_Start_DMA(TIM_HandleTypeDef *htim, const uint32_t *pData, uint16_t L
 530:Drivers/STM32H7xx_HAL_Driver/Src/stm32h7xx_hal_tim.c **** {
 830              		.loc 1 530 1
 831              		.cfi_startproc
 832              		@ args = 0, pretend = 0, frame = 24
 833              		@ frame_needed = 1, uses_anonymous_args = 0
 834 0000 80B5     		push	{r7, lr}
 835              	.LCFI46:
 836              		.cfi_def_cfa_offset 8
 837              		.cfi_offset 7, -8
 838              		.cfi_offset 14, -4
 839 0002 86B0     		sub	sp, sp, #24
 840              	.LCFI47:
 841              		.cfi_def_cfa_offset 32
 842 0004 00AF     		add	r7, sp, #0
 843              	.LCFI48:
 844              		.cfi_def_cfa_register 7
 845 0006 F860     		str	r0, [r7, #12]
 846 0008 B960     		str	r1, [r7, #8]
 847 000a 1346     		mov	r3, r2
 848 000c FB80     		strh	r3, [r7, #6]	@ movhi
 531:Drivers/STM32H7xx_HAL_Driver/Src/stm32h7xx_hal_tim.c ****   uint32_t tmpsmcr;
 532:Drivers/STM32H7xx_HAL_Driver/Src/stm32h7xx_hal_tim.c **** 
 533:Drivers/STM32H7xx_HAL_Driver/Src/stm32h7xx_hal_tim.c ****   /* Check the parameters */
ARM GAS  C:\Users\TGSPOC~1\AppData\Local\Temp\cchOEqPT.s 			page 25


 534:Drivers/STM32H7xx_HAL_Driver/Src/stm32h7xx_hal_tim.c ****   assert_param(IS_TIM_DMA_INSTANCE(htim->Instance));
 535:Drivers/STM32H7xx_HAL_Driver/Src/stm32h7xx_hal_tim.c **** 
 536:Drivers/STM32H7xx_HAL_Driver/Src/stm32h7xx_hal_tim.c ****   /* Set the TIM state */
 537:Drivers/STM32H7xx_HAL_Driver/Src/stm32h7xx_hal_tim.c ****   if (htim->State == HAL_TIM_STATE_BUSY)
 849              		.loc 1 537 11
 850 000e FB68     		ldr	r3, [r7, #12]
 851 0010 93F83D30 		ldrb	r3, [r3, #61]
 852 0014 DBB2     		uxtb	r3, r3
 853              		.loc 1 537 6
 854 0016 022B     		cmp	r3, #2
 855 0018 01D1     		bne	.L37
 538:Drivers/STM32H7xx_HAL_Driver/Src/stm32h7xx_hal_tim.c ****   {
 539:Drivers/STM32H7xx_HAL_Driver/Src/stm32h7xx_hal_tim.c ****     return HAL_BUSY;
 856              		.loc 1 539 12
 857 001a 0223     		movs	r3, #2
 858 001c 80E0     		b	.L38
 859              	.L37:
 540:Drivers/STM32H7xx_HAL_Driver/Src/stm32h7xx_hal_tim.c ****   }
 541:Drivers/STM32H7xx_HAL_Driver/Src/stm32h7xx_hal_tim.c ****   else if (htim->State == HAL_TIM_STATE_READY)
 860              		.loc 1 541 16
 861 001e FB68     		ldr	r3, [r7, #12]
 862 0020 93F83D30 		ldrb	r3, [r3, #61]
 863 0024 DBB2     		uxtb	r3, r3
 864              		.loc 1 541 11
 865 0026 012B     		cmp	r3, #1
 866 0028 25D1     		bne	.L39
 542:Drivers/STM32H7xx_HAL_Driver/Src/stm32h7xx_hal_tim.c ****   {
 543:Drivers/STM32H7xx_HAL_Driver/Src/stm32h7xx_hal_tim.c ****     if ((pData == NULL) || (Length == 0U))
 867              		.loc 1 543 8
 868 002a BB68     		ldr	r3, [r7, #8]
 869 002c 002B     		cmp	r3, #0
 870 002e 02D0     		beq	.L40
 871              		.loc 1 543 25 discriminator 1
 872 0030 FB88     		ldrh	r3, [r7, #6]
 873 0032 002B     		cmp	r3, #0
 874 0034 01D1     		bne	.L41
 875              	.L40:
 544:Drivers/STM32H7xx_HAL_Driver/Src/stm32h7xx_hal_tim.c ****     {
 545:Drivers/STM32H7xx_HAL_Driver/Src/stm32h7xx_hal_tim.c ****       return HAL_ERROR;
 876              		.loc 1 545 14
 877 0036 0123     		movs	r3, #1
 878 0038 72E0     		b	.L38
 879              	.L41:
 546:Drivers/STM32H7xx_HAL_Driver/Src/stm32h7xx_hal_tim.c ****     }
 547:Drivers/STM32H7xx_HAL_Driver/Src/stm32h7xx_hal_tim.c ****     else
 548:Drivers/STM32H7xx_HAL_Driver/Src/stm32h7xx_hal_tim.c ****     {
 549:Drivers/STM32H7xx_HAL_Driver/Src/stm32h7xx_hal_tim.c ****       htim->State = HAL_TIM_STATE_BUSY;
 880              		.loc 1 549 19
 881 003a FB68     		ldr	r3, [r7, #12]
 882 003c 0222     		movs	r2, #2
 883 003e 83F83D20 		strb	r2, [r3, #61]
 550:Drivers/STM32H7xx_HAL_Driver/Src/stm32h7xx_hal_tim.c ****     }
 551:Drivers/STM32H7xx_HAL_Driver/Src/stm32h7xx_hal_tim.c ****   }
 552:Drivers/STM32H7xx_HAL_Driver/Src/stm32h7xx_hal_tim.c ****   else
 553:Drivers/STM32H7xx_HAL_Driver/Src/stm32h7xx_hal_tim.c ****   {
 554:Drivers/STM32H7xx_HAL_Driver/Src/stm32h7xx_hal_tim.c ****     return HAL_ERROR;
 555:Drivers/STM32H7xx_HAL_Driver/Src/stm32h7xx_hal_tim.c ****   }
ARM GAS  C:\Users\TGSPOC~1\AppData\Local\Temp\cchOEqPT.s 			page 26


 556:Drivers/STM32H7xx_HAL_Driver/Src/stm32h7xx_hal_tim.c **** 
 557:Drivers/STM32H7xx_HAL_Driver/Src/stm32h7xx_hal_tim.c ****   /* Set the DMA Period elapsed callbacks */
 558:Drivers/STM32H7xx_HAL_Driver/Src/stm32h7xx_hal_tim.c ****   htim->hdma[TIM_DMA_ID_UPDATE]->XferCpltCallback = TIM_DMAPeriodElapsedCplt;
 884              		.loc 1 558 13
 885 0042 FB68     		ldr	r3, [r7, #12]
 886 0044 1B6A     		ldr	r3, [r3, #32]
 887              		.loc 1 558 51
 888 0046 384A     		ldr	r2, .L50
 889 0048 DA63     		str	r2, [r3, #60]
 559:Drivers/STM32H7xx_HAL_Driver/Src/stm32h7xx_hal_tim.c ****   htim->hdma[TIM_DMA_ID_UPDATE]->XferHalfCpltCallback = TIM_DMAPeriodElapsedHalfCplt;
 890              		.loc 1 559 13
 891 004a FB68     		ldr	r3, [r7, #12]
 892 004c 1B6A     		ldr	r3, [r3, #32]
 893              		.loc 1 559 55
 894 004e 374A     		ldr	r2, .L50+4
 895 0050 1A64     		str	r2, [r3, #64]
 560:Drivers/STM32H7xx_HAL_Driver/Src/stm32h7xx_hal_tim.c **** 
 561:Drivers/STM32H7xx_HAL_Driver/Src/stm32h7xx_hal_tim.c ****   /* Set the DMA error callback */
 562:Drivers/STM32H7xx_HAL_Driver/Src/stm32h7xx_hal_tim.c ****   htim->hdma[TIM_DMA_ID_UPDATE]->XferErrorCallback = TIM_DMAError ;
 896              		.loc 1 562 13
 897 0052 FB68     		ldr	r3, [r7, #12]
 898 0054 1B6A     		ldr	r3, [r3, #32]
 899              		.loc 1 562 52
 900 0056 364A     		ldr	r2, .L50+8
 901 0058 DA64     		str	r2, [r3, #76]
 563:Drivers/STM32H7xx_HAL_Driver/Src/stm32h7xx_hal_tim.c **** 
 564:Drivers/STM32H7xx_HAL_Driver/Src/stm32h7xx_hal_tim.c ****   /* Enable the DMA stream */
 565:Drivers/STM32H7xx_HAL_Driver/Src/stm32h7xx_hal_tim.c ****   if (HAL_DMA_Start_IT(htim->hdma[TIM_DMA_ID_UPDATE], (uint32_t)pData, (uint32_t)&htim->Instance->A
 902              		.loc 1 565 7
 903 005a FB68     		ldr	r3, [r7, #12]
 904 005c 186A     		ldr	r0, [r3, #32]
 905 005e B968     		ldr	r1, [r7, #8]
 906              		.loc 1 565 87
 907 0060 FB68     		ldr	r3, [r7, #12]
 908 0062 1B68     		ldr	r3, [r3]
 909              		.loc 1 565 82
 910 0064 2C33     		adds	r3, r3, #44
 911              		.loc 1 565 7
 912 0066 1A46     		mov	r2, r3
 913 0068 FB88     		ldrh	r3, [r7, #6]
 914 006a FFF7FEFF 		bl	HAL_DMA_Start_IT
 915 006e 0346     		mov	r3, r0
 916              		.loc 1 565 6 discriminator 1
 917 0070 002B     		cmp	r3, #0
 918 0072 04D0     		beq	.L43
 919 0074 01E0     		b	.L48
 920              	.L39:
 554:Drivers/STM32H7xx_HAL_Driver/Src/stm32h7xx_hal_tim.c ****   }
 921              		.loc 1 554 12
 922 0076 0123     		movs	r3, #1
 923 0078 52E0     		b	.L38
 924              	.L48:
 566:Drivers/STM32H7xx_HAL_Driver/Src/stm32h7xx_hal_tim.c ****                        Length) != HAL_OK)
 567:Drivers/STM32H7xx_HAL_Driver/Src/stm32h7xx_hal_tim.c ****   {
 568:Drivers/STM32H7xx_HAL_Driver/Src/stm32h7xx_hal_tim.c ****     /* Return error status */
 569:Drivers/STM32H7xx_HAL_Driver/Src/stm32h7xx_hal_tim.c ****     return HAL_ERROR;
 925              		.loc 1 569 12
ARM GAS  C:\Users\TGSPOC~1\AppData\Local\Temp\cchOEqPT.s 			page 27


 926 007a 0123     		movs	r3, #1
 927 007c 50E0     		b	.L38
 928              	.L43:
 570:Drivers/STM32H7xx_HAL_Driver/Src/stm32h7xx_hal_tim.c ****   }
 571:Drivers/STM32H7xx_HAL_Driver/Src/stm32h7xx_hal_tim.c **** 
 572:Drivers/STM32H7xx_HAL_Driver/Src/stm32h7xx_hal_tim.c ****   /* Enable the TIM Update DMA request */
 573:Drivers/STM32H7xx_HAL_Driver/Src/stm32h7xx_hal_tim.c ****   __HAL_TIM_ENABLE_DMA(htim, TIM_DMA_UPDATE);
 929              		.loc 1 573 3
 930 007e FB68     		ldr	r3, [r7, #12]
 931 0080 1B68     		ldr	r3, [r3]
 932 0082 DA68     		ldr	r2, [r3, #12]
 933 0084 FB68     		ldr	r3, [r7, #12]
 934 0086 1B68     		ldr	r3, [r3]
 935 0088 42F48072 		orr	r2, r2, #256
 936 008c DA60     		str	r2, [r3, #12]
 574:Drivers/STM32H7xx_HAL_Driver/Src/stm32h7xx_hal_tim.c **** 
 575:Drivers/STM32H7xx_HAL_Driver/Src/stm32h7xx_hal_tim.c ****   /* Enable the Peripheral, except in trigger mode where enable is automatically done with trigger 
 576:Drivers/STM32H7xx_HAL_Driver/Src/stm32h7xx_hal_tim.c ****   if (IS_TIM_SLAVE_INSTANCE(htim->Instance))
 937              		.loc 1 576 7
 938 008e FB68     		ldr	r3, [r7, #12]
 939 0090 1B68     		ldr	r3, [r3]
 940              		.loc 1 576 6
 941 0092 284A     		ldr	r2, .L50+12
 942 0094 9342     		cmp	r3, r2
 943 0096 22D0     		beq	.L44
 944              		.loc 1 576 7 discriminator 1
 945 0098 FB68     		ldr	r3, [r7, #12]
 946 009a 1B68     		ldr	r3, [r3]
 947 009c B3F1804F 		cmp	r3, #1073741824
 948 00a0 1DD0     		beq	.L44
 949              		.loc 1 576 7 is_stmt 0 discriminator 2
 950 00a2 FB68     		ldr	r3, [r7, #12]
 951 00a4 1B68     		ldr	r3, [r3]
 952 00a6 244A     		ldr	r2, .L50+16
 953 00a8 9342     		cmp	r3, r2
 954 00aa 18D0     		beq	.L44
 955              		.loc 1 576 7 discriminator 3
 956 00ac FB68     		ldr	r3, [r7, #12]
 957 00ae 1B68     		ldr	r3, [r3]
 958 00b0 224A     		ldr	r2, .L50+20
 959 00b2 9342     		cmp	r3, r2
 960 00b4 13D0     		beq	.L44
 961              		.loc 1 576 7 discriminator 4
 962 00b6 FB68     		ldr	r3, [r7, #12]
 963 00b8 1B68     		ldr	r3, [r3]
 964 00ba 214A     		ldr	r2, .L50+24
 965 00bc 9342     		cmp	r3, r2
 966 00be 0ED0     		beq	.L44
 967              		.loc 1 576 7 discriminator 5
 968 00c0 FB68     		ldr	r3, [r7, #12]
 969 00c2 1B68     		ldr	r3, [r3]
 970 00c4 1F4A     		ldr	r2, .L50+28
 971 00c6 9342     		cmp	r3, r2
 972 00c8 09D0     		beq	.L44
 973              		.loc 1 576 7 discriminator 6
 974 00ca FB68     		ldr	r3, [r7, #12]
 975 00cc 1B68     		ldr	r3, [r3]
ARM GAS  C:\Users\TGSPOC~1\AppData\Local\Temp\cchOEqPT.s 			page 28


 976 00ce 1E4A     		ldr	r2, .L50+32
 977 00d0 9342     		cmp	r3, r2
 978 00d2 04D0     		beq	.L44
 979              		.loc 1 576 7 discriminator 7
 980 00d4 FB68     		ldr	r3, [r7, #12]
 981 00d6 1B68     		ldr	r3, [r3]
 982 00d8 1C4A     		ldr	r2, .L50+36
 983 00da 9342     		cmp	r3, r2
 984 00dc 15D1     		bne	.L45
 985              	.L44:
 577:Drivers/STM32H7xx_HAL_Driver/Src/stm32h7xx_hal_tim.c ****   {
 578:Drivers/STM32H7xx_HAL_Driver/Src/stm32h7xx_hal_tim.c ****     tmpsmcr = htim->Instance->SMCR & TIM_SMCR_SMS;
 986              		.loc 1 578 19 is_stmt 1
 987 00de FB68     		ldr	r3, [r7, #12]
 988 00e0 1B68     		ldr	r3, [r3]
 989              		.loc 1 578 29
 990 00e2 9A68     		ldr	r2, [r3, #8]
 991              		.loc 1 578 13
 992 00e4 1A4B     		ldr	r3, .L50+40
 993 00e6 1340     		ands	r3, r3, r2
 994 00e8 7B61     		str	r3, [r7, #20]
 579:Drivers/STM32H7xx_HAL_Driver/Src/stm32h7xx_hal_tim.c ****     if (!IS_TIM_SLAVEMODE_TRIGGER_ENABLED(tmpsmcr))
 995              		.loc 1 579 8
 996 00ea 7B69     		ldr	r3, [r7, #20]
 997 00ec 062B     		cmp	r3, #6
 998 00ee 15D0     		beq	.L49
 999              		.loc 1 579 9 discriminator 1
 1000 00f0 7B69     		ldr	r3, [r7, #20]
 1001 00f2 B3F5803F 		cmp	r3, #65536
 1002 00f6 11D0     		beq	.L49
 580:Drivers/STM32H7xx_HAL_Driver/Src/stm32h7xx_hal_tim.c ****     {
 581:Drivers/STM32H7xx_HAL_Driver/Src/stm32h7xx_hal_tim.c ****       __HAL_TIM_ENABLE(htim);
 1003              		.loc 1 581 7
 1004 00f8 FB68     		ldr	r3, [r7, #12]
 1005 00fa 1B68     		ldr	r3, [r3]
 1006 00fc 1A68     		ldr	r2, [r3]
 1007 00fe FB68     		ldr	r3, [r7, #12]
 1008 0100 1B68     		ldr	r3, [r3]
 1009 0102 42F00102 		orr	r2, r2, #1
 1010 0106 1A60     		str	r2, [r3]
 579:Drivers/STM32H7xx_HAL_Driver/Src/stm32h7xx_hal_tim.c ****     if (!IS_TIM_SLAVEMODE_TRIGGER_ENABLED(tmpsmcr))
 1011              		.loc 1 579 8
 1012 0108 08E0     		b	.L49
 1013              	.L45:
 582:Drivers/STM32H7xx_HAL_Driver/Src/stm32h7xx_hal_tim.c ****     }
 583:Drivers/STM32H7xx_HAL_Driver/Src/stm32h7xx_hal_tim.c ****   }
 584:Drivers/STM32H7xx_HAL_Driver/Src/stm32h7xx_hal_tim.c ****   else
 585:Drivers/STM32H7xx_HAL_Driver/Src/stm32h7xx_hal_tim.c ****   {
 586:Drivers/STM32H7xx_HAL_Driver/Src/stm32h7xx_hal_tim.c ****     __HAL_TIM_ENABLE(htim);
 1014              		.loc 1 586 5
 1015 010a FB68     		ldr	r3, [r7, #12]
 1016 010c 1B68     		ldr	r3, [r3]
 1017 010e 1A68     		ldr	r2, [r3]
 1018 0110 FB68     		ldr	r3, [r7, #12]
 1019 0112 1B68     		ldr	r3, [r3]
 1020 0114 42F00102 		orr	r2, r2, #1
 1021 0118 1A60     		str	r2, [r3]
ARM GAS  C:\Users\TGSPOC~1\AppData\Local\Temp\cchOEqPT.s 			page 29


 1022 011a 00E0     		b	.L47
 1023              	.L49:
 579:Drivers/STM32H7xx_HAL_Driver/Src/stm32h7xx_hal_tim.c ****     {
 1024              		.loc 1 579 8
 1025 011c 00BF     		nop
 1026              	.L47:
 587:Drivers/STM32H7xx_HAL_Driver/Src/stm32h7xx_hal_tim.c ****   }
 588:Drivers/STM32H7xx_HAL_Driver/Src/stm32h7xx_hal_tim.c **** 
 589:Drivers/STM32H7xx_HAL_Driver/Src/stm32h7xx_hal_tim.c ****   /* Return function status */
 590:Drivers/STM32H7xx_HAL_Driver/Src/stm32h7xx_hal_tim.c ****   return HAL_OK;
 1027              		.loc 1 590 10
 1028 011e 0023     		movs	r3, #0
 1029              	.L38:
 591:Drivers/STM32H7xx_HAL_Driver/Src/stm32h7xx_hal_tim.c **** }
 1030              		.loc 1 591 1
 1031 0120 1846     		mov	r0, r3
 1032 0122 1837     		adds	r7, r7, #24
 1033              	.LCFI49:
 1034              		.cfi_def_cfa_offset 8
 1035 0124 BD46     		mov	sp, r7
 1036              	.LCFI50:
 1037              		.cfi_def_cfa_register 13
 1038              		@ sp needed
 1039 0126 80BD     		pop	{r7, pc}
 1040              	.L51:
 1041              		.align	2
 1042              	.L50:
 1043 0128 00000000 		.word	TIM_DMAPeriodElapsedCplt
 1044 012c 00000000 		.word	TIM_DMAPeriodElapsedHalfCplt
 1045 0130 00000000 		.word	TIM_DMAError
 1046 0134 00000140 		.word	1073807360
 1047 0138 00040040 		.word	1073742848
 1048 013c 00080040 		.word	1073743872
 1049 0140 000C0040 		.word	1073744896
 1050 0144 00040140 		.word	1073808384
 1051 0148 00180040 		.word	1073747968
 1052 014c 00400140 		.word	1073823744
 1053 0150 07000100 		.word	65543
 1054              		.cfi_endproc
 1055              	.LFE152:
 1057              		.section	.text.HAL_TIM_Base_Stop_DMA,"ax",%progbits
 1058              		.align	1
 1059              		.global	HAL_TIM_Base_Stop_DMA
 1060              		.syntax unified
 1061              		.thumb
 1062              		.thumb_func
 1064              	HAL_TIM_Base_Stop_DMA:
 1065              	.LFB153:
 592:Drivers/STM32H7xx_HAL_Driver/Src/stm32h7xx_hal_tim.c **** 
 593:Drivers/STM32H7xx_HAL_Driver/Src/stm32h7xx_hal_tim.c **** /**
 594:Drivers/STM32H7xx_HAL_Driver/Src/stm32h7xx_hal_tim.c ****   * @brief  Stops the TIM Base generation in DMA mode.
 595:Drivers/STM32H7xx_HAL_Driver/Src/stm32h7xx_hal_tim.c ****   * @param  htim TIM Base handle
 596:Drivers/STM32H7xx_HAL_Driver/Src/stm32h7xx_hal_tim.c ****   * @retval HAL status
 597:Drivers/STM32H7xx_HAL_Driver/Src/stm32h7xx_hal_tim.c ****   */
 598:Drivers/STM32H7xx_HAL_Driver/Src/stm32h7xx_hal_tim.c **** HAL_StatusTypeDef HAL_TIM_Base_Stop_DMA(TIM_HandleTypeDef *htim)
 599:Drivers/STM32H7xx_HAL_Driver/Src/stm32h7xx_hal_tim.c **** {
 1066              		.loc 1 599 1
ARM GAS  C:\Users\TGSPOC~1\AppData\Local\Temp\cchOEqPT.s 			page 30


 1067              		.cfi_startproc
 1068              		@ args = 0, pretend = 0, frame = 8
 1069              		@ frame_needed = 1, uses_anonymous_args = 0
 1070 0000 80B5     		push	{r7, lr}
 1071              	.LCFI51:
 1072              		.cfi_def_cfa_offset 8
 1073              		.cfi_offset 7, -8
 1074              		.cfi_offset 14, -4
 1075 0002 82B0     		sub	sp, sp, #8
 1076              	.LCFI52:
 1077              		.cfi_def_cfa_offset 16
 1078 0004 00AF     		add	r7, sp, #0
 1079              	.LCFI53:
 1080              		.cfi_def_cfa_register 7
 1081 0006 7860     		str	r0, [r7, #4]
 600:Drivers/STM32H7xx_HAL_Driver/Src/stm32h7xx_hal_tim.c ****   /* Check the parameters */
 601:Drivers/STM32H7xx_HAL_Driver/Src/stm32h7xx_hal_tim.c ****   assert_param(IS_TIM_DMA_INSTANCE(htim->Instance));
 602:Drivers/STM32H7xx_HAL_Driver/Src/stm32h7xx_hal_tim.c **** 
 603:Drivers/STM32H7xx_HAL_Driver/Src/stm32h7xx_hal_tim.c ****   /* Disable the TIM Update DMA request */
 604:Drivers/STM32H7xx_HAL_Driver/Src/stm32h7xx_hal_tim.c ****   __HAL_TIM_DISABLE_DMA(htim, TIM_DMA_UPDATE);
 1082              		.loc 1 604 3
 1083 0008 7B68     		ldr	r3, [r7, #4]
 1084 000a 1B68     		ldr	r3, [r3]
 1085 000c DA68     		ldr	r2, [r3, #12]
 1086 000e 7B68     		ldr	r3, [r7, #4]
 1087 0010 1B68     		ldr	r3, [r3]
 1088 0012 22F48072 		bic	r2, r2, #256
 1089 0016 DA60     		str	r2, [r3, #12]
 605:Drivers/STM32H7xx_HAL_Driver/Src/stm32h7xx_hal_tim.c **** 
 606:Drivers/STM32H7xx_HAL_Driver/Src/stm32h7xx_hal_tim.c ****   (void)HAL_DMA_Abort_IT(htim->hdma[TIM_DMA_ID_UPDATE]);
 1090              		.loc 1 606 9
 1091 0018 7B68     		ldr	r3, [r7, #4]
 1092 001a 1B6A     		ldr	r3, [r3, #32]
 1093 001c 1846     		mov	r0, r3
 1094 001e FFF7FEFF 		bl	HAL_DMA_Abort_IT
 607:Drivers/STM32H7xx_HAL_Driver/Src/stm32h7xx_hal_tim.c **** 
 608:Drivers/STM32H7xx_HAL_Driver/Src/stm32h7xx_hal_tim.c ****   /* Disable the Peripheral */
 609:Drivers/STM32H7xx_HAL_Driver/Src/stm32h7xx_hal_tim.c ****   __HAL_TIM_DISABLE(htim);
 1095              		.loc 1 609 3
 1096 0022 7B68     		ldr	r3, [r7, #4]
 1097 0024 1B68     		ldr	r3, [r3]
 1098 0026 1A6A     		ldr	r2, [r3, #32]
 1099 0028 41F21113 		movw	r3, #4369
 1100 002c 1340     		ands	r3, r3, r2
 1101 002e 002B     		cmp	r3, #0
 1102 0030 0FD1     		bne	.L53
 1103              		.loc 1 609 3 is_stmt 0 discriminator 1
 1104 0032 7B68     		ldr	r3, [r7, #4]
 1105 0034 1B68     		ldr	r3, [r3]
 1106 0036 1A6A     		ldr	r2, [r3, #32]
 1107 0038 40F24443 		movw	r3, #1092
 1108 003c 1340     		ands	r3, r3, r2
 1109 003e 002B     		cmp	r3, #0
 1110 0040 07D1     		bne	.L53
 1111              		.loc 1 609 3 discriminator 2
 1112 0042 7B68     		ldr	r3, [r7, #4]
 1113 0044 1B68     		ldr	r3, [r3]
ARM GAS  C:\Users\TGSPOC~1\AppData\Local\Temp\cchOEqPT.s 			page 31


 1114 0046 1A68     		ldr	r2, [r3]
 1115 0048 7B68     		ldr	r3, [r7, #4]
 1116 004a 1B68     		ldr	r3, [r3]
 1117 004c 22F00102 		bic	r2, r2, #1
 1118 0050 1A60     		str	r2, [r3]
 1119              	.L53:
 610:Drivers/STM32H7xx_HAL_Driver/Src/stm32h7xx_hal_tim.c **** 
 611:Drivers/STM32H7xx_HAL_Driver/Src/stm32h7xx_hal_tim.c ****   /* Set the TIM state */
 612:Drivers/STM32H7xx_HAL_Driver/Src/stm32h7xx_hal_tim.c ****   htim->State = HAL_TIM_STATE_READY;
 1120              		.loc 1 612 15 is_stmt 1
 1121 0052 7B68     		ldr	r3, [r7, #4]
 1122 0054 0122     		movs	r2, #1
 1123 0056 83F83D20 		strb	r2, [r3, #61]
 613:Drivers/STM32H7xx_HAL_Driver/Src/stm32h7xx_hal_tim.c **** 
 614:Drivers/STM32H7xx_HAL_Driver/Src/stm32h7xx_hal_tim.c ****   /* Return function status */
 615:Drivers/STM32H7xx_HAL_Driver/Src/stm32h7xx_hal_tim.c ****   return HAL_OK;
 1124              		.loc 1 615 10
 1125 005a 0023     		movs	r3, #0
 616:Drivers/STM32H7xx_HAL_Driver/Src/stm32h7xx_hal_tim.c **** }
 1126              		.loc 1 616 1
 1127 005c 1846     		mov	r0, r3
 1128 005e 0837     		adds	r7, r7, #8
 1129              	.LCFI54:
 1130              		.cfi_def_cfa_offset 8
 1131 0060 BD46     		mov	sp, r7
 1132              	.LCFI55:
 1133              		.cfi_def_cfa_register 13
 1134              		@ sp needed
 1135 0062 80BD     		pop	{r7, pc}
 1136              		.cfi_endproc
 1137              	.LFE153:
 1139              		.section	.text.HAL_TIM_OC_Init,"ax",%progbits
 1140              		.align	1
 1141              		.global	HAL_TIM_OC_Init
 1142              		.syntax unified
 1143              		.thumb
 1144              		.thumb_func
 1146              	HAL_TIM_OC_Init:
 1147              	.LFB154:
 617:Drivers/STM32H7xx_HAL_Driver/Src/stm32h7xx_hal_tim.c **** 
 618:Drivers/STM32H7xx_HAL_Driver/Src/stm32h7xx_hal_tim.c **** /**
 619:Drivers/STM32H7xx_HAL_Driver/Src/stm32h7xx_hal_tim.c ****   * @}
 620:Drivers/STM32H7xx_HAL_Driver/Src/stm32h7xx_hal_tim.c ****   */
 621:Drivers/STM32H7xx_HAL_Driver/Src/stm32h7xx_hal_tim.c **** 
 622:Drivers/STM32H7xx_HAL_Driver/Src/stm32h7xx_hal_tim.c **** /** @defgroup TIM_Exported_Functions_Group2 TIM Output Compare functions
 623:Drivers/STM32H7xx_HAL_Driver/Src/stm32h7xx_hal_tim.c ****   *  @brief    TIM Output Compare functions
 624:Drivers/STM32H7xx_HAL_Driver/Src/stm32h7xx_hal_tim.c ****   *
 625:Drivers/STM32H7xx_HAL_Driver/Src/stm32h7xx_hal_tim.c **** @verbatim
 626:Drivers/STM32H7xx_HAL_Driver/Src/stm32h7xx_hal_tim.c ****   ==============================================================================
 627:Drivers/STM32H7xx_HAL_Driver/Src/stm32h7xx_hal_tim.c ****                   ##### TIM Output Compare functions #####
 628:Drivers/STM32H7xx_HAL_Driver/Src/stm32h7xx_hal_tim.c ****   ==============================================================================
 629:Drivers/STM32H7xx_HAL_Driver/Src/stm32h7xx_hal_tim.c ****   [..]
 630:Drivers/STM32H7xx_HAL_Driver/Src/stm32h7xx_hal_tim.c ****     This section provides functions allowing to:
 631:Drivers/STM32H7xx_HAL_Driver/Src/stm32h7xx_hal_tim.c ****     (+) Initialize and configure the TIM Output Compare.
 632:Drivers/STM32H7xx_HAL_Driver/Src/stm32h7xx_hal_tim.c ****     (+) De-initialize the TIM Output Compare.
 633:Drivers/STM32H7xx_HAL_Driver/Src/stm32h7xx_hal_tim.c ****     (+) Start the TIM Output Compare.
 634:Drivers/STM32H7xx_HAL_Driver/Src/stm32h7xx_hal_tim.c ****     (+) Stop the TIM Output Compare.
ARM GAS  C:\Users\TGSPOC~1\AppData\Local\Temp\cchOEqPT.s 			page 32


 635:Drivers/STM32H7xx_HAL_Driver/Src/stm32h7xx_hal_tim.c ****     (+) Start the TIM Output Compare and enable interrupt.
 636:Drivers/STM32H7xx_HAL_Driver/Src/stm32h7xx_hal_tim.c ****     (+) Stop the TIM Output Compare and disable interrupt.
 637:Drivers/STM32H7xx_HAL_Driver/Src/stm32h7xx_hal_tim.c ****     (+) Start the TIM Output Compare and enable DMA transfer.
 638:Drivers/STM32H7xx_HAL_Driver/Src/stm32h7xx_hal_tim.c ****     (+) Stop the TIM Output Compare and disable DMA transfer.
 639:Drivers/STM32H7xx_HAL_Driver/Src/stm32h7xx_hal_tim.c **** 
 640:Drivers/STM32H7xx_HAL_Driver/Src/stm32h7xx_hal_tim.c **** @endverbatim
 641:Drivers/STM32H7xx_HAL_Driver/Src/stm32h7xx_hal_tim.c ****   * @{
 642:Drivers/STM32H7xx_HAL_Driver/Src/stm32h7xx_hal_tim.c ****   */
 643:Drivers/STM32H7xx_HAL_Driver/Src/stm32h7xx_hal_tim.c **** /**
 644:Drivers/STM32H7xx_HAL_Driver/Src/stm32h7xx_hal_tim.c ****   * @brief  Initializes the TIM Output Compare according to the specified
 645:Drivers/STM32H7xx_HAL_Driver/Src/stm32h7xx_hal_tim.c ****   *         parameters in the TIM_HandleTypeDef and initializes the associated handle.
 646:Drivers/STM32H7xx_HAL_Driver/Src/stm32h7xx_hal_tim.c ****   * @note   Switching from Center Aligned counter mode to Edge counter mode (or reverse)
 647:Drivers/STM32H7xx_HAL_Driver/Src/stm32h7xx_hal_tim.c ****   *         requires a timer reset to avoid unexpected direction
 648:Drivers/STM32H7xx_HAL_Driver/Src/stm32h7xx_hal_tim.c ****   *         due to DIR bit readonly in center aligned mode.
 649:Drivers/STM32H7xx_HAL_Driver/Src/stm32h7xx_hal_tim.c ****   *         Ex: call @ref HAL_TIM_OC_DeInit() before HAL_TIM_OC_Init()
 650:Drivers/STM32H7xx_HAL_Driver/Src/stm32h7xx_hal_tim.c ****   * @param  htim TIM Output Compare handle
 651:Drivers/STM32H7xx_HAL_Driver/Src/stm32h7xx_hal_tim.c ****   * @retval HAL status
 652:Drivers/STM32H7xx_HAL_Driver/Src/stm32h7xx_hal_tim.c ****   */
 653:Drivers/STM32H7xx_HAL_Driver/Src/stm32h7xx_hal_tim.c **** HAL_StatusTypeDef HAL_TIM_OC_Init(TIM_HandleTypeDef *htim)
 654:Drivers/STM32H7xx_HAL_Driver/Src/stm32h7xx_hal_tim.c **** {
 1148              		.loc 1 654 1
 1149              		.cfi_startproc
 1150              		@ args = 0, pretend = 0, frame = 8
 1151              		@ frame_needed = 1, uses_anonymous_args = 0
 1152 0000 80B5     		push	{r7, lr}
 1153              	.LCFI56:
 1154              		.cfi_def_cfa_offset 8
 1155              		.cfi_offset 7, -8
 1156              		.cfi_offset 14, -4
 1157 0002 82B0     		sub	sp, sp, #8
 1158              	.LCFI57:
 1159              		.cfi_def_cfa_offset 16
 1160 0004 00AF     		add	r7, sp, #0
 1161              	.LCFI58:
 1162              		.cfi_def_cfa_register 7
 1163 0006 7860     		str	r0, [r7, #4]
 655:Drivers/STM32H7xx_HAL_Driver/Src/stm32h7xx_hal_tim.c ****   /* Check the TIM handle allocation */
 656:Drivers/STM32H7xx_HAL_Driver/Src/stm32h7xx_hal_tim.c ****   if (htim == NULL)
 1164              		.loc 1 656 6
 1165 0008 7B68     		ldr	r3, [r7, #4]
 1166 000a 002B     		cmp	r3, #0
 1167 000c 01D1     		bne	.L56
 657:Drivers/STM32H7xx_HAL_Driver/Src/stm32h7xx_hal_tim.c ****   {
 658:Drivers/STM32H7xx_HAL_Driver/Src/stm32h7xx_hal_tim.c ****     return HAL_ERROR;
 1168              		.loc 1 658 12
 1169 000e 0123     		movs	r3, #1
 1170 0010 49E0     		b	.L57
 1171              	.L56:
 659:Drivers/STM32H7xx_HAL_Driver/Src/stm32h7xx_hal_tim.c ****   }
 660:Drivers/STM32H7xx_HAL_Driver/Src/stm32h7xx_hal_tim.c **** 
 661:Drivers/STM32H7xx_HAL_Driver/Src/stm32h7xx_hal_tim.c ****   /* Check the parameters */
 662:Drivers/STM32H7xx_HAL_Driver/Src/stm32h7xx_hal_tim.c ****   assert_param(IS_TIM_INSTANCE(htim->Instance));
 663:Drivers/STM32H7xx_HAL_Driver/Src/stm32h7xx_hal_tim.c ****   assert_param(IS_TIM_COUNTER_MODE(htim->Init.CounterMode));
 664:Drivers/STM32H7xx_HAL_Driver/Src/stm32h7xx_hal_tim.c ****   assert_param(IS_TIM_CLOCKDIVISION_DIV(htim->Init.ClockDivision));
 665:Drivers/STM32H7xx_HAL_Driver/Src/stm32h7xx_hal_tim.c ****   assert_param(IS_TIM_PERIOD(htim, htim->Init.Period));
 666:Drivers/STM32H7xx_HAL_Driver/Src/stm32h7xx_hal_tim.c ****   assert_param(IS_TIM_AUTORELOAD_PRELOAD(htim->Init.AutoReloadPreload));
 667:Drivers/STM32H7xx_HAL_Driver/Src/stm32h7xx_hal_tim.c **** 
ARM GAS  C:\Users\TGSPOC~1\AppData\Local\Temp\cchOEqPT.s 			page 33


 668:Drivers/STM32H7xx_HAL_Driver/Src/stm32h7xx_hal_tim.c ****   if (htim->State == HAL_TIM_STATE_RESET)
 1172              		.loc 1 668 11
 1173 0012 7B68     		ldr	r3, [r7, #4]
 1174 0014 93F83D30 		ldrb	r3, [r3, #61]
 1175 0018 DBB2     		uxtb	r3, r3
 1176              		.loc 1 668 6
 1177 001a 002B     		cmp	r3, #0
 1178 001c 06D1     		bne	.L58
 669:Drivers/STM32H7xx_HAL_Driver/Src/stm32h7xx_hal_tim.c ****   {
 670:Drivers/STM32H7xx_HAL_Driver/Src/stm32h7xx_hal_tim.c ****     /* Allocate lock resource and initialize it */
 671:Drivers/STM32H7xx_HAL_Driver/Src/stm32h7xx_hal_tim.c ****     htim->Lock = HAL_UNLOCKED;
 1179              		.loc 1 671 16
 1180 001e 7B68     		ldr	r3, [r7, #4]
 1181 0020 0022     		movs	r2, #0
 1182 0022 83F83C20 		strb	r2, [r3, #60]
 672:Drivers/STM32H7xx_HAL_Driver/Src/stm32h7xx_hal_tim.c **** 
 673:Drivers/STM32H7xx_HAL_Driver/Src/stm32h7xx_hal_tim.c **** #if (USE_HAL_TIM_REGISTER_CALLBACKS == 1)
 674:Drivers/STM32H7xx_HAL_Driver/Src/stm32h7xx_hal_tim.c ****     /* Reset interrupt callbacks to legacy weak callbacks */
 675:Drivers/STM32H7xx_HAL_Driver/Src/stm32h7xx_hal_tim.c ****     TIM_ResetCallback(htim);
 676:Drivers/STM32H7xx_HAL_Driver/Src/stm32h7xx_hal_tim.c **** 
 677:Drivers/STM32H7xx_HAL_Driver/Src/stm32h7xx_hal_tim.c ****     if (htim->OC_MspInitCallback == NULL)
 678:Drivers/STM32H7xx_HAL_Driver/Src/stm32h7xx_hal_tim.c ****     {
 679:Drivers/STM32H7xx_HAL_Driver/Src/stm32h7xx_hal_tim.c ****       htim->OC_MspInitCallback = HAL_TIM_OC_MspInit;
 680:Drivers/STM32H7xx_HAL_Driver/Src/stm32h7xx_hal_tim.c ****     }
 681:Drivers/STM32H7xx_HAL_Driver/Src/stm32h7xx_hal_tim.c ****     /* Init the low level hardware : GPIO, CLOCK, NVIC */
 682:Drivers/STM32H7xx_HAL_Driver/Src/stm32h7xx_hal_tim.c ****     htim->OC_MspInitCallback(htim);
 683:Drivers/STM32H7xx_HAL_Driver/Src/stm32h7xx_hal_tim.c **** #else
 684:Drivers/STM32H7xx_HAL_Driver/Src/stm32h7xx_hal_tim.c ****     /* Init the low level hardware : GPIO, CLOCK, NVIC and DMA */
 685:Drivers/STM32H7xx_HAL_Driver/Src/stm32h7xx_hal_tim.c ****     HAL_TIM_OC_MspInit(htim);
 1183              		.loc 1 685 5
 1184 0026 7868     		ldr	r0, [r7, #4]
 1185 0028 FFF7FEFF 		bl	HAL_TIM_OC_MspInit
 1186              	.L58:
 686:Drivers/STM32H7xx_HAL_Driver/Src/stm32h7xx_hal_tim.c **** #endif /* USE_HAL_TIM_REGISTER_CALLBACKS */
 687:Drivers/STM32H7xx_HAL_Driver/Src/stm32h7xx_hal_tim.c ****   }
 688:Drivers/STM32H7xx_HAL_Driver/Src/stm32h7xx_hal_tim.c **** 
 689:Drivers/STM32H7xx_HAL_Driver/Src/stm32h7xx_hal_tim.c ****   /* Set the TIM state */
 690:Drivers/STM32H7xx_HAL_Driver/Src/stm32h7xx_hal_tim.c ****   htim->State = HAL_TIM_STATE_BUSY;
 1187              		.loc 1 690 15
 1188 002c 7B68     		ldr	r3, [r7, #4]
 1189 002e 0222     		movs	r2, #2
 1190 0030 83F83D20 		strb	r2, [r3, #61]
 691:Drivers/STM32H7xx_HAL_Driver/Src/stm32h7xx_hal_tim.c **** 
 692:Drivers/STM32H7xx_HAL_Driver/Src/stm32h7xx_hal_tim.c ****   /* Init the base time for the Output Compare */
 693:Drivers/STM32H7xx_HAL_Driver/Src/stm32h7xx_hal_tim.c ****   TIM_Base_SetConfig(htim->Instance,  &htim->Init);
 1191              		.loc 1 693 3
 1192 0034 7B68     		ldr	r3, [r7, #4]
 1193 0036 1A68     		ldr	r2, [r3]
 1194              		.loc 1 693 39
 1195 0038 7B68     		ldr	r3, [r7, #4]
 1196 003a 0433     		adds	r3, r3, #4
 1197              		.loc 1 693 3
 1198 003c 1946     		mov	r1, r3
 1199 003e 1046     		mov	r0, r2
 1200 0040 FFF7FEFF 		bl	TIM_Base_SetConfig
 694:Drivers/STM32H7xx_HAL_Driver/Src/stm32h7xx_hal_tim.c **** 
 695:Drivers/STM32H7xx_HAL_Driver/Src/stm32h7xx_hal_tim.c ****   /* Initialize the DMA burst operation state */
ARM GAS  C:\Users\TGSPOC~1\AppData\Local\Temp\cchOEqPT.s 			page 34


 696:Drivers/STM32H7xx_HAL_Driver/Src/stm32h7xx_hal_tim.c ****   htim->DMABurstState = HAL_DMA_BURST_STATE_READY;
 1201              		.loc 1 696 23
 1202 0044 7B68     		ldr	r3, [r7, #4]
 1203 0046 0122     		movs	r2, #1
 1204 0048 83F84820 		strb	r2, [r3, #72]
 697:Drivers/STM32H7xx_HAL_Driver/Src/stm32h7xx_hal_tim.c **** 
 698:Drivers/STM32H7xx_HAL_Driver/Src/stm32h7xx_hal_tim.c ****   /* Initialize the TIM channels state */
 699:Drivers/STM32H7xx_HAL_Driver/Src/stm32h7xx_hal_tim.c ****   TIM_CHANNEL_STATE_SET_ALL(htim, HAL_TIM_CHANNEL_STATE_READY);
 1205              		.loc 1 699 3
 1206 004c 7B68     		ldr	r3, [r7, #4]
 1207 004e 0122     		movs	r2, #1
 1208 0050 83F83E20 		strb	r2, [r3, #62]
 1209 0054 7B68     		ldr	r3, [r7, #4]
 1210 0056 0122     		movs	r2, #1
 1211 0058 83F83F20 		strb	r2, [r3, #63]
 1212 005c 7B68     		ldr	r3, [r7, #4]
 1213 005e 0122     		movs	r2, #1
 1214 0060 83F84020 		strb	r2, [r3, #64]
 1215 0064 7B68     		ldr	r3, [r7, #4]
 1216 0066 0122     		movs	r2, #1
 1217 0068 83F84120 		strb	r2, [r3, #65]
 1218 006c 7B68     		ldr	r3, [r7, #4]
 1219 006e 0122     		movs	r2, #1
 1220 0070 83F84220 		strb	r2, [r3, #66]
 1221 0074 7B68     		ldr	r3, [r7, #4]
 1222 0076 0122     		movs	r2, #1
 1223 0078 83F84320 		strb	r2, [r3, #67]
 700:Drivers/STM32H7xx_HAL_Driver/Src/stm32h7xx_hal_tim.c ****   TIM_CHANNEL_N_STATE_SET_ALL(htim, HAL_TIM_CHANNEL_STATE_READY);
 1224              		.loc 1 700 3
 1225 007c 7B68     		ldr	r3, [r7, #4]
 1226 007e 0122     		movs	r2, #1
 1227 0080 83F84420 		strb	r2, [r3, #68]
 1228 0084 7B68     		ldr	r3, [r7, #4]
 1229 0086 0122     		movs	r2, #1
 1230 0088 83F84520 		strb	r2, [r3, #69]
 1231 008c 7B68     		ldr	r3, [r7, #4]
 1232 008e 0122     		movs	r2, #1
 1233 0090 83F84620 		strb	r2, [r3, #70]
 1234 0094 7B68     		ldr	r3, [r7, #4]
 1235 0096 0122     		movs	r2, #1
 1236 0098 83F84720 		strb	r2, [r3, #71]
 701:Drivers/STM32H7xx_HAL_Driver/Src/stm32h7xx_hal_tim.c **** 
 702:Drivers/STM32H7xx_HAL_Driver/Src/stm32h7xx_hal_tim.c ****   /* Initialize the TIM state*/
 703:Drivers/STM32H7xx_HAL_Driver/Src/stm32h7xx_hal_tim.c ****   htim->State = HAL_TIM_STATE_READY;
 1237              		.loc 1 703 15
 1238 009c 7B68     		ldr	r3, [r7, #4]
 1239 009e 0122     		movs	r2, #1
 1240 00a0 83F83D20 		strb	r2, [r3, #61]
 704:Drivers/STM32H7xx_HAL_Driver/Src/stm32h7xx_hal_tim.c **** 
 705:Drivers/STM32H7xx_HAL_Driver/Src/stm32h7xx_hal_tim.c ****   return HAL_OK;
 1241              		.loc 1 705 10
 1242 00a4 0023     		movs	r3, #0
 1243              	.L57:
 706:Drivers/STM32H7xx_HAL_Driver/Src/stm32h7xx_hal_tim.c **** }
 1244              		.loc 1 706 1
 1245 00a6 1846     		mov	r0, r3
 1246 00a8 0837     		adds	r7, r7, #8
ARM GAS  C:\Users\TGSPOC~1\AppData\Local\Temp\cchOEqPT.s 			page 35


 1247              	.LCFI59:
 1248              		.cfi_def_cfa_offset 8
 1249 00aa BD46     		mov	sp, r7
 1250              	.LCFI60:
 1251              		.cfi_def_cfa_register 13
 1252              		@ sp needed
 1253 00ac 80BD     		pop	{r7, pc}
 1254              		.cfi_endproc
 1255              	.LFE154:
 1257              		.section	.text.HAL_TIM_OC_DeInit,"ax",%progbits
 1258              		.align	1
 1259              		.global	HAL_TIM_OC_DeInit
 1260              		.syntax unified
 1261              		.thumb
 1262              		.thumb_func
 1264              	HAL_TIM_OC_DeInit:
 1265              	.LFB155:
 707:Drivers/STM32H7xx_HAL_Driver/Src/stm32h7xx_hal_tim.c **** 
 708:Drivers/STM32H7xx_HAL_Driver/Src/stm32h7xx_hal_tim.c **** /**
 709:Drivers/STM32H7xx_HAL_Driver/Src/stm32h7xx_hal_tim.c ****   * @brief  DeInitializes the TIM peripheral
 710:Drivers/STM32H7xx_HAL_Driver/Src/stm32h7xx_hal_tim.c ****   * @param  htim TIM Output Compare handle
 711:Drivers/STM32H7xx_HAL_Driver/Src/stm32h7xx_hal_tim.c ****   * @retval HAL status
 712:Drivers/STM32H7xx_HAL_Driver/Src/stm32h7xx_hal_tim.c ****   */
 713:Drivers/STM32H7xx_HAL_Driver/Src/stm32h7xx_hal_tim.c **** HAL_StatusTypeDef HAL_TIM_OC_DeInit(TIM_HandleTypeDef *htim)
 714:Drivers/STM32H7xx_HAL_Driver/Src/stm32h7xx_hal_tim.c **** {
 1266              		.loc 1 714 1
 1267              		.cfi_startproc
 1268              		@ args = 0, pretend = 0, frame = 8
 1269              		@ frame_needed = 1, uses_anonymous_args = 0
 1270 0000 80B5     		push	{r7, lr}
 1271              	.LCFI61:
 1272              		.cfi_def_cfa_offset 8
 1273              		.cfi_offset 7, -8
 1274              		.cfi_offset 14, -4
 1275 0002 82B0     		sub	sp, sp, #8
 1276              	.LCFI62:
 1277              		.cfi_def_cfa_offset 16
 1278 0004 00AF     		add	r7, sp, #0
 1279              	.LCFI63:
 1280              		.cfi_def_cfa_register 7
 1281 0006 7860     		str	r0, [r7, #4]
 715:Drivers/STM32H7xx_HAL_Driver/Src/stm32h7xx_hal_tim.c ****   /* Check the parameters */
 716:Drivers/STM32H7xx_HAL_Driver/Src/stm32h7xx_hal_tim.c ****   assert_param(IS_TIM_INSTANCE(htim->Instance));
 717:Drivers/STM32H7xx_HAL_Driver/Src/stm32h7xx_hal_tim.c **** 
 718:Drivers/STM32H7xx_HAL_Driver/Src/stm32h7xx_hal_tim.c ****   htim->State = HAL_TIM_STATE_BUSY;
 1282              		.loc 1 718 15
 1283 0008 7B68     		ldr	r3, [r7, #4]
 1284 000a 0222     		movs	r2, #2
 1285 000c 83F83D20 		strb	r2, [r3, #61]
 719:Drivers/STM32H7xx_HAL_Driver/Src/stm32h7xx_hal_tim.c **** 
 720:Drivers/STM32H7xx_HAL_Driver/Src/stm32h7xx_hal_tim.c ****   /* Disable the TIM Peripheral Clock */
 721:Drivers/STM32H7xx_HAL_Driver/Src/stm32h7xx_hal_tim.c ****   __HAL_TIM_DISABLE(htim);
 1286              		.loc 1 721 3
 1287 0010 7B68     		ldr	r3, [r7, #4]
 1288 0012 1B68     		ldr	r3, [r3]
 1289 0014 1A6A     		ldr	r2, [r3, #32]
 1290 0016 41F21113 		movw	r3, #4369
ARM GAS  C:\Users\TGSPOC~1\AppData\Local\Temp\cchOEqPT.s 			page 36


 1291 001a 1340     		ands	r3, r3, r2
 1292 001c 002B     		cmp	r3, #0
 1293 001e 0FD1     		bne	.L60
 1294              		.loc 1 721 3 is_stmt 0 discriminator 1
 1295 0020 7B68     		ldr	r3, [r7, #4]
 1296 0022 1B68     		ldr	r3, [r3]
 1297 0024 1A6A     		ldr	r2, [r3, #32]
 1298 0026 40F24443 		movw	r3, #1092
 1299 002a 1340     		ands	r3, r3, r2
 1300 002c 002B     		cmp	r3, #0
 1301 002e 07D1     		bne	.L60
 1302              		.loc 1 721 3 discriminator 2
 1303 0030 7B68     		ldr	r3, [r7, #4]
 1304 0032 1B68     		ldr	r3, [r3]
 1305 0034 1A68     		ldr	r2, [r3]
 1306 0036 7B68     		ldr	r3, [r7, #4]
 1307 0038 1B68     		ldr	r3, [r3]
 1308 003a 22F00102 		bic	r2, r2, #1
 1309 003e 1A60     		str	r2, [r3]
 1310              	.L60:
 722:Drivers/STM32H7xx_HAL_Driver/Src/stm32h7xx_hal_tim.c **** 
 723:Drivers/STM32H7xx_HAL_Driver/Src/stm32h7xx_hal_tim.c **** #if (USE_HAL_TIM_REGISTER_CALLBACKS == 1)
 724:Drivers/STM32H7xx_HAL_Driver/Src/stm32h7xx_hal_tim.c ****   if (htim->OC_MspDeInitCallback == NULL)
 725:Drivers/STM32H7xx_HAL_Driver/Src/stm32h7xx_hal_tim.c ****   {
 726:Drivers/STM32H7xx_HAL_Driver/Src/stm32h7xx_hal_tim.c ****     htim->OC_MspDeInitCallback = HAL_TIM_OC_MspDeInit;
 727:Drivers/STM32H7xx_HAL_Driver/Src/stm32h7xx_hal_tim.c ****   }
 728:Drivers/STM32H7xx_HAL_Driver/Src/stm32h7xx_hal_tim.c ****   /* DeInit the low level hardware */
 729:Drivers/STM32H7xx_HAL_Driver/Src/stm32h7xx_hal_tim.c ****   htim->OC_MspDeInitCallback(htim);
 730:Drivers/STM32H7xx_HAL_Driver/Src/stm32h7xx_hal_tim.c **** #else
 731:Drivers/STM32H7xx_HAL_Driver/Src/stm32h7xx_hal_tim.c ****   /* DeInit the low level hardware: GPIO, CLOCK, NVIC and DMA */
 732:Drivers/STM32H7xx_HAL_Driver/Src/stm32h7xx_hal_tim.c ****   HAL_TIM_OC_MspDeInit(htim);
 1311              		.loc 1 732 3 is_stmt 1
 1312 0040 7868     		ldr	r0, [r7, #4]
 1313 0042 FFF7FEFF 		bl	HAL_TIM_OC_MspDeInit
 733:Drivers/STM32H7xx_HAL_Driver/Src/stm32h7xx_hal_tim.c **** #endif /* USE_HAL_TIM_REGISTER_CALLBACKS */
 734:Drivers/STM32H7xx_HAL_Driver/Src/stm32h7xx_hal_tim.c **** 
 735:Drivers/STM32H7xx_HAL_Driver/Src/stm32h7xx_hal_tim.c ****   /* Change the DMA burst operation state */
 736:Drivers/STM32H7xx_HAL_Driver/Src/stm32h7xx_hal_tim.c ****   htim->DMABurstState = HAL_DMA_BURST_STATE_RESET;
 1314              		.loc 1 736 23
 1315 0046 7B68     		ldr	r3, [r7, #4]
 1316 0048 0022     		movs	r2, #0
 1317 004a 83F84820 		strb	r2, [r3, #72]
 737:Drivers/STM32H7xx_HAL_Driver/Src/stm32h7xx_hal_tim.c **** 
 738:Drivers/STM32H7xx_HAL_Driver/Src/stm32h7xx_hal_tim.c ****   /* Change the TIM channels state */
 739:Drivers/STM32H7xx_HAL_Driver/Src/stm32h7xx_hal_tim.c ****   TIM_CHANNEL_STATE_SET_ALL(htim, HAL_TIM_CHANNEL_STATE_RESET);
 1318              		.loc 1 739 3
 1319 004e 7B68     		ldr	r3, [r7, #4]
 1320 0050 0022     		movs	r2, #0
 1321 0052 83F83E20 		strb	r2, [r3, #62]
 1322 0056 7B68     		ldr	r3, [r7, #4]
 1323 0058 0022     		movs	r2, #0
 1324 005a 83F83F20 		strb	r2, [r3, #63]
 1325 005e 7B68     		ldr	r3, [r7, #4]
 1326 0060 0022     		movs	r2, #0
 1327 0062 83F84020 		strb	r2, [r3, #64]
 1328 0066 7B68     		ldr	r3, [r7, #4]
 1329 0068 0022     		movs	r2, #0
ARM GAS  C:\Users\TGSPOC~1\AppData\Local\Temp\cchOEqPT.s 			page 37


 1330 006a 83F84120 		strb	r2, [r3, #65]
 1331 006e 7B68     		ldr	r3, [r7, #4]
 1332 0070 0022     		movs	r2, #0
 1333 0072 83F84220 		strb	r2, [r3, #66]
 1334 0076 7B68     		ldr	r3, [r7, #4]
 1335 0078 0022     		movs	r2, #0
 1336 007a 83F84320 		strb	r2, [r3, #67]
 740:Drivers/STM32H7xx_HAL_Driver/Src/stm32h7xx_hal_tim.c ****   TIM_CHANNEL_N_STATE_SET_ALL(htim, HAL_TIM_CHANNEL_STATE_RESET);
 1337              		.loc 1 740 3
 1338 007e 7B68     		ldr	r3, [r7, #4]
 1339 0080 0022     		movs	r2, #0
 1340 0082 83F84420 		strb	r2, [r3, #68]
 1341 0086 7B68     		ldr	r3, [r7, #4]
 1342 0088 0022     		movs	r2, #0
 1343 008a 83F84520 		strb	r2, [r3, #69]
 1344 008e 7B68     		ldr	r3, [r7, #4]
 1345 0090 0022     		movs	r2, #0
 1346 0092 83F84620 		strb	r2, [r3, #70]
 1347 0096 7B68     		ldr	r3, [r7, #4]
 1348 0098 0022     		movs	r2, #0
 1349 009a 83F84720 		strb	r2, [r3, #71]
 741:Drivers/STM32H7xx_HAL_Driver/Src/stm32h7xx_hal_tim.c **** 
 742:Drivers/STM32H7xx_HAL_Driver/Src/stm32h7xx_hal_tim.c ****   /* Change TIM state */
 743:Drivers/STM32H7xx_HAL_Driver/Src/stm32h7xx_hal_tim.c ****   htim->State = HAL_TIM_STATE_RESET;
 1350              		.loc 1 743 15
 1351 009e 7B68     		ldr	r3, [r7, #4]
 1352 00a0 0022     		movs	r2, #0
 1353 00a2 83F83D20 		strb	r2, [r3, #61]
 744:Drivers/STM32H7xx_HAL_Driver/Src/stm32h7xx_hal_tim.c **** 
 745:Drivers/STM32H7xx_HAL_Driver/Src/stm32h7xx_hal_tim.c ****   /* Release Lock */
 746:Drivers/STM32H7xx_HAL_Driver/Src/stm32h7xx_hal_tim.c ****   __HAL_UNLOCK(htim);
 1354              		.loc 1 746 3
 1355 00a6 7B68     		ldr	r3, [r7, #4]
 1356 00a8 0022     		movs	r2, #0
 1357 00aa 83F83C20 		strb	r2, [r3, #60]
 747:Drivers/STM32H7xx_HAL_Driver/Src/stm32h7xx_hal_tim.c **** 
 748:Drivers/STM32H7xx_HAL_Driver/Src/stm32h7xx_hal_tim.c ****   return HAL_OK;
 1358              		.loc 1 748 10
 1359 00ae 0023     		movs	r3, #0
 749:Drivers/STM32H7xx_HAL_Driver/Src/stm32h7xx_hal_tim.c **** }
 1360              		.loc 1 749 1
 1361 00b0 1846     		mov	r0, r3
 1362 00b2 0837     		adds	r7, r7, #8
 1363              	.LCFI64:
 1364              		.cfi_def_cfa_offset 8
 1365 00b4 BD46     		mov	sp, r7
 1366              	.LCFI65:
 1367              		.cfi_def_cfa_register 13
 1368              		@ sp needed
 1369 00b6 80BD     		pop	{r7, pc}
 1370              		.cfi_endproc
 1371              	.LFE155:
 1373              		.section	.text.HAL_TIM_OC_MspInit,"ax",%progbits
 1374              		.align	1
 1375              		.weak	HAL_TIM_OC_MspInit
 1376              		.syntax unified
 1377              		.thumb
ARM GAS  C:\Users\TGSPOC~1\AppData\Local\Temp\cchOEqPT.s 			page 38


 1378              		.thumb_func
 1380              	HAL_TIM_OC_MspInit:
 1381              	.LFB156:
 750:Drivers/STM32H7xx_HAL_Driver/Src/stm32h7xx_hal_tim.c **** 
 751:Drivers/STM32H7xx_HAL_Driver/Src/stm32h7xx_hal_tim.c **** /**
 752:Drivers/STM32H7xx_HAL_Driver/Src/stm32h7xx_hal_tim.c ****   * @brief  Initializes the TIM Output Compare MSP.
 753:Drivers/STM32H7xx_HAL_Driver/Src/stm32h7xx_hal_tim.c ****   * @param  htim TIM Output Compare handle
 754:Drivers/STM32H7xx_HAL_Driver/Src/stm32h7xx_hal_tim.c ****   * @retval None
 755:Drivers/STM32H7xx_HAL_Driver/Src/stm32h7xx_hal_tim.c ****   */
 756:Drivers/STM32H7xx_HAL_Driver/Src/stm32h7xx_hal_tim.c **** __weak void HAL_TIM_OC_MspInit(TIM_HandleTypeDef *htim)
 757:Drivers/STM32H7xx_HAL_Driver/Src/stm32h7xx_hal_tim.c **** {
 1382              		.loc 1 757 1
 1383              		.cfi_startproc
 1384              		@ args = 0, pretend = 0, frame = 8
 1385              		@ frame_needed = 1, uses_anonymous_args = 0
 1386              		@ link register save eliminated.
 1387 0000 80B4     		push	{r7}
 1388              	.LCFI66:
 1389              		.cfi_def_cfa_offset 4
 1390              		.cfi_offset 7, -4
 1391 0002 83B0     		sub	sp, sp, #12
 1392              	.LCFI67:
 1393              		.cfi_def_cfa_offset 16
 1394 0004 00AF     		add	r7, sp, #0
 1395              	.LCFI68:
 1396              		.cfi_def_cfa_register 7
 1397 0006 7860     		str	r0, [r7, #4]
 758:Drivers/STM32H7xx_HAL_Driver/Src/stm32h7xx_hal_tim.c ****   /* Prevent unused argument(s) compilation warning */
 759:Drivers/STM32H7xx_HAL_Driver/Src/stm32h7xx_hal_tim.c ****   UNUSED(htim);
 760:Drivers/STM32H7xx_HAL_Driver/Src/stm32h7xx_hal_tim.c **** 
 761:Drivers/STM32H7xx_HAL_Driver/Src/stm32h7xx_hal_tim.c ****   /* NOTE : This function should not be modified, when the callback is needed,
 762:Drivers/STM32H7xx_HAL_Driver/Src/stm32h7xx_hal_tim.c ****             the HAL_TIM_OC_MspInit could be implemented in the user file
 763:Drivers/STM32H7xx_HAL_Driver/Src/stm32h7xx_hal_tim.c ****    */
 764:Drivers/STM32H7xx_HAL_Driver/Src/stm32h7xx_hal_tim.c **** }
 1398              		.loc 1 764 1
 1399 0008 00BF     		nop
 1400 000a 0C37     		adds	r7, r7, #12
 1401              	.LCFI69:
 1402              		.cfi_def_cfa_offset 4
 1403 000c BD46     		mov	sp, r7
 1404              	.LCFI70:
 1405              		.cfi_def_cfa_register 13
 1406              		@ sp needed
 1407 000e 5DF8047B 		ldr	r7, [sp], #4
 1408              	.LCFI71:
 1409              		.cfi_restore 7
 1410              		.cfi_def_cfa_offset 0
 1411 0012 7047     		bx	lr
 1412              		.cfi_endproc
 1413              	.LFE156:
 1415              		.section	.text.HAL_TIM_OC_MspDeInit,"ax",%progbits
 1416              		.align	1
 1417              		.weak	HAL_TIM_OC_MspDeInit
 1418              		.syntax unified
 1419              		.thumb
 1420              		.thumb_func
 1422              	HAL_TIM_OC_MspDeInit:
ARM GAS  C:\Users\TGSPOC~1\AppData\Local\Temp\cchOEqPT.s 			page 39


 1423              	.LFB157:
 765:Drivers/STM32H7xx_HAL_Driver/Src/stm32h7xx_hal_tim.c **** 
 766:Drivers/STM32H7xx_HAL_Driver/Src/stm32h7xx_hal_tim.c **** /**
 767:Drivers/STM32H7xx_HAL_Driver/Src/stm32h7xx_hal_tim.c ****   * @brief  DeInitializes TIM Output Compare MSP.
 768:Drivers/STM32H7xx_HAL_Driver/Src/stm32h7xx_hal_tim.c ****   * @param  htim TIM Output Compare handle
 769:Drivers/STM32H7xx_HAL_Driver/Src/stm32h7xx_hal_tim.c ****   * @retval None
 770:Drivers/STM32H7xx_HAL_Driver/Src/stm32h7xx_hal_tim.c ****   */
 771:Drivers/STM32H7xx_HAL_Driver/Src/stm32h7xx_hal_tim.c **** __weak void HAL_TIM_OC_MspDeInit(TIM_HandleTypeDef *htim)
 772:Drivers/STM32H7xx_HAL_Driver/Src/stm32h7xx_hal_tim.c **** {
 1424              		.loc 1 772 1
 1425              		.cfi_startproc
 1426              		@ args = 0, pretend = 0, frame = 8
 1427              		@ frame_needed = 1, uses_anonymous_args = 0
 1428              		@ link register save eliminated.
 1429 0000 80B4     		push	{r7}
 1430              	.LCFI72:
 1431              		.cfi_def_cfa_offset 4
 1432              		.cfi_offset 7, -4
 1433 0002 83B0     		sub	sp, sp, #12
 1434              	.LCFI73:
 1435              		.cfi_def_cfa_offset 16
 1436 0004 00AF     		add	r7, sp, #0
 1437              	.LCFI74:
 1438              		.cfi_def_cfa_register 7
 1439 0006 7860     		str	r0, [r7, #4]
 773:Drivers/STM32H7xx_HAL_Driver/Src/stm32h7xx_hal_tim.c ****   /* Prevent unused argument(s) compilation warning */
 774:Drivers/STM32H7xx_HAL_Driver/Src/stm32h7xx_hal_tim.c ****   UNUSED(htim);
 775:Drivers/STM32H7xx_HAL_Driver/Src/stm32h7xx_hal_tim.c **** 
 776:Drivers/STM32H7xx_HAL_Driver/Src/stm32h7xx_hal_tim.c ****   /* NOTE : This function should not be modified, when the callback is needed,
 777:Drivers/STM32H7xx_HAL_Driver/Src/stm32h7xx_hal_tim.c ****             the HAL_TIM_OC_MspDeInit could be implemented in the user file
 778:Drivers/STM32H7xx_HAL_Driver/Src/stm32h7xx_hal_tim.c ****    */
 779:Drivers/STM32H7xx_HAL_Driver/Src/stm32h7xx_hal_tim.c **** }
 1440              		.loc 1 779 1
 1441 0008 00BF     		nop
 1442 000a 0C37     		adds	r7, r7, #12
 1443              	.LCFI75:
 1444              		.cfi_def_cfa_offset 4
 1445 000c BD46     		mov	sp, r7
 1446              	.LCFI76:
 1447              		.cfi_def_cfa_register 13
 1448              		@ sp needed
 1449 000e 5DF8047B 		ldr	r7, [sp], #4
 1450              	.LCFI77:
 1451              		.cfi_restore 7
 1452              		.cfi_def_cfa_offset 0
 1453 0012 7047     		bx	lr
 1454              		.cfi_endproc
 1455              	.LFE157:
 1457              		.section	.text.HAL_TIM_OC_Start,"ax",%progbits
 1458              		.align	1
 1459              		.global	HAL_TIM_OC_Start
 1460              		.syntax unified
 1461              		.thumb
 1462              		.thumb_func
 1464              	HAL_TIM_OC_Start:
 1465              	.LFB158:
 780:Drivers/STM32H7xx_HAL_Driver/Src/stm32h7xx_hal_tim.c **** 
ARM GAS  C:\Users\TGSPOC~1\AppData\Local\Temp\cchOEqPT.s 			page 40


 781:Drivers/STM32H7xx_HAL_Driver/Src/stm32h7xx_hal_tim.c **** /**
 782:Drivers/STM32H7xx_HAL_Driver/Src/stm32h7xx_hal_tim.c ****   * @brief  Starts the TIM Output Compare signal generation.
 783:Drivers/STM32H7xx_HAL_Driver/Src/stm32h7xx_hal_tim.c ****   * @param  htim TIM Output Compare handle
 784:Drivers/STM32H7xx_HAL_Driver/Src/stm32h7xx_hal_tim.c ****   * @param  Channel TIM Channel to be enabled
 785:Drivers/STM32H7xx_HAL_Driver/Src/stm32h7xx_hal_tim.c ****   *          This parameter can be one of the following values:
 786:Drivers/STM32H7xx_HAL_Driver/Src/stm32h7xx_hal_tim.c ****   *            @arg TIM_CHANNEL_1: TIM Channel 1 selected
 787:Drivers/STM32H7xx_HAL_Driver/Src/stm32h7xx_hal_tim.c ****   *            @arg TIM_CHANNEL_2: TIM Channel 2 selected
 788:Drivers/STM32H7xx_HAL_Driver/Src/stm32h7xx_hal_tim.c ****   *            @arg TIM_CHANNEL_3: TIM Channel 3 selected
 789:Drivers/STM32H7xx_HAL_Driver/Src/stm32h7xx_hal_tim.c ****   *            @arg TIM_CHANNEL_4: TIM Channel 4 selected
 790:Drivers/STM32H7xx_HAL_Driver/Src/stm32h7xx_hal_tim.c ****   *            @arg TIM_CHANNEL_5: TIM Channel 5 selected
 791:Drivers/STM32H7xx_HAL_Driver/Src/stm32h7xx_hal_tim.c ****   *            @arg TIM_CHANNEL_6: TIM Channel 6 selected
 792:Drivers/STM32H7xx_HAL_Driver/Src/stm32h7xx_hal_tim.c ****   * @retval HAL status
 793:Drivers/STM32H7xx_HAL_Driver/Src/stm32h7xx_hal_tim.c ****   */
 794:Drivers/STM32H7xx_HAL_Driver/Src/stm32h7xx_hal_tim.c **** HAL_StatusTypeDef HAL_TIM_OC_Start(TIM_HandleTypeDef *htim, uint32_t Channel)
 795:Drivers/STM32H7xx_HAL_Driver/Src/stm32h7xx_hal_tim.c **** {
 1466              		.loc 1 795 1
 1467              		.cfi_startproc
 1468              		@ args = 0, pretend = 0, frame = 16
 1469              		@ frame_needed = 1, uses_anonymous_args = 0
 1470 0000 80B5     		push	{r7, lr}
 1471              	.LCFI78:
 1472              		.cfi_def_cfa_offset 8
 1473              		.cfi_offset 7, -8
 1474              		.cfi_offset 14, -4
 1475 0002 84B0     		sub	sp, sp, #16
 1476              	.LCFI79:
 1477              		.cfi_def_cfa_offset 24
 1478 0004 00AF     		add	r7, sp, #0
 1479              	.LCFI80:
 1480              		.cfi_def_cfa_register 7
 1481 0006 7860     		str	r0, [r7, #4]
 1482 0008 3960     		str	r1, [r7]
 796:Drivers/STM32H7xx_HAL_Driver/Src/stm32h7xx_hal_tim.c ****   uint32_t tmpsmcr;
 797:Drivers/STM32H7xx_HAL_Driver/Src/stm32h7xx_hal_tim.c **** 
 798:Drivers/STM32H7xx_HAL_Driver/Src/stm32h7xx_hal_tim.c ****   /* Check the parameters */
 799:Drivers/STM32H7xx_HAL_Driver/Src/stm32h7xx_hal_tim.c ****   assert_param(IS_TIM_CCX_INSTANCE(htim->Instance, Channel));
 800:Drivers/STM32H7xx_HAL_Driver/Src/stm32h7xx_hal_tim.c **** 
 801:Drivers/STM32H7xx_HAL_Driver/Src/stm32h7xx_hal_tim.c ****   /* Check the TIM channel state */
 802:Drivers/STM32H7xx_HAL_Driver/Src/stm32h7xx_hal_tim.c ****   if (TIM_CHANNEL_STATE_GET(htim, Channel) != HAL_TIM_CHANNEL_STATE_READY)
 1483              		.loc 1 802 44
 1484 000a 3B68     		ldr	r3, [r7]
 1485 000c 002B     		cmp	r3, #0
 1486 000e 09D1     		bne	.L65
 1487              		.loc 1 802 7 discriminator 1
 1488 0010 7B68     		ldr	r3, [r7, #4]
 1489 0012 93F83E30 		ldrb	r3, [r3, #62]
 1490 0016 DBB2     		uxtb	r3, r3
 1491              		.loc 1 802 44 discriminator 1
 1492 0018 012B     		cmp	r3, #1
 1493 001a 14BF     		ite	ne
 1494 001c 0123     		movne	r3, #1
 1495 001e 0023     		moveq	r3, #0
 1496 0020 DBB2     		uxtb	r3, r3
 1497 0022 3CE0     		b	.L66
 1498              	.L65:
 1499              		.loc 1 802 44 is_stmt 0 discriminator 2
 1500 0024 3B68     		ldr	r3, [r7]
ARM GAS  C:\Users\TGSPOC~1\AppData\Local\Temp\cchOEqPT.s 			page 41


 1501 0026 042B     		cmp	r3, #4
 1502 0028 09D1     		bne	.L67
 1503              		.loc 1 802 7 is_stmt 1 discriminator 4
 1504 002a 7B68     		ldr	r3, [r7, #4]
 1505 002c 93F83F30 		ldrb	r3, [r3, #63]
 1506 0030 DBB2     		uxtb	r3, r3
 1507              		.loc 1 802 44 discriminator 4
 1508 0032 012B     		cmp	r3, #1
 1509 0034 14BF     		ite	ne
 1510 0036 0123     		movne	r3, #1
 1511 0038 0023     		moveq	r3, #0
 1512 003a DBB2     		uxtb	r3, r3
 1513 003c 2FE0     		b	.L66
 1514              	.L67:
 1515              		.loc 1 802 44 is_stmt 0 discriminator 5
 1516 003e 3B68     		ldr	r3, [r7]
 1517 0040 082B     		cmp	r3, #8
 1518 0042 09D1     		bne	.L69
 1519              		.loc 1 802 7 is_stmt 1 discriminator 7
 1520 0044 7B68     		ldr	r3, [r7, #4]
 1521 0046 93F84030 		ldrb	r3, [r3, #64]
 1522 004a DBB2     		uxtb	r3, r3
 1523              		.loc 1 802 44 discriminator 7
 1524 004c 012B     		cmp	r3, #1
 1525 004e 14BF     		ite	ne
 1526 0050 0123     		movne	r3, #1
 1527 0052 0023     		moveq	r3, #0
 1528 0054 DBB2     		uxtb	r3, r3
 1529 0056 22E0     		b	.L66
 1530              	.L69:
 1531              		.loc 1 802 44 is_stmt 0 discriminator 8
 1532 0058 3B68     		ldr	r3, [r7]
 1533 005a 0C2B     		cmp	r3, #12
 1534 005c 09D1     		bne	.L71
 1535              		.loc 1 802 7 is_stmt 1 discriminator 10
 1536 005e 7B68     		ldr	r3, [r7, #4]
 1537 0060 93F84130 		ldrb	r3, [r3, #65]
 1538 0064 DBB2     		uxtb	r3, r3
 1539              		.loc 1 802 44 discriminator 10
 1540 0066 012B     		cmp	r3, #1
 1541 0068 14BF     		ite	ne
 1542 006a 0123     		movne	r3, #1
 1543 006c 0023     		moveq	r3, #0
 1544 006e DBB2     		uxtb	r3, r3
 1545 0070 15E0     		b	.L66
 1546              	.L71:
 1547              		.loc 1 802 44 is_stmt 0 discriminator 11
 1548 0072 3B68     		ldr	r3, [r7]
 1549 0074 102B     		cmp	r3, #16
 1550 0076 09D1     		bne	.L73
 1551              		.loc 1 802 7 is_stmt 1 discriminator 13
 1552 0078 7B68     		ldr	r3, [r7, #4]
 1553 007a 93F84230 		ldrb	r3, [r3, #66]
 1554 007e DBB2     		uxtb	r3, r3
 1555              		.loc 1 802 44 discriminator 13
 1556 0080 012B     		cmp	r3, #1
 1557 0082 14BF     		ite	ne
ARM GAS  C:\Users\TGSPOC~1\AppData\Local\Temp\cchOEqPT.s 			page 42


 1558 0084 0123     		movne	r3, #1
 1559 0086 0023     		moveq	r3, #0
 1560 0088 DBB2     		uxtb	r3, r3
 1561 008a 08E0     		b	.L66
 1562              	.L73:
 1563              		.loc 1 802 7 discriminator 14
 1564 008c 7B68     		ldr	r3, [r7, #4]
 1565 008e 93F84330 		ldrb	r3, [r3, #67]
 1566 0092 DBB2     		uxtb	r3, r3
 1567              		.loc 1 802 44 discriminator 14
 1568 0094 012B     		cmp	r3, #1
 1569 0096 14BF     		ite	ne
 1570 0098 0123     		movne	r3, #1
 1571 009a 0023     		moveq	r3, #0
 1572 009c DBB2     		uxtb	r3, r3
 1573              	.L66:
 1574              		.loc 1 802 6 discriminator 20
 1575 009e 002B     		cmp	r3, #0
 1576 00a0 01D0     		beq	.L75
 803:Drivers/STM32H7xx_HAL_Driver/Src/stm32h7xx_hal_tim.c ****   {
 804:Drivers/STM32H7xx_HAL_Driver/Src/stm32h7xx_hal_tim.c ****     return HAL_ERROR;
 1577              		.loc 1 804 12
 1578 00a2 0123     		movs	r3, #1
 1579 00a4 A1E0     		b	.L76
 1580              	.L75:
 805:Drivers/STM32H7xx_HAL_Driver/Src/stm32h7xx_hal_tim.c ****   }
 806:Drivers/STM32H7xx_HAL_Driver/Src/stm32h7xx_hal_tim.c **** 
 807:Drivers/STM32H7xx_HAL_Driver/Src/stm32h7xx_hal_tim.c ****   /* Set the TIM channel state */
 808:Drivers/STM32H7xx_HAL_Driver/Src/stm32h7xx_hal_tim.c ****   TIM_CHANNEL_STATE_SET(htim, Channel, HAL_TIM_CHANNEL_STATE_BUSY);
 1581              		.loc 1 808 3
 1582 00a6 3B68     		ldr	r3, [r7]
 1583 00a8 002B     		cmp	r3, #0
 1584 00aa 04D1     		bne	.L77
 1585              		.loc 1 808 3 is_stmt 0 discriminator 1
 1586 00ac 7B68     		ldr	r3, [r7, #4]
 1587 00ae 0222     		movs	r2, #2
 1588 00b0 83F83E20 		strb	r2, [r3, #62]
 1589 00b4 23E0     		b	.L78
 1590              	.L77:
 1591              		.loc 1 808 3 discriminator 2
 1592 00b6 3B68     		ldr	r3, [r7]
 1593 00b8 042B     		cmp	r3, #4
 1594 00ba 04D1     		bne	.L79
 1595              		.loc 1 808 3 discriminator 3
 1596 00bc 7B68     		ldr	r3, [r7, #4]
 1597 00be 0222     		movs	r2, #2
 1598 00c0 83F83F20 		strb	r2, [r3, #63]
 1599 00c4 1BE0     		b	.L78
 1600              	.L79:
 1601              		.loc 1 808 3 discriminator 4
 1602 00c6 3B68     		ldr	r3, [r7]
 1603 00c8 082B     		cmp	r3, #8
 1604 00ca 04D1     		bne	.L81
 1605              		.loc 1 808 3 discriminator 6
 1606 00cc 7B68     		ldr	r3, [r7, #4]
 1607 00ce 0222     		movs	r2, #2
 1608 00d0 83F84020 		strb	r2, [r3, #64]
ARM GAS  C:\Users\TGSPOC~1\AppData\Local\Temp\cchOEqPT.s 			page 43


 1609 00d4 13E0     		b	.L78
 1610              	.L81:
 1611              		.loc 1 808 3 discriminator 7
 1612 00d6 3B68     		ldr	r3, [r7]
 1613 00d8 0C2B     		cmp	r3, #12
 1614 00da 04D1     		bne	.L83
 1615              		.loc 1 808 3 discriminator 9
 1616 00dc 7B68     		ldr	r3, [r7, #4]
 1617 00de 0222     		movs	r2, #2
 1618 00e0 83F84120 		strb	r2, [r3, #65]
 1619 00e4 0BE0     		b	.L78
 1620              	.L83:
 1621              		.loc 1 808 3 discriminator 10
 1622 00e6 3B68     		ldr	r3, [r7]
 1623 00e8 102B     		cmp	r3, #16
 1624 00ea 04D1     		bne	.L85
 1625              		.loc 1 808 3 discriminator 12
 1626 00ec 7B68     		ldr	r3, [r7, #4]
 1627 00ee 0222     		movs	r2, #2
 1628 00f0 83F84220 		strb	r2, [r3, #66]
 1629 00f4 03E0     		b	.L78
 1630              	.L85:
 1631              		.loc 1 808 3 discriminator 13
 1632 00f6 7B68     		ldr	r3, [r7, #4]
 1633 00f8 0222     		movs	r2, #2
 1634 00fa 83F84320 		strb	r2, [r3, #67]
 1635              	.L78:
 809:Drivers/STM32H7xx_HAL_Driver/Src/stm32h7xx_hal_tim.c **** 
 810:Drivers/STM32H7xx_HAL_Driver/Src/stm32h7xx_hal_tim.c ****   /* Enable the Output compare channel */
 811:Drivers/STM32H7xx_HAL_Driver/Src/stm32h7xx_hal_tim.c ****   TIM_CCxChannelCmd(htim->Instance, Channel, TIM_CCx_ENABLE);
 1636              		.loc 1 811 3 is_stmt 1
 1637 00fe 7B68     		ldr	r3, [r7, #4]
 1638 0100 1B68     		ldr	r3, [r3]
 1639 0102 0122     		movs	r2, #1
 1640 0104 3968     		ldr	r1, [r7]
 1641 0106 1846     		mov	r0, r3
 1642 0108 FFF7FEFF 		bl	TIM_CCxChannelCmd
 812:Drivers/STM32H7xx_HAL_Driver/Src/stm32h7xx_hal_tim.c **** 
 813:Drivers/STM32H7xx_HAL_Driver/Src/stm32h7xx_hal_tim.c ****   if (IS_TIM_BREAK_INSTANCE(htim->Instance) != RESET)
 1643              		.loc 1 813 7
 1644 010c 7B68     		ldr	r3, [r7, #4]
 1645 010e 1B68     		ldr	r3, [r3]
 1646 0110 384A     		ldr	r2, .L96
 1647 0112 9342     		cmp	r3, r2
 1648 0114 13D0     		beq	.L87
 1649              		.loc 1 813 7 is_stmt 0 discriminator 2
 1650 0116 7B68     		ldr	r3, [r7, #4]
 1651 0118 1B68     		ldr	r3, [r3]
 1652 011a 374A     		ldr	r2, .L96+4
 1653 011c 9342     		cmp	r3, r2
 1654 011e 0ED0     		beq	.L87
 1655              		.loc 1 813 7 discriminator 4
 1656 0120 7B68     		ldr	r3, [r7, #4]
 1657 0122 1B68     		ldr	r3, [r3]
 1658 0124 354A     		ldr	r2, .L96+8
 1659 0126 9342     		cmp	r3, r2
 1660 0128 09D0     		beq	.L87
ARM GAS  C:\Users\TGSPOC~1\AppData\Local\Temp\cchOEqPT.s 			page 44


 1661              		.loc 1 813 7 discriminator 6
 1662 012a 7B68     		ldr	r3, [r7, #4]
 1663 012c 1B68     		ldr	r3, [r3]
 1664 012e 344A     		ldr	r2, .L96+12
 1665 0130 9342     		cmp	r3, r2
 1666 0132 04D0     		beq	.L87
 1667              		.loc 1 813 7 discriminator 8
 1668 0134 7B68     		ldr	r3, [r7, #4]
 1669 0136 1B68     		ldr	r3, [r3]
 1670 0138 324A     		ldr	r2, .L96+16
 1671 013a 9342     		cmp	r3, r2
 1672 013c 01D1     		bne	.L88
 1673              	.L87:
 1674              		.loc 1 813 7 discriminator 9
 1675 013e 0123     		movs	r3, #1
 1676              		.loc 1 813 7
 1677 0140 00E0     		b	.L89
 1678              	.L88:
 1679              		.loc 1 813 7 discriminator 10
 1680 0142 0023     		movs	r3, #0
 1681              	.L89:
 1682              		.loc 1 813 6 is_stmt 1 discriminator 12
 1683 0144 002B     		cmp	r3, #0
 1684 0146 07D0     		beq	.L90
 814:Drivers/STM32H7xx_HAL_Driver/Src/stm32h7xx_hal_tim.c ****   {
 815:Drivers/STM32H7xx_HAL_Driver/Src/stm32h7xx_hal_tim.c ****     /* Enable the main output */
 816:Drivers/STM32H7xx_HAL_Driver/Src/stm32h7xx_hal_tim.c ****     __HAL_TIM_MOE_ENABLE(htim);
 1685              		.loc 1 816 5
 1686 0148 7B68     		ldr	r3, [r7, #4]
 1687 014a 1B68     		ldr	r3, [r3]
 1688 014c 5A6C     		ldr	r2, [r3, #68]
 1689 014e 7B68     		ldr	r3, [r7, #4]
 1690 0150 1B68     		ldr	r3, [r3]
 1691 0152 42F40042 		orr	r2, r2, #32768
 1692 0156 5A64     		str	r2, [r3, #68]
 1693              	.L90:
 817:Drivers/STM32H7xx_HAL_Driver/Src/stm32h7xx_hal_tim.c ****   }
 818:Drivers/STM32H7xx_HAL_Driver/Src/stm32h7xx_hal_tim.c **** 
 819:Drivers/STM32H7xx_HAL_Driver/Src/stm32h7xx_hal_tim.c ****   /* Enable the Peripheral, except in trigger mode where enable is automatically done with trigger 
 820:Drivers/STM32H7xx_HAL_Driver/Src/stm32h7xx_hal_tim.c ****   if (IS_TIM_SLAVE_INSTANCE(htim->Instance))
 1694              		.loc 1 820 7
 1695 0158 7B68     		ldr	r3, [r7, #4]
 1696 015a 1B68     		ldr	r3, [r3]
 1697              		.loc 1 820 6
 1698 015c 254A     		ldr	r2, .L96
 1699 015e 9342     		cmp	r3, r2
 1700 0160 22D0     		beq	.L91
 1701              		.loc 1 820 7 discriminator 1
 1702 0162 7B68     		ldr	r3, [r7, #4]
 1703 0164 1B68     		ldr	r3, [r3]
 1704 0166 B3F1804F 		cmp	r3, #1073741824
 1705 016a 1DD0     		beq	.L91
 1706              		.loc 1 820 7 is_stmt 0 discriminator 2
 1707 016c 7B68     		ldr	r3, [r7, #4]
 1708 016e 1B68     		ldr	r3, [r3]
 1709 0170 254A     		ldr	r2, .L96+20
 1710 0172 9342     		cmp	r3, r2
ARM GAS  C:\Users\TGSPOC~1\AppData\Local\Temp\cchOEqPT.s 			page 45


 1711 0174 18D0     		beq	.L91
 1712              		.loc 1 820 7 discriminator 3
 1713 0176 7B68     		ldr	r3, [r7, #4]
 1714 0178 1B68     		ldr	r3, [r3]
 1715 017a 244A     		ldr	r2, .L96+24
 1716 017c 9342     		cmp	r3, r2
 1717 017e 13D0     		beq	.L91
 1718              		.loc 1 820 7 discriminator 4
 1719 0180 7B68     		ldr	r3, [r7, #4]
 1720 0182 1B68     		ldr	r3, [r3]
 1721 0184 224A     		ldr	r2, .L96+28
 1722 0186 9342     		cmp	r3, r2
 1723 0188 0ED0     		beq	.L91
 1724              		.loc 1 820 7 discriminator 5
 1725 018a 7B68     		ldr	r3, [r7, #4]
 1726 018c 1B68     		ldr	r3, [r3]
 1727 018e 1A4A     		ldr	r2, .L96+4
 1728 0190 9342     		cmp	r3, r2
 1729 0192 09D0     		beq	.L91
 1730              		.loc 1 820 7 discriminator 6
 1731 0194 7B68     		ldr	r3, [r7, #4]
 1732 0196 1B68     		ldr	r3, [r3]
 1733 0198 1E4A     		ldr	r2, .L96+32
 1734 019a 9342     		cmp	r3, r2
 1735 019c 04D0     		beq	.L91
 1736              		.loc 1 820 7 discriminator 7
 1737 019e 7B68     		ldr	r3, [r7, #4]
 1738 01a0 1B68     		ldr	r3, [r3]
 1739 01a2 164A     		ldr	r2, .L96+8
 1740 01a4 9342     		cmp	r3, r2
 1741 01a6 15D1     		bne	.L92
 1742              	.L91:
 821:Drivers/STM32H7xx_HAL_Driver/Src/stm32h7xx_hal_tim.c ****   {
 822:Drivers/STM32H7xx_HAL_Driver/Src/stm32h7xx_hal_tim.c ****     tmpsmcr = htim->Instance->SMCR & TIM_SMCR_SMS;
 1743              		.loc 1 822 19 is_stmt 1
 1744 01a8 7B68     		ldr	r3, [r7, #4]
 1745 01aa 1B68     		ldr	r3, [r3]
 1746              		.loc 1 822 29
 1747 01ac 9A68     		ldr	r2, [r3, #8]
 1748              		.loc 1 822 13
 1749 01ae 1A4B     		ldr	r3, .L96+36
 1750 01b0 1340     		ands	r3, r3, r2
 1751 01b2 FB60     		str	r3, [r7, #12]
 823:Drivers/STM32H7xx_HAL_Driver/Src/stm32h7xx_hal_tim.c ****     if (!IS_TIM_SLAVEMODE_TRIGGER_ENABLED(tmpsmcr))
 1752              		.loc 1 823 8
 1753 01b4 FB68     		ldr	r3, [r7, #12]
 1754 01b6 062B     		cmp	r3, #6
 1755 01b8 15D0     		beq	.L95
 1756              		.loc 1 823 9 discriminator 1
 1757 01ba FB68     		ldr	r3, [r7, #12]
 1758 01bc B3F5803F 		cmp	r3, #65536
 1759 01c0 11D0     		beq	.L95
 824:Drivers/STM32H7xx_HAL_Driver/Src/stm32h7xx_hal_tim.c ****     {
 825:Drivers/STM32H7xx_HAL_Driver/Src/stm32h7xx_hal_tim.c ****       __HAL_TIM_ENABLE(htim);
 1760              		.loc 1 825 7
 1761 01c2 7B68     		ldr	r3, [r7, #4]
 1762 01c4 1B68     		ldr	r3, [r3]
ARM GAS  C:\Users\TGSPOC~1\AppData\Local\Temp\cchOEqPT.s 			page 46


 1763 01c6 1A68     		ldr	r2, [r3]
 1764 01c8 7B68     		ldr	r3, [r7, #4]
 1765 01ca 1B68     		ldr	r3, [r3]
 1766 01cc 42F00102 		orr	r2, r2, #1
 1767 01d0 1A60     		str	r2, [r3]
 823:Drivers/STM32H7xx_HAL_Driver/Src/stm32h7xx_hal_tim.c ****     if (!IS_TIM_SLAVEMODE_TRIGGER_ENABLED(tmpsmcr))
 1768              		.loc 1 823 8
 1769 01d2 08E0     		b	.L95
 1770              	.L92:
 826:Drivers/STM32H7xx_HAL_Driver/Src/stm32h7xx_hal_tim.c ****     }
 827:Drivers/STM32H7xx_HAL_Driver/Src/stm32h7xx_hal_tim.c ****   }
 828:Drivers/STM32H7xx_HAL_Driver/Src/stm32h7xx_hal_tim.c ****   else
 829:Drivers/STM32H7xx_HAL_Driver/Src/stm32h7xx_hal_tim.c ****   {
 830:Drivers/STM32H7xx_HAL_Driver/Src/stm32h7xx_hal_tim.c ****     __HAL_TIM_ENABLE(htim);
 1771              		.loc 1 830 5
 1772 01d4 7B68     		ldr	r3, [r7, #4]
 1773 01d6 1B68     		ldr	r3, [r3]
 1774 01d8 1A68     		ldr	r2, [r3]
 1775 01da 7B68     		ldr	r3, [r7, #4]
 1776 01dc 1B68     		ldr	r3, [r3]
 1777 01de 42F00102 		orr	r2, r2, #1
 1778 01e2 1A60     		str	r2, [r3]
 1779 01e4 00E0     		b	.L94
 1780              	.L95:
 823:Drivers/STM32H7xx_HAL_Driver/Src/stm32h7xx_hal_tim.c ****     {
 1781              		.loc 1 823 8
 1782 01e6 00BF     		nop
 1783              	.L94:
 831:Drivers/STM32H7xx_HAL_Driver/Src/stm32h7xx_hal_tim.c ****   }
 832:Drivers/STM32H7xx_HAL_Driver/Src/stm32h7xx_hal_tim.c **** 
 833:Drivers/STM32H7xx_HAL_Driver/Src/stm32h7xx_hal_tim.c ****   /* Return function status */
 834:Drivers/STM32H7xx_HAL_Driver/Src/stm32h7xx_hal_tim.c ****   return HAL_OK;
 1784              		.loc 1 834 10
 1785 01e8 0023     		movs	r3, #0
 1786              	.L76:
 835:Drivers/STM32H7xx_HAL_Driver/Src/stm32h7xx_hal_tim.c **** }
 1787              		.loc 1 835 1
 1788 01ea 1846     		mov	r0, r3
 1789 01ec 1037     		adds	r7, r7, #16
 1790              	.LCFI81:
 1791              		.cfi_def_cfa_offset 8
 1792 01ee BD46     		mov	sp, r7
 1793              	.LCFI82:
 1794              		.cfi_def_cfa_register 13
 1795              		@ sp needed
 1796 01f0 80BD     		pop	{r7, pc}
 1797              	.L97:
 1798 01f2 00BF     		.align	2
 1799              	.L96:
 1800 01f4 00000140 		.word	1073807360
 1801 01f8 00040140 		.word	1073808384
 1802 01fc 00400140 		.word	1073823744
 1803 0200 00440140 		.word	1073824768
 1804 0204 00480140 		.word	1073825792
 1805 0208 00040040 		.word	1073742848
 1806 020c 00080040 		.word	1073743872
 1807 0210 000C0040 		.word	1073744896
ARM GAS  C:\Users\TGSPOC~1\AppData\Local\Temp\cchOEqPT.s 			page 47


 1808 0214 00180040 		.word	1073747968
 1809 0218 07000100 		.word	65543
 1810              		.cfi_endproc
 1811              	.LFE158:
 1813              		.section	.text.HAL_TIM_OC_Stop,"ax",%progbits
 1814              		.align	1
 1815              		.global	HAL_TIM_OC_Stop
 1816              		.syntax unified
 1817              		.thumb
 1818              		.thumb_func
 1820              	HAL_TIM_OC_Stop:
 1821              	.LFB159:
 836:Drivers/STM32H7xx_HAL_Driver/Src/stm32h7xx_hal_tim.c **** 
 837:Drivers/STM32H7xx_HAL_Driver/Src/stm32h7xx_hal_tim.c **** /**
 838:Drivers/STM32H7xx_HAL_Driver/Src/stm32h7xx_hal_tim.c ****   * @brief  Stops the TIM Output Compare signal generation.
 839:Drivers/STM32H7xx_HAL_Driver/Src/stm32h7xx_hal_tim.c ****   * @param  htim TIM Output Compare handle
 840:Drivers/STM32H7xx_HAL_Driver/Src/stm32h7xx_hal_tim.c ****   * @param  Channel TIM Channel to be disabled
 841:Drivers/STM32H7xx_HAL_Driver/Src/stm32h7xx_hal_tim.c ****   *          This parameter can be one of the following values:
 842:Drivers/STM32H7xx_HAL_Driver/Src/stm32h7xx_hal_tim.c ****   *            @arg TIM_CHANNEL_1: TIM Channel 1 selected
 843:Drivers/STM32H7xx_HAL_Driver/Src/stm32h7xx_hal_tim.c ****   *            @arg TIM_CHANNEL_2: TIM Channel 2 selected
 844:Drivers/STM32H7xx_HAL_Driver/Src/stm32h7xx_hal_tim.c ****   *            @arg TIM_CHANNEL_3: TIM Channel 3 selected
 845:Drivers/STM32H7xx_HAL_Driver/Src/stm32h7xx_hal_tim.c ****   *            @arg TIM_CHANNEL_4: TIM Channel 4 selected
 846:Drivers/STM32H7xx_HAL_Driver/Src/stm32h7xx_hal_tim.c ****   *            @arg TIM_CHANNEL_5: TIM Channel 5 selected
 847:Drivers/STM32H7xx_HAL_Driver/Src/stm32h7xx_hal_tim.c ****   *            @arg TIM_CHANNEL_6: TIM Channel 6 selected
 848:Drivers/STM32H7xx_HAL_Driver/Src/stm32h7xx_hal_tim.c ****   * @retval HAL status
 849:Drivers/STM32H7xx_HAL_Driver/Src/stm32h7xx_hal_tim.c ****   */
 850:Drivers/STM32H7xx_HAL_Driver/Src/stm32h7xx_hal_tim.c **** HAL_StatusTypeDef HAL_TIM_OC_Stop(TIM_HandleTypeDef *htim, uint32_t Channel)
 851:Drivers/STM32H7xx_HAL_Driver/Src/stm32h7xx_hal_tim.c **** {
 1822              		.loc 1 851 1
 1823              		.cfi_startproc
 1824              		@ args = 0, pretend = 0, frame = 8
 1825              		@ frame_needed = 1, uses_anonymous_args = 0
 1826 0000 80B5     		push	{r7, lr}
 1827              	.LCFI83:
 1828              		.cfi_def_cfa_offset 8
 1829              		.cfi_offset 7, -8
 1830              		.cfi_offset 14, -4
 1831 0002 82B0     		sub	sp, sp, #8
 1832              	.LCFI84:
 1833              		.cfi_def_cfa_offset 16
 1834 0004 00AF     		add	r7, sp, #0
 1835              	.LCFI85:
 1836              		.cfi_def_cfa_register 7
 1837 0006 7860     		str	r0, [r7, #4]
 1838 0008 3960     		str	r1, [r7]
 852:Drivers/STM32H7xx_HAL_Driver/Src/stm32h7xx_hal_tim.c ****   /* Check the parameters */
 853:Drivers/STM32H7xx_HAL_Driver/Src/stm32h7xx_hal_tim.c ****   assert_param(IS_TIM_CCX_INSTANCE(htim->Instance, Channel));
 854:Drivers/STM32H7xx_HAL_Driver/Src/stm32h7xx_hal_tim.c **** 
 855:Drivers/STM32H7xx_HAL_Driver/Src/stm32h7xx_hal_tim.c ****   /* Disable the Output compare channel */
 856:Drivers/STM32H7xx_HAL_Driver/Src/stm32h7xx_hal_tim.c ****   TIM_CCxChannelCmd(htim->Instance, Channel, TIM_CCx_DISABLE);
 1839              		.loc 1 856 3
 1840 000a 7B68     		ldr	r3, [r7, #4]
 1841 000c 1B68     		ldr	r3, [r3]
 1842 000e 0022     		movs	r2, #0
 1843 0010 3968     		ldr	r1, [r7]
 1844 0012 1846     		mov	r0, r3
 1845 0014 FFF7FEFF 		bl	TIM_CCxChannelCmd
ARM GAS  C:\Users\TGSPOC~1\AppData\Local\Temp\cchOEqPT.s 			page 48


 857:Drivers/STM32H7xx_HAL_Driver/Src/stm32h7xx_hal_tim.c **** 
 858:Drivers/STM32H7xx_HAL_Driver/Src/stm32h7xx_hal_tim.c ****   if (IS_TIM_BREAK_INSTANCE(htim->Instance) != RESET)
 1846              		.loc 1 858 7
 1847 0018 7B68     		ldr	r3, [r7, #4]
 1848 001a 1B68     		ldr	r3, [r3]
 1849 001c 3E4A     		ldr	r2, .L115
 1850 001e 9342     		cmp	r3, r2
 1851 0020 13D0     		beq	.L99
 1852              		.loc 1 858 7 is_stmt 0 discriminator 2
 1853 0022 7B68     		ldr	r3, [r7, #4]
 1854 0024 1B68     		ldr	r3, [r3]
 1855 0026 3D4A     		ldr	r2, .L115+4
 1856 0028 9342     		cmp	r3, r2
 1857 002a 0ED0     		beq	.L99
 1858              		.loc 1 858 7 discriminator 4
 1859 002c 7B68     		ldr	r3, [r7, #4]
 1860 002e 1B68     		ldr	r3, [r3]
 1861 0030 3B4A     		ldr	r2, .L115+8
 1862 0032 9342     		cmp	r3, r2
 1863 0034 09D0     		beq	.L99
 1864              		.loc 1 858 7 discriminator 6
 1865 0036 7B68     		ldr	r3, [r7, #4]
 1866 0038 1B68     		ldr	r3, [r3]
 1867 003a 3A4A     		ldr	r2, .L115+12
 1868 003c 9342     		cmp	r3, r2
 1869 003e 04D0     		beq	.L99
 1870              		.loc 1 858 7 discriminator 8
 1871 0040 7B68     		ldr	r3, [r7, #4]
 1872 0042 1B68     		ldr	r3, [r3]
 1873 0044 384A     		ldr	r2, .L115+16
 1874 0046 9342     		cmp	r3, r2
 1875 0048 01D1     		bne	.L100
 1876              	.L99:
 1877              		.loc 1 858 7 discriminator 9
 1878 004a 0123     		movs	r3, #1
 1879              		.loc 1 858 7
 1880 004c 00E0     		b	.L101
 1881              	.L100:
 1882              		.loc 1 858 7 discriminator 10
 1883 004e 0023     		movs	r3, #0
 1884              	.L101:
 1885              		.loc 1 858 6 is_stmt 1 discriminator 12
 1886 0050 002B     		cmp	r3, #0
 1887 0052 17D0     		beq	.L102
 859:Drivers/STM32H7xx_HAL_Driver/Src/stm32h7xx_hal_tim.c ****   {
 860:Drivers/STM32H7xx_HAL_Driver/Src/stm32h7xx_hal_tim.c ****     /* Disable the Main Output */
 861:Drivers/STM32H7xx_HAL_Driver/Src/stm32h7xx_hal_tim.c ****     __HAL_TIM_MOE_DISABLE(htim);
 1888              		.loc 1 861 5
 1889 0054 7B68     		ldr	r3, [r7, #4]
 1890 0056 1B68     		ldr	r3, [r3]
 1891 0058 1A6A     		ldr	r2, [r3, #32]
 1892 005a 41F21113 		movw	r3, #4369
 1893 005e 1340     		ands	r3, r3, r2
 1894 0060 002B     		cmp	r3, #0
 1895 0062 0FD1     		bne	.L102
 1896              		.loc 1 861 5 is_stmt 0 discriminator 1
 1897 0064 7B68     		ldr	r3, [r7, #4]
ARM GAS  C:\Users\TGSPOC~1\AppData\Local\Temp\cchOEqPT.s 			page 49


 1898 0066 1B68     		ldr	r3, [r3]
 1899 0068 1A6A     		ldr	r2, [r3, #32]
 1900 006a 40F24443 		movw	r3, #1092
 1901 006e 1340     		ands	r3, r3, r2
 1902 0070 002B     		cmp	r3, #0
 1903 0072 07D1     		bne	.L102
 1904              		.loc 1 861 5 discriminator 2
 1905 0074 7B68     		ldr	r3, [r7, #4]
 1906 0076 1B68     		ldr	r3, [r3]
 1907 0078 5A6C     		ldr	r2, [r3, #68]
 1908 007a 7B68     		ldr	r3, [r7, #4]
 1909 007c 1B68     		ldr	r3, [r3]
 1910 007e 22F40042 		bic	r2, r2, #32768
 1911 0082 5A64     		str	r2, [r3, #68]
 1912              	.L102:
 862:Drivers/STM32H7xx_HAL_Driver/Src/stm32h7xx_hal_tim.c ****   }
 863:Drivers/STM32H7xx_HAL_Driver/Src/stm32h7xx_hal_tim.c **** 
 864:Drivers/STM32H7xx_HAL_Driver/Src/stm32h7xx_hal_tim.c ****   /* Disable the Peripheral */
 865:Drivers/STM32H7xx_HAL_Driver/Src/stm32h7xx_hal_tim.c ****   __HAL_TIM_DISABLE(htim);
 1913              		.loc 1 865 3 is_stmt 1
 1914 0084 7B68     		ldr	r3, [r7, #4]
 1915 0086 1B68     		ldr	r3, [r3]
 1916 0088 1A6A     		ldr	r2, [r3, #32]
 1917 008a 41F21113 		movw	r3, #4369
 1918 008e 1340     		ands	r3, r3, r2
 1919 0090 002B     		cmp	r3, #0
 1920 0092 0FD1     		bne	.L103
 1921              		.loc 1 865 3 is_stmt 0 discriminator 1
 1922 0094 7B68     		ldr	r3, [r7, #4]
 1923 0096 1B68     		ldr	r3, [r3]
 1924 0098 1A6A     		ldr	r2, [r3, #32]
 1925 009a 40F24443 		movw	r3, #1092
 1926 009e 1340     		ands	r3, r3, r2
 1927 00a0 002B     		cmp	r3, #0
 1928 00a2 07D1     		bne	.L103
 1929              		.loc 1 865 3 discriminator 2
 1930 00a4 7B68     		ldr	r3, [r7, #4]
 1931 00a6 1B68     		ldr	r3, [r3]
 1932 00a8 1A68     		ldr	r2, [r3]
 1933 00aa 7B68     		ldr	r3, [r7, #4]
 1934 00ac 1B68     		ldr	r3, [r3]
 1935 00ae 22F00102 		bic	r2, r2, #1
 1936 00b2 1A60     		str	r2, [r3]
 1937              	.L103:
 866:Drivers/STM32H7xx_HAL_Driver/Src/stm32h7xx_hal_tim.c **** 
 867:Drivers/STM32H7xx_HAL_Driver/Src/stm32h7xx_hal_tim.c ****   /* Set the TIM channel state */
 868:Drivers/STM32H7xx_HAL_Driver/Src/stm32h7xx_hal_tim.c ****   TIM_CHANNEL_STATE_SET(htim, Channel, HAL_TIM_CHANNEL_STATE_READY);
 1938              		.loc 1 868 3 is_stmt 1
 1939 00b4 3B68     		ldr	r3, [r7]
 1940 00b6 002B     		cmp	r3, #0
 1941 00b8 04D1     		bne	.L104
 1942              		.loc 1 868 3 is_stmt 0 discriminator 1
 1943 00ba 7B68     		ldr	r3, [r7, #4]
 1944 00bc 0122     		movs	r2, #1
 1945 00be 83F83E20 		strb	r2, [r3, #62]
 1946 00c2 23E0     		b	.L105
 1947              	.L104:
ARM GAS  C:\Users\TGSPOC~1\AppData\Local\Temp\cchOEqPT.s 			page 50


 1948              		.loc 1 868 3 discriminator 2
 1949 00c4 3B68     		ldr	r3, [r7]
 1950 00c6 042B     		cmp	r3, #4
 1951 00c8 04D1     		bne	.L106
 1952              		.loc 1 868 3 discriminator 3
 1953 00ca 7B68     		ldr	r3, [r7, #4]
 1954 00cc 0122     		movs	r2, #1
 1955 00ce 83F83F20 		strb	r2, [r3, #63]
 1956 00d2 1BE0     		b	.L105
 1957              	.L106:
 1958              		.loc 1 868 3 discriminator 4
 1959 00d4 3B68     		ldr	r3, [r7]
 1960 00d6 082B     		cmp	r3, #8
 1961 00d8 04D1     		bne	.L108
 1962              		.loc 1 868 3 discriminator 6
 1963 00da 7B68     		ldr	r3, [r7, #4]
 1964 00dc 0122     		movs	r2, #1
 1965 00de 83F84020 		strb	r2, [r3, #64]
 1966 00e2 13E0     		b	.L105
 1967              	.L108:
 1968              		.loc 1 868 3 discriminator 7
 1969 00e4 3B68     		ldr	r3, [r7]
 1970 00e6 0C2B     		cmp	r3, #12
 1971 00e8 04D1     		bne	.L110
 1972              		.loc 1 868 3 discriminator 9
 1973 00ea 7B68     		ldr	r3, [r7, #4]
 1974 00ec 0122     		movs	r2, #1
 1975 00ee 83F84120 		strb	r2, [r3, #65]
 1976 00f2 0BE0     		b	.L105
 1977              	.L110:
 1978              		.loc 1 868 3 discriminator 10
 1979 00f4 3B68     		ldr	r3, [r7]
 1980 00f6 102B     		cmp	r3, #16
 1981 00f8 04D1     		bne	.L112
 1982              		.loc 1 868 3 discriminator 12
 1983 00fa 7B68     		ldr	r3, [r7, #4]
 1984 00fc 0122     		movs	r2, #1
 1985 00fe 83F84220 		strb	r2, [r3, #66]
 1986 0102 03E0     		b	.L105
 1987              	.L112:
 1988              		.loc 1 868 3 discriminator 13
 1989 0104 7B68     		ldr	r3, [r7, #4]
 1990 0106 0122     		movs	r2, #1
 1991 0108 83F84320 		strb	r2, [r3, #67]
 1992              	.L105:
 869:Drivers/STM32H7xx_HAL_Driver/Src/stm32h7xx_hal_tim.c **** 
 870:Drivers/STM32H7xx_HAL_Driver/Src/stm32h7xx_hal_tim.c ****   /* Return function status */
 871:Drivers/STM32H7xx_HAL_Driver/Src/stm32h7xx_hal_tim.c ****   return HAL_OK;
 1993              		.loc 1 871 10 is_stmt 1
 1994 010c 0023     		movs	r3, #0
 872:Drivers/STM32H7xx_HAL_Driver/Src/stm32h7xx_hal_tim.c **** }
 1995              		.loc 1 872 1
 1996 010e 1846     		mov	r0, r3
 1997 0110 0837     		adds	r7, r7, #8
 1998              	.LCFI86:
 1999              		.cfi_def_cfa_offset 8
 2000 0112 BD46     		mov	sp, r7
ARM GAS  C:\Users\TGSPOC~1\AppData\Local\Temp\cchOEqPT.s 			page 51


 2001              	.LCFI87:
 2002              		.cfi_def_cfa_register 13
 2003              		@ sp needed
 2004 0114 80BD     		pop	{r7, pc}
 2005              	.L116:
 2006 0116 00BF     		.align	2
 2007              	.L115:
 2008 0118 00000140 		.word	1073807360
 2009 011c 00040140 		.word	1073808384
 2010 0120 00400140 		.word	1073823744
 2011 0124 00440140 		.word	1073824768
 2012 0128 00480140 		.word	1073825792
 2013              		.cfi_endproc
 2014              	.LFE159:
 2016              		.section	.text.HAL_TIM_OC_Start_IT,"ax",%progbits
 2017              		.align	1
 2018              		.global	HAL_TIM_OC_Start_IT
 2019              		.syntax unified
 2020              		.thumb
 2021              		.thumb_func
 2023              	HAL_TIM_OC_Start_IT:
 2024              	.LFB160:
 873:Drivers/STM32H7xx_HAL_Driver/Src/stm32h7xx_hal_tim.c **** 
 874:Drivers/STM32H7xx_HAL_Driver/Src/stm32h7xx_hal_tim.c **** /**
 875:Drivers/STM32H7xx_HAL_Driver/Src/stm32h7xx_hal_tim.c ****   * @brief  Starts the TIM Output Compare signal generation in interrupt mode.
 876:Drivers/STM32H7xx_HAL_Driver/Src/stm32h7xx_hal_tim.c ****   * @param  htim TIM Output Compare handle
 877:Drivers/STM32H7xx_HAL_Driver/Src/stm32h7xx_hal_tim.c ****   * @param  Channel TIM Channel to be enabled
 878:Drivers/STM32H7xx_HAL_Driver/Src/stm32h7xx_hal_tim.c ****   *          This parameter can be one of the following values:
 879:Drivers/STM32H7xx_HAL_Driver/Src/stm32h7xx_hal_tim.c ****   *            @arg TIM_CHANNEL_1: TIM Channel 1 selected
 880:Drivers/STM32H7xx_HAL_Driver/Src/stm32h7xx_hal_tim.c ****   *            @arg TIM_CHANNEL_2: TIM Channel 2 selected
 881:Drivers/STM32H7xx_HAL_Driver/Src/stm32h7xx_hal_tim.c ****   *            @arg TIM_CHANNEL_3: TIM Channel 3 selected
 882:Drivers/STM32H7xx_HAL_Driver/Src/stm32h7xx_hal_tim.c ****   *            @arg TIM_CHANNEL_4: TIM Channel 4 selected
 883:Drivers/STM32H7xx_HAL_Driver/Src/stm32h7xx_hal_tim.c ****   * @retval HAL status
 884:Drivers/STM32H7xx_HAL_Driver/Src/stm32h7xx_hal_tim.c ****   */
 885:Drivers/STM32H7xx_HAL_Driver/Src/stm32h7xx_hal_tim.c **** HAL_StatusTypeDef HAL_TIM_OC_Start_IT(TIM_HandleTypeDef *htim, uint32_t Channel)
 886:Drivers/STM32H7xx_HAL_Driver/Src/stm32h7xx_hal_tim.c **** {
 2025              		.loc 1 886 1
 2026              		.cfi_startproc
 2027              		@ args = 0, pretend = 0, frame = 16
 2028              		@ frame_needed = 1, uses_anonymous_args = 0
 2029 0000 80B5     		push	{r7, lr}
 2030              	.LCFI88:
 2031              		.cfi_def_cfa_offset 8
 2032              		.cfi_offset 7, -8
 2033              		.cfi_offset 14, -4
 2034 0002 84B0     		sub	sp, sp, #16
 2035              	.LCFI89:
 2036              		.cfi_def_cfa_offset 24
 2037 0004 00AF     		add	r7, sp, #0
 2038              	.LCFI90:
 2039              		.cfi_def_cfa_register 7
 2040 0006 7860     		str	r0, [r7, #4]
 2041 0008 3960     		str	r1, [r7]
 887:Drivers/STM32H7xx_HAL_Driver/Src/stm32h7xx_hal_tim.c ****   HAL_StatusTypeDef status = HAL_OK;
 2042              		.loc 1 887 21
 2043 000a 0023     		movs	r3, #0
 2044 000c FB73     		strb	r3, [r7, #15]
ARM GAS  C:\Users\TGSPOC~1\AppData\Local\Temp\cchOEqPT.s 			page 52


 888:Drivers/STM32H7xx_HAL_Driver/Src/stm32h7xx_hal_tim.c ****   uint32_t tmpsmcr;
 889:Drivers/STM32H7xx_HAL_Driver/Src/stm32h7xx_hal_tim.c **** 
 890:Drivers/STM32H7xx_HAL_Driver/Src/stm32h7xx_hal_tim.c ****   /* Check the parameters */
 891:Drivers/STM32H7xx_HAL_Driver/Src/stm32h7xx_hal_tim.c ****   assert_param(IS_TIM_CCX_CHANNEL(htim->Instance, Channel));
 892:Drivers/STM32H7xx_HAL_Driver/Src/stm32h7xx_hal_tim.c **** 
 893:Drivers/STM32H7xx_HAL_Driver/Src/stm32h7xx_hal_tim.c ****   /* Check the TIM channel state */
 894:Drivers/STM32H7xx_HAL_Driver/Src/stm32h7xx_hal_tim.c ****   if (TIM_CHANNEL_STATE_GET(htim, Channel) != HAL_TIM_CHANNEL_STATE_READY)
 2045              		.loc 1 894 44
 2046 000e 3B68     		ldr	r3, [r7]
 2047 0010 002B     		cmp	r3, #0
 2048 0012 09D1     		bne	.L118
 2049              		.loc 1 894 7 discriminator 1
 2050 0014 7B68     		ldr	r3, [r7, #4]
 2051 0016 93F83E30 		ldrb	r3, [r3, #62]
 2052 001a DBB2     		uxtb	r3, r3
 2053              		.loc 1 894 44 discriminator 1
 2054 001c 012B     		cmp	r3, #1
 2055 001e 14BF     		ite	ne
 2056 0020 0123     		movne	r3, #1
 2057 0022 0023     		moveq	r3, #0
 2058 0024 DBB2     		uxtb	r3, r3
 2059 0026 3CE0     		b	.L119
 2060              	.L118:
 2061              		.loc 1 894 44 is_stmt 0 discriminator 2
 2062 0028 3B68     		ldr	r3, [r7]
 2063 002a 042B     		cmp	r3, #4
 2064 002c 09D1     		bne	.L120
 2065              		.loc 1 894 7 is_stmt 1 discriminator 4
 2066 002e 7B68     		ldr	r3, [r7, #4]
 2067 0030 93F83F30 		ldrb	r3, [r3, #63]
 2068 0034 DBB2     		uxtb	r3, r3
 2069              		.loc 1 894 44 discriminator 4
 2070 0036 012B     		cmp	r3, #1
 2071 0038 14BF     		ite	ne
 2072 003a 0123     		movne	r3, #1
 2073 003c 0023     		moveq	r3, #0
 2074 003e DBB2     		uxtb	r3, r3
 2075 0040 2FE0     		b	.L119
 2076              	.L120:
 2077              		.loc 1 894 44 is_stmt 0 discriminator 5
 2078 0042 3B68     		ldr	r3, [r7]
 2079 0044 082B     		cmp	r3, #8
 2080 0046 09D1     		bne	.L122
 2081              		.loc 1 894 7 is_stmt 1 discriminator 7
 2082 0048 7B68     		ldr	r3, [r7, #4]
 2083 004a 93F84030 		ldrb	r3, [r3, #64]
 2084 004e DBB2     		uxtb	r3, r3
 2085              		.loc 1 894 44 discriminator 7
 2086 0050 012B     		cmp	r3, #1
 2087 0052 14BF     		ite	ne
 2088 0054 0123     		movne	r3, #1
 2089 0056 0023     		moveq	r3, #0
 2090 0058 DBB2     		uxtb	r3, r3
 2091 005a 22E0     		b	.L119
 2092              	.L122:
 2093              		.loc 1 894 44 is_stmt 0 discriminator 8
 2094 005c 3B68     		ldr	r3, [r7]
ARM GAS  C:\Users\TGSPOC~1\AppData\Local\Temp\cchOEqPT.s 			page 53


 2095 005e 0C2B     		cmp	r3, #12
 2096 0060 09D1     		bne	.L124
 2097              		.loc 1 894 7 is_stmt 1 discriminator 10
 2098 0062 7B68     		ldr	r3, [r7, #4]
 2099 0064 93F84130 		ldrb	r3, [r3, #65]
 2100 0068 DBB2     		uxtb	r3, r3
 2101              		.loc 1 894 44 discriminator 10
 2102 006a 012B     		cmp	r3, #1
 2103 006c 14BF     		ite	ne
 2104 006e 0123     		movne	r3, #1
 2105 0070 0023     		moveq	r3, #0
 2106 0072 DBB2     		uxtb	r3, r3
 2107 0074 15E0     		b	.L119
 2108              	.L124:
 2109              		.loc 1 894 44 is_stmt 0 discriminator 11
 2110 0076 3B68     		ldr	r3, [r7]
 2111 0078 102B     		cmp	r3, #16
 2112 007a 09D1     		bne	.L126
 2113              		.loc 1 894 7 is_stmt 1 discriminator 13
 2114 007c 7B68     		ldr	r3, [r7, #4]
 2115 007e 93F84230 		ldrb	r3, [r3, #66]
 2116 0082 DBB2     		uxtb	r3, r3
 2117              		.loc 1 894 44 discriminator 13
 2118 0084 012B     		cmp	r3, #1
 2119 0086 14BF     		ite	ne
 2120 0088 0123     		movne	r3, #1
 2121 008a 0023     		moveq	r3, #0
 2122 008c DBB2     		uxtb	r3, r3
 2123 008e 08E0     		b	.L119
 2124              	.L126:
 2125              		.loc 1 894 7 discriminator 14
 2126 0090 7B68     		ldr	r3, [r7, #4]
 2127 0092 93F84330 		ldrb	r3, [r3, #67]
 2128 0096 DBB2     		uxtb	r3, r3
 2129              		.loc 1 894 44 discriminator 14
 2130 0098 012B     		cmp	r3, #1
 2131 009a 14BF     		ite	ne
 2132 009c 0123     		movne	r3, #1
 2133 009e 0023     		moveq	r3, #0
 2134 00a0 DBB2     		uxtb	r3, r3
 2135              	.L119:
 2136              		.loc 1 894 6 discriminator 20
 2137 00a2 002B     		cmp	r3, #0
 2138 00a4 01D0     		beq	.L128
 895:Drivers/STM32H7xx_HAL_Driver/Src/stm32h7xx_hal_tim.c ****   {
 896:Drivers/STM32H7xx_HAL_Driver/Src/stm32h7xx_hal_tim.c ****     return HAL_ERROR;
 2139              		.loc 1 896 12
 2140 00a6 0123     		movs	r3, #1
 2141 00a8 ECE0     		b	.L129
 2142              	.L128:
 897:Drivers/STM32H7xx_HAL_Driver/Src/stm32h7xx_hal_tim.c ****   }
 898:Drivers/STM32H7xx_HAL_Driver/Src/stm32h7xx_hal_tim.c **** 
 899:Drivers/STM32H7xx_HAL_Driver/Src/stm32h7xx_hal_tim.c ****   /* Set the TIM channel state */
 900:Drivers/STM32H7xx_HAL_Driver/Src/stm32h7xx_hal_tim.c ****   TIM_CHANNEL_STATE_SET(htim, Channel, HAL_TIM_CHANNEL_STATE_BUSY);
 2143              		.loc 1 900 3
 2144 00aa 3B68     		ldr	r3, [r7]
 2145 00ac 002B     		cmp	r3, #0
ARM GAS  C:\Users\TGSPOC~1\AppData\Local\Temp\cchOEqPT.s 			page 54


 2146 00ae 04D1     		bne	.L130
 2147              		.loc 1 900 3 is_stmt 0 discriminator 1
 2148 00b0 7B68     		ldr	r3, [r7, #4]
 2149 00b2 0222     		movs	r2, #2
 2150 00b4 83F83E20 		strb	r2, [r3, #62]
 2151 00b8 23E0     		b	.L131
 2152              	.L130:
 2153              		.loc 1 900 3 discriminator 2
 2154 00ba 3B68     		ldr	r3, [r7]
 2155 00bc 042B     		cmp	r3, #4
 2156 00be 04D1     		bne	.L132
 2157              		.loc 1 900 3 discriminator 3
 2158 00c0 7B68     		ldr	r3, [r7, #4]
 2159 00c2 0222     		movs	r2, #2
 2160 00c4 83F83F20 		strb	r2, [r3, #63]
 2161 00c8 1BE0     		b	.L131
 2162              	.L132:
 2163              		.loc 1 900 3 discriminator 4
 2164 00ca 3B68     		ldr	r3, [r7]
 2165 00cc 082B     		cmp	r3, #8
 2166 00ce 04D1     		bne	.L134
 2167              		.loc 1 900 3 discriminator 6
 2168 00d0 7B68     		ldr	r3, [r7, #4]
 2169 00d2 0222     		movs	r2, #2
 2170 00d4 83F84020 		strb	r2, [r3, #64]
 2171 00d8 13E0     		b	.L131
 2172              	.L134:
 2173              		.loc 1 900 3 discriminator 7
 2174 00da 3B68     		ldr	r3, [r7]
 2175 00dc 0C2B     		cmp	r3, #12
 2176 00de 04D1     		bne	.L136
 2177              		.loc 1 900 3 discriminator 9
 2178 00e0 7B68     		ldr	r3, [r7, #4]
 2179 00e2 0222     		movs	r2, #2
 2180 00e4 83F84120 		strb	r2, [r3, #65]
 2181 00e8 0BE0     		b	.L131
 2182              	.L136:
 2183              		.loc 1 900 3 discriminator 10
 2184 00ea 3B68     		ldr	r3, [r7]
 2185 00ec 102B     		cmp	r3, #16
 2186 00ee 04D1     		bne	.L138
 2187              		.loc 1 900 3 discriminator 12
 2188 00f0 7B68     		ldr	r3, [r7, #4]
 2189 00f2 0222     		movs	r2, #2
 2190 00f4 83F84220 		strb	r2, [r3, #66]
 2191 00f8 03E0     		b	.L131
 2192              	.L138:
 2193              		.loc 1 900 3 discriminator 13
 2194 00fa 7B68     		ldr	r3, [r7, #4]
 2195 00fc 0222     		movs	r2, #2
 2196 00fe 83F84320 		strb	r2, [r3, #67]
 2197              	.L131:
 901:Drivers/STM32H7xx_HAL_Driver/Src/stm32h7xx_hal_tim.c **** 
 902:Drivers/STM32H7xx_HAL_Driver/Src/stm32h7xx_hal_tim.c ****   switch (Channel)
 2198              		.loc 1 902 3 is_stmt 1
 2199 0102 3B68     		ldr	r3, [r7]
 2200 0104 0C2B     		cmp	r3, #12
ARM GAS  C:\Users\TGSPOC~1\AppData\Local\Temp\cchOEqPT.s 			page 55


 2201 0106 41D8     		bhi	.L140
 2202 0108 01A2     		adr	r2, .L142
 2203 010a 52F823F0 		ldr	pc, [r2, r3, lsl #2]
 2204 010e 00BF     		.p2align 2
 2205              	.L142:
 2206 0110 45010000 		.word	.L145+1
 2207 0114 8D010000 		.word	.L140+1
 2208 0118 8D010000 		.word	.L140+1
 2209 011c 8D010000 		.word	.L140+1
 2210 0120 57010000 		.word	.L144+1
 2211 0124 8D010000 		.word	.L140+1
 2212 0128 8D010000 		.word	.L140+1
 2213 012c 8D010000 		.word	.L140+1
 2214 0130 69010000 		.word	.L143+1
 2215 0134 8D010000 		.word	.L140+1
 2216 0138 8D010000 		.word	.L140+1
 2217 013c 8D010000 		.word	.L140+1
 2218 0140 7B010000 		.word	.L141+1
 2219              		.p2align 1
 2220              	.L145:
 903:Drivers/STM32H7xx_HAL_Driver/Src/stm32h7xx_hal_tim.c ****   {
 904:Drivers/STM32H7xx_HAL_Driver/Src/stm32h7xx_hal_tim.c ****     case TIM_CHANNEL_1:
 905:Drivers/STM32H7xx_HAL_Driver/Src/stm32h7xx_hal_tim.c ****     {
 906:Drivers/STM32H7xx_HAL_Driver/Src/stm32h7xx_hal_tim.c ****       /* Enable the TIM Capture/Compare 1 interrupt */
 907:Drivers/STM32H7xx_HAL_Driver/Src/stm32h7xx_hal_tim.c ****       __HAL_TIM_ENABLE_IT(htim, TIM_IT_CC1);
 2221              		.loc 1 907 7
 2222 0144 7B68     		ldr	r3, [r7, #4]
 2223 0146 1B68     		ldr	r3, [r3]
 2224 0148 DA68     		ldr	r2, [r3, #12]
 2225 014a 7B68     		ldr	r3, [r7, #4]
 2226 014c 1B68     		ldr	r3, [r3]
 2227 014e 42F00202 		orr	r2, r2, #2
 2228 0152 DA60     		str	r2, [r3, #12]
 908:Drivers/STM32H7xx_HAL_Driver/Src/stm32h7xx_hal_tim.c ****       break;
 2229              		.loc 1 908 7
 2230 0154 1DE0     		b	.L146
 2231              	.L144:
 909:Drivers/STM32H7xx_HAL_Driver/Src/stm32h7xx_hal_tim.c ****     }
 910:Drivers/STM32H7xx_HAL_Driver/Src/stm32h7xx_hal_tim.c **** 
 911:Drivers/STM32H7xx_HAL_Driver/Src/stm32h7xx_hal_tim.c ****     case TIM_CHANNEL_2:
 912:Drivers/STM32H7xx_HAL_Driver/Src/stm32h7xx_hal_tim.c ****     {
 913:Drivers/STM32H7xx_HAL_Driver/Src/stm32h7xx_hal_tim.c ****       /* Enable the TIM Capture/Compare 2 interrupt */
 914:Drivers/STM32H7xx_HAL_Driver/Src/stm32h7xx_hal_tim.c ****       __HAL_TIM_ENABLE_IT(htim, TIM_IT_CC2);
 2232              		.loc 1 914 7
 2233 0156 7B68     		ldr	r3, [r7, #4]
 2234 0158 1B68     		ldr	r3, [r3]
 2235 015a DA68     		ldr	r2, [r3, #12]
 2236 015c 7B68     		ldr	r3, [r7, #4]
 2237 015e 1B68     		ldr	r3, [r3]
 2238 0160 42F00402 		orr	r2, r2, #4
 2239 0164 DA60     		str	r2, [r3, #12]
 915:Drivers/STM32H7xx_HAL_Driver/Src/stm32h7xx_hal_tim.c ****       break;
 2240              		.loc 1 915 7
 2241 0166 14E0     		b	.L146
 2242              	.L143:
 916:Drivers/STM32H7xx_HAL_Driver/Src/stm32h7xx_hal_tim.c ****     }
 917:Drivers/STM32H7xx_HAL_Driver/Src/stm32h7xx_hal_tim.c **** 
ARM GAS  C:\Users\TGSPOC~1\AppData\Local\Temp\cchOEqPT.s 			page 56


 918:Drivers/STM32H7xx_HAL_Driver/Src/stm32h7xx_hal_tim.c ****     case TIM_CHANNEL_3:
 919:Drivers/STM32H7xx_HAL_Driver/Src/stm32h7xx_hal_tim.c ****     {
 920:Drivers/STM32H7xx_HAL_Driver/Src/stm32h7xx_hal_tim.c ****       /* Enable the TIM Capture/Compare 3 interrupt */
 921:Drivers/STM32H7xx_HAL_Driver/Src/stm32h7xx_hal_tim.c ****       __HAL_TIM_ENABLE_IT(htim, TIM_IT_CC3);
 2243              		.loc 1 921 7
 2244 0168 7B68     		ldr	r3, [r7, #4]
 2245 016a 1B68     		ldr	r3, [r3]
 2246 016c DA68     		ldr	r2, [r3, #12]
 2247 016e 7B68     		ldr	r3, [r7, #4]
 2248 0170 1B68     		ldr	r3, [r3]
 2249 0172 42F00802 		orr	r2, r2, #8
 2250 0176 DA60     		str	r2, [r3, #12]
 922:Drivers/STM32H7xx_HAL_Driver/Src/stm32h7xx_hal_tim.c ****       break;
 2251              		.loc 1 922 7
 2252 0178 0BE0     		b	.L146
 2253              	.L141:
 923:Drivers/STM32H7xx_HAL_Driver/Src/stm32h7xx_hal_tim.c ****     }
 924:Drivers/STM32H7xx_HAL_Driver/Src/stm32h7xx_hal_tim.c **** 
 925:Drivers/STM32H7xx_HAL_Driver/Src/stm32h7xx_hal_tim.c ****     case TIM_CHANNEL_4:
 926:Drivers/STM32H7xx_HAL_Driver/Src/stm32h7xx_hal_tim.c ****     {
 927:Drivers/STM32H7xx_HAL_Driver/Src/stm32h7xx_hal_tim.c ****       /* Enable the TIM Capture/Compare 4 interrupt */
 928:Drivers/STM32H7xx_HAL_Driver/Src/stm32h7xx_hal_tim.c ****       __HAL_TIM_ENABLE_IT(htim, TIM_IT_CC4);
 2254              		.loc 1 928 7
 2255 017a 7B68     		ldr	r3, [r7, #4]
 2256 017c 1B68     		ldr	r3, [r3]
 2257 017e DA68     		ldr	r2, [r3, #12]
 2258 0180 7B68     		ldr	r3, [r7, #4]
 2259 0182 1B68     		ldr	r3, [r3]
 2260 0184 42F01002 		orr	r2, r2, #16
 2261 0188 DA60     		str	r2, [r3, #12]
 929:Drivers/STM32H7xx_HAL_Driver/Src/stm32h7xx_hal_tim.c ****       break;
 2262              		.loc 1 929 7
 2263 018a 02E0     		b	.L146
 2264              	.L140:
 930:Drivers/STM32H7xx_HAL_Driver/Src/stm32h7xx_hal_tim.c ****     }
 931:Drivers/STM32H7xx_HAL_Driver/Src/stm32h7xx_hal_tim.c **** 
 932:Drivers/STM32H7xx_HAL_Driver/Src/stm32h7xx_hal_tim.c ****     default:
 933:Drivers/STM32H7xx_HAL_Driver/Src/stm32h7xx_hal_tim.c ****       status = HAL_ERROR;
 2265              		.loc 1 933 14
 2266 018c 0123     		movs	r3, #1
 2267 018e FB73     		strb	r3, [r7, #15]
 934:Drivers/STM32H7xx_HAL_Driver/Src/stm32h7xx_hal_tim.c ****       break;
 2268              		.loc 1 934 7
 2269 0190 00BF     		nop
 2270              	.L146:
 935:Drivers/STM32H7xx_HAL_Driver/Src/stm32h7xx_hal_tim.c ****   }
 936:Drivers/STM32H7xx_HAL_Driver/Src/stm32h7xx_hal_tim.c **** 
 937:Drivers/STM32H7xx_HAL_Driver/Src/stm32h7xx_hal_tim.c ****   if (status == HAL_OK)
 2271              		.loc 1 937 6
 2272 0192 FB7B     		ldrb	r3, [r7, #15]	@ zero_extendqisi2
 2273 0194 002B     		cmp	r3, #0
 2274 0196 74D1     		bne	.L147
 938:Drivers/STM32H7xx_HAL_Driver/Src/stm32h7xx_hal_tim.c ****   {
 939:Drivers/STM32H7xx_HAL_Driver/Src/stm32h7xx_hal_tim.c ****     /* Enable the Output compare channel */
 940:Drivers/STM32H7xx_HAL_Driver/Src/stm32h7xx_hal_tim.c ****     TIM_CCxChannelCmd(htim->Instance, Channel, TIM_CCx_ENABLE);
 2275              		.loc 1 940 5
 2276 0198 7B68     		ldr	r3, [r7, #4]
ARM GAS  C:\Users\TGSPOC~1\AppData\Local\Temp\cchOEqPT.s 			page 57


 2277 019a 1B68     		ldr	r3, [r3]
 2278 019c 0122     		movs	r2, #1
 2279 019e 3968     		ldr	r1, [r7]
 2280 01a0 1846     		mov	r0, r3
 2281 01a2 FFF7FEFF 		bl	TIM_CCxChannelCmd
 941:Drivers/STM32H7xx_HAL_Driver/Src/stm32h7xx_hal_tim.c **** 
 942:Drivers/STM32H7xx_HAL_Driver/Src/stm32h7xx_hal_tim.c ****     if (IS_TIM_BREAK_INSTANCE(htim->Instance) != RESET)
 2282              		.loc 1 942 9
 2283 01a6 7B68     		ldr	r3, [r7, #4]
 2284 01a8 1B68     		ldr	r3, [r3]
 2285 01aa 384A     		ldr	r2, .L156
 2286 01ac 9342     		cmp	r3, r2
 2287 01ae 13D0     		beq	.L148
 2288              		.loc 1 942 9 is_stmt 0 discriminator 2
 2289 01b0 7B68     		ldr	r3, [r7, #4]
 2290 01b2 1B68     		ldr	r3, [r3]
 2291 01b4 364A     		ldr	r2, .L156+4
 2292 01b6 9342     		cmp	r3, r2
 2293 01b8 0ED0     		beq	.L148
 2294              		.loc 1 942 9 discriminator 4
 2295 01ba 7B68     		ldr	r3, [r7, #4]
 2296 01bc 1B68     		ldr	r3, [r3]
 2297 01be 354A     		ldr	r2, .L156+8
 2298 01c0 9342     		cmp	r3, r2
 2299 01c2 09D0     		beq	.L148
 2300              		.loc 1 942 9 discriminator 6
 2301 01c4 7B68     		ldr	r3, [r7, #4]
 2302 01c6 1B68     		ldr	r3, [r3]
 2303 01c8 334A     		ldr	r2, .L156+12
 2304 01ca 9342     		cmp	r3, r2
 2305 01cc 04D0     		beq	.L148
 2306              		.loc 1 942 9 discriminator 8
 2307 01ce 7B68     		ldr	r3, [r7, #4]
 2308 01d0 1B68     		ldr	r3, [r3]
 2309 01d2 324A     		ldr	r2, .L156+16
 2310 01d4 9342     		cmp	r3, r2
 2311 01d6 01D1     		bne	.L149
 2312              	.L148:
 2313              		.loc 1 942 9 discriminator 9
 2314 01d8 0123     		movs	r3, #1
 2315              		.loc 1 942 9
 2316 01da 00E0     		b	.L150
 2317              	.L149:
 2318              		.loc 1 942 9 discriminator 10
 2319 01dc 0023     		movs	r3, #0
 2320              	.L150:
 2321              		.loc 1 942 8 is_stmt 1 discriminator 12
 2322 01de 002B     		cmp	r3, #0
 2323 01e0 07D0     		beq	.L151
 943:Drivers/STM32H7xx_HAL_Driver/Src/stm32h7xx_hal_tim.c ****     {
 944:Drivers/STM32H7xx_HAL_Driver/Src/stm32h7xx_hal_tim.c ****       /* Enable the main output */
 945:Drivers/STM32H7xx_HAL_Driver/Src/stm32h7xx_hal_tim.c ****       __HAL_TIM_MOE_ENABLE(htim);
 2324              		.loc 1 945 7
 2325 01e2 7B68     		ldr	r3, [r7, #4]
 2326 01e4 1B68     		ldr	r3, [r3]
 2327 01e6 5A6C     		ldr	r2, [r3, #68]
 2328 01e8 7B68     		ldr	r3, [r7, #4]
ARM GAS  C:\Users\TGSPOC~1\AppData\Local\Temp\cchOEqPT.s 			page 58


 2329 01ea 1B68     		ldr	r3, [r3]
 2330 01ec 42F40042 		orr	r2, r2, #32768
 2331 01f0 5A64     		str	r2, [r3, #68]
 2332              	.L151:
 946:Drivers/STM32H7xx_HAL_Driver/Src/stm32h7xx_hal_tim.c ****     }
 947:Drivers/STM32H7xx_HAL_Driver/Src/stm32h7xx_hal_tim.c **** 
 948:Drivers/STM32H7xx_HAL_Driver/Src/stm32h7xx_hal_tim.c ****     /* Enable the Peripheral, except in trigger mode where enable is automatically done with trigge
 949:Drivers/STM32H7xx_HAL_Driver/Src/stm32h7xx_hal_tim.c ****     if (IS_TIM_SLAVE_INSTANCE(htim->Instance))
 2333              		.loc 1 949 9
 2334 01f2 7B68     		ldr	r3, [r7, #4]
 2335 01f4 1B68     		ldr	r3, [r3]
 2336              		.loc 1 949 8
 2337 01f6 254A     		ldr	r2, .L156
 2338 01f8 9342     		cmp	r3, r2
 2339 01fa 22D0     		beq	.L152
 2340              		.loc 1 949 9 discriminator 1
 2341 01fc 7B68     		ldr	r3, [r7, #4]
 2342 01fe 1B68     		ldr	r3, [r3]
 2343 0200 B3F1804F 		cmp	r3, #1073741824
 2344 0204 1DD0     		beq	.L152
 2345              		.loc 1 949 9 is_stmt 0 discriminator 2
 2346 0206 7B68     		ldr	r3, [r7, #4]
 2347 0208 1B68     		ldr	r3, [r3]
 2348 020a 254A     		ldr	r2, .L156+20
 2349 020c 9342     		cmp	r3, r2
 2350 020e 18D0     		beq	.L152
 2351              		.loc 1 949 9 discriminator 3
 2352 0210 7B68     		ldr	r3, [r7, #4]
 2353 0212 1B68     		ldr	r3, [r3]
 2354 0214 234A     		ldr	r2, .L156+24
 2355 0216 9342     		cmp	r3, r2
 2356 0218 13D0     		beq	.L152
 2357              		.loc 1 949 9 discriminator 4
 2358 021a 7B68     		ldr	r3, [r7, #4]
 2359 021c 1B68     		ldr	r3, [r3]
 2360 021e 224A     		ldr	r2, .L156+28
 2361 0220 9342     		cmp	r3, r2
 2362 0222 0ED0     		beq	.L152
 2363              		.loc 1 949 9 discriminator 5
 2364 0224 7B68     		ldr	r3, [r7, #4]
 2365 0226 1B68     		ldr	r3, [r3]
 2366 0228 194A     		ldr	r2, .L156+4
 2367 022a 9342     		cmp	r3, r2
 2368 022c 09D0     		beq	.L152
 2369              		.loc 1 949 9 discriminator 6
 2370 022e 7B68     		ldr	r3, [r7, #4]
 2371 0230 1B68     		ldr	r3, [r3]
 2372 0232 1E4A     		ldr	r2, .L156+32
 2373 0234 9342     		cmp	r3, r2
 2374 0236 04D0     		beq	.L152
 2375              		.loc 1 949 9 discriminator 7
 2376 0238 7B68     		ldr	r3, [r7, #4]
 2377 023a 1B68     		ldr	r3, [r3]
 2378 023c 154A     		ldr	r2, .L156+8
 2379 023e 9342     		cmp	r3, r2
 2380 0240 15D1     		bne	.L153
 2381              	.L152:
ARM GAS  C:\Users\TGSPOC~1\AppData\Local\Temp\cchOEqPT.s 			page 59


 950:Drivers/STM32H7xx_HAL_Driver/Src/stm32h7xx_hal_tim.c ****     {
 951:Drivers/STM32H7xx_HAL_Driver/Src/stm32h7xx_hal_tim.c ****       tmpsmcr = htim->Instance->SMCR & TIM_SMCR_SMS;
 2382              		.loc 1 951 21 is_stmt 1
 2383 0242 7B68     		ldr	r3, [r7, #4]
 2384 0244 1B68     		ldr	r3, [r3]
 2385              		.loc 1 951 31
 2386 0246 9A68     		ldr	r2, [r3, #8]
 2387              		.loc 1 951 15
 2388 0248 194B     		ldr	r3, .L156+36
 2389 024a 1340     		ands	r3, r3, r2
 2390 024c BB60     		str	r3, [r7, #8]
 952:Drivers/STM32H7xx_HAL_Driver/Src/stm32h7xx_hal_tim.c ****       if (!IS_TIM_SLAVEMODE_TRIGGER_ENABLED(tmpsmcr))
 2391              		.loc 1 952 10
 2392 024e BB68     		ldr	r3, [r7, #8]
 2393 0250 062B     		cmp	r3, #6
 2394 0252 15D0     		beq	.L155
 2395              		.loc 1 952 11 discriminator 1
 2396 0254 BB68     		ldr	r3, [r7, #8]
 2397 0256 B3F5803F 		cmp	r3, #65536
 2398 025a 11D0     		beq	.L155
 953:Drivers/STM32H7xx_HAL_Driver/Src/stm32h7xx_hal_tim.c ****       {
 954:Drivers/STM32H7xx_HAL_Driver/Src/stm32h7xx_hal_tim.c ****         __HAL_TIM_ENABLE(htim);
 2399              		.loc 1 954 9
 2400 025c 7B68     		ldr	r3, [r7, #4]
 2401 025e 1B68     		ldr	r3, [r3]
 2402 0260 1A68     		ldr	r2, [r3]
 2403 0262 7B68     		ldr	r3, [r7, #4]
 2404 0264 1B68     		ldr	r3, [r3]
 2405 0266 42F00102 		orr	r2, r2, #1
 2406 026a 1A60     		str	r2, [r3]
 952:Drivers/STM32H7xx_HAL_Driver/Src/stm32h7xx_hal_tim.c ****       if (!IS_TIM_SLAVEMODE_TRIGGER_ENABLED(tmpsmcr))
 2407              		.loc 1 952 10
 2408 026c 08E0     		b	.L155
 2409              	.L153:
 955:Drivers/STM32H7xx_HAL_Driver/Src/stm32h7xx_hal_tim.c ****       }
 956:Drivers/STM32H7xx_HAL_Driver/Src/stm32h7xx_hal_tim.c ****     }
 957:Drivers/STM32H7xx_HAL_Driver/Src/stm32h7xx_hal_tim.c ****     else
 958:Drivers/STM32H7xx_HAL_Driver/Src/stm32h7xx_hal_tim.c ****     {
 959:Drivers/STM32H7xx_HAL_Driver/Src/stm32h7xx_hal_tim.c ****       __HAL_TIM_ENABLE(htim);
 2410              		.loc 1 959 7
 2411 026e 7B68     		ldr	r3, [r7, #4]
 2412 0270 1B68     		ldr	r3, [r3]
 2413 0272 1A68     		ldr	r2, [r3]
 2414 0274 7B68     		ldr	r3, [r7, #4]
 2415 0276 1B68     		ldr	r3, [r3]
 2416 0278 42F00102 		orr	r2, r2, #1
 2417 027c 1A60     		str	r2, [r3]
 2418 027e 00E0     		b	.L147
 2419              	.L155:
 952:Drivers/STM32H7xx_HAL_Driver/Src/stm32h7xx_hal_tim.c ****       {
 2420              		.loc 1 952 10
 2421 0280 00BF     		nop
 2422              	.L147:
 960:Drivers/STM32H7xx_HAL_Driver/Src/stm32h7xx_hal_tim.c ****     }
 961:Drivers/STM32H7xx_HAL_Driver/Src/stm32h7xx_hal_tim.c ****   }
 962:Drivers/STM32H7xx_HAL_Driver/Src/stm32h7xx_hal_tim.c **** 
 963:Drivers/STM32H7xx_HAL_Driver/Src/stm32h7xx_hal_tim.c ****   /* Return function status */
ARM GAS  C:\Users\TGSPOC~1\AppData\Local\Temp\cchOEqPT.s 			page 60


 964:Drivers/STM32H7xx_HAL_Driver/Src/stm32h7xx_hal_tim.c ****   return status;
 2423              		.loc 1 964 10
 2424 0282 FB7B     		ldrb	r3, [r7, #15]	@ zero_extendqisi2
 2425              	.L129:
 965:Drivers/STM32H7xx_HAL_Driver/Src/stm32h7xx_hal_tim.c **** }
 2426              		.loc 1 965 1
 2427 0284 1846     		mov	r0, r3
 2428 0286 1037     		adds	r7, r7, #16
 2429              	.LCFI91:
 2430              		.cfi_def_cfa_offset 8
 2431 0288 BD46     		mov	sp, r7
 2432              	.LCFI92:
 2433              		.cfi_def_cfa_register 13
 2434              		@ sp needed
 2435 028a 80BD     		pop	{r7, pc}
 2436              	.L157:
 2437              		.align	2
 2438              	.L156:
 2439 028c 00000140 		.word	1073807360
 2440 0290 00040140 		.word	1073808384
 2441 0294 00400140 		.word	1073823744
 2442 0298 00440140 		.word	1073824768
 2443 029c 00480140 		.word	1073825792
 2444 02a0 00040040 		.word	1073742848
 2445 02a4 00080040 		.word	1073743872
 2446 02a8 000C0040 		.word	1073744896
 2447 02ac 00180040 		.word	1073747968
 2448 02b0 07000100 		.word	65543
 2449              		.cfi_endproc
 2450              	.LFE160:
 2452              		.section	.text.HAL_TIM_OC_Stop_IT,"ax",%progbits
 2453              		.align	1
 2454              		.global	HAL_TIM_OC_Stop_IT
 2455              		.syntax unified
 2456              		.thumb
 2457              		.thumb_func
 2459              	HAL_TIM_OC_Stop_IT:
 2460              	.LFB161:
 966:Drivers/STM32H7xx_HAL_Driver/Src/stm32h7xx_hal_tim.c **** 
 967:Drivers/STM32H7xx_HAL_Driver/Src/stm32h7xx_hal_tim.c **** /**
 968:Drivers/STM32H7xx_HAL_Driver/Src/stm32h7xx_hal_tim.c ****   * @brief  Stops the TIM Output Compare signal generation in interrupt mode.
 969:Drivers/STM32H7xx_HAL_Driver/Src/stm32h7xx_hal_tim.c ****   * @param  htim TIM Output Compare handle
 970:Drivers/STM32H7xx_HAL_Driver/Src/stm32h7xx_hal_tim.c ****   * @param  Channel TIM Channel to be disabled
 971:Drivers/STM32H7xx_HAL_Driver/Src/stm32h7xx_hal_tim.c ****   *          This parameter can be one of the following values:
 972:Drivers/STM32H7xx_HAL_Driver/Src/stm32h7xx_hal_tim.c ****   *            @arg TIM_CHANNEL_1: TIM Channel 1 selected
 973:Drivers/STM32H7xx_HAL_Driver/Src/stm32h7xx_hal_tim.c ****   *            @arg TIM_CHANNEL_2: TIM Channel 2 selected
 974:Drivers/STM32H7xx_HAL_Driver/Src/stm32h7xx_hal_tim.c ****   *            @arg TIM_CHANNEL_3: TIM Channel 3 selected
 975:Drivers/STM32H7xx_HAL_Driver/Src/stm32h7xx_hal_tim.c ****   *            @arg TIM_CHANNEL_4: TIM Channel 4 selected
 976:Drivers/STM32H7xx_HAL_Driver/Src/stm32h7xx_hal_tim.c ****   * @retval HAL status
 977:Drivers/STM32H7xx_HAL_Driver/Src/stm32h7xx_hal_tim.c ****   */
 978:Drivers/STM32H7xx_HAL_Driver/Src/stm32h7xx_hal_tim.c **** HAL_StatusTypeDef HAL_TIM_OC_Stop_IT(TIM_HandleTypeDef *htim, uint32_t Channel)
 979:Drivers/STM32H7xx_HAL_Driver/Src/stm32h7xx_hal_tim.c **** {
 2461              		.loc 1 979 1
 2462              		.cfi_startproc
 2463              		@ args = 0, pretend = 0, frame = 16
 2464              		@ frame_needed = 1, uses_anonymous_args = 0
 2465 0000 80B5     		push	{r7, lr}
ARM GAS  C:\Users\TGSPOC~1\AppData\Local\Temp\cchOEqPT.s 			page 61


 2466              	.LCFI93:
 2467              		.cfi_def_cfa_offset 8
 2468              		.cfi_offset 7, -8
 2469              		.cfi_offset 14, -4
 2470 0002 84B0     		sub	sp, sp, #16
 2471              	.LCFI94:
 2472              		.cfi_def_cfa_offset 24
 2473 0004 00AF     		add	r7, sp, #0
 2474              	.LCFI95:
 2475              		.cfi_def_cfa_register 7
 2476 0006 7860     		str	r0, [r7, #4]
 2477 0008 3960     		str	r1, [r7]
 980:Drivers/STM32H7xx_HAL_Driver/Src/stm32h7xx_hal_tim.c ****   HAL_StatusTypeDef status = HAL_OK;
 2478              		.loc 1 980 21
 2479 000a 0023     		movs	r3, #0
 2480 000c FB73     		strb	r3, [r7, #15]
 981:Drivers/STM32H7xx_HAL_Driver/Src/stm32h7xx_hal_tim.c **** 
 982:Drivers/STM32H7xx_HAL_Driver/Src/stm32h7xx_hal_tim.c ****   /* Check the parameters */
 983:Drivers/STM32H7xx_HAL_Driver/Src/stm32h7xx_hal_tim.c ****   assert_param(IS_TIM_CCX_CHANNEL(htim->Instance, Channel));
 984:Drivers/STM32H7xx_HAL_Driver/Src/stm32h7xx_hal_tim.c **** 
 985:Drivers/STM32H7xx_HAL_Driver/Src/stm32h7xx_hal_tim.c ****   switch (Channel)
 2481              		.loc 1 985 3
 2482 000e 3B68     		ldr	r3, [r7]
 2483 0010 0C2B     		cmp	r3, #12
 2484 0012 41D8     		bhi	.L159
 2485 0014 01A2     		adr	r2, .L161
 2486 0016 52F823F0 		ldr	pc, [r2, r3, lsl #2]
 2487 001a 00BF     		.p2align 2
 2488              	.L161:
 2489 001c 51000000 		.word	.L164+1
 2490 0020 99000000 		.word	.L159+1
 2491 0024 99000000 		.word	.L159+1
 2492 0028 99000000 		.word	.L159+1
 2493 002c 63000000 		.word	.L163+1
 2494 0030 99000000 		.word	.L159+1
 2495 0034 99000000 		.word	.L159+1
 2496 0038 99000000 		.word	.L159+1
 2497 003c 75000000 		.word	.L162+1
 2498 0040 99000000 		.word	.L159+1
 2499 0044 99000000 		.word	.L159+1
 2500 0048 99000000 		.word	.L159+1
 2501 004c 87000000 		.word	.L160+1
 2502              		.p2align 1
 2503              	.L164:
 986:Drivers/STM32H7xx_HAL_Driver/Src/stm32h7xx_hal_tim.c ****   {
 987:Drivers/STM32H7xx_HAL_Driver/Src/stm32h7xx_hal_tim.c ****     case TIM_CHANNEL_1:
 988:Drivers/STM32H7xx_HAL_Driver/Src/stm32h7xx_hal_tim.c ****     {
 989:Drivers/STM32H7xx_HAL_Driver/Src/stm32h7xx_hal_tim.c ****       /* Disable the TIM Capture/Compare 1 interrupt */
 990:Drivers/STM32H7xx_HAL_Driver/Src/stm32h7xx_hal_tim.c ****       __HAL_TIM_DISABLE_IT(htim, TIM_IT_CC1);
 2504              		.loc 1 990 7
 2505 0050 7B68     		ldr	r3, [r7, #4]
 2506 0052 1B68     		ldr	r3, [r3]
 2507 0054 DA68     		ldr	r2, [r3, #12]
 2508 0056 7B68     		ldr	r3, [r7, #4]
 2509 0058 1B68     		ldr	r3, [r3]
 2510 005a 22F00202 		bic	r2, r2, #2
 2511 005e DA60     		str	r2, [r3, #12]
ARM GAS  C:\Users\TGSPOC~1\AppData\Local\Temp\cchOEqPT.s 			page 62


 991:Drivers/STM32H7xx_HAL_Driver/Src/stm32h7xx_hal_tim.c ****       break;
 2512              		.loc 1 991 7
 2513 0060 1DE0     		b	.L165
 2514              	.L163:
 992:Drivers/STM32H7xx_HAL_Driver/Src/stm32h7xx_hal_tim.c ****     }
 993:Drivers/STM32H7xx_HAL_Driver/Src/stm32h7xx_hal_tim.c **** 
 994:Drivers/STM32H7xx_HAL_Driver/Src/stm32h7xx_hal_tim.c ****     case TIM_CHANNEL_2:
 995:Drivers/STM32H7xx_HAL_Driver/Src/stm32h7xx_hal_tim.c ****     {
 996:Drivers/STM32H7xx_HAL_Driver/Src/stm32h7xx_hal_tim.c ****       /* Disable the TIM Capture/Compare 2 interrupt */
 997:Drivers/STM32H7xx_HAL_Driver/Src/stm32h7xx_hal_tim.c ****       __HAL_TIM_DISABLE_IT(htim, TIM_IT_CC2);
 2515              		.loc 1 997 7
 2516 0062 7B68     		ldr	r3, [r7, #4]
 2517 0064 1B68     		ldr	r3, [r3]
 2518 0066 DA68     		ldr	r2, [r3, #12]
 2519 0068 7B68     		ldr	r3, [r7, #4]
 2520 006a 1B68     		ldr	r3, [r3]
 2521 006c 22F00402 		bic	r2, r2, #4
 2522 0070 DA60     		str	r2, [r3, #12]
 998:Drivers/STM32H7xx_HAL_Driver/Src/stm32h7xx_hal_tim.c ****       break;
 2523              		.loc 1 998 7
 2524 0072 14E0     		b	.L165
 2525              	.L162:
 999:Drivers/STM32H7xx_HAL_Driver/Src/stm32h7xx_hal_tim.c ****     }
1000:Drivers/STM32H7xx_HAL_Driver/Src/stm32h7xx_hal_tim.c **** 
1001:Drivers/STM32H7xx_HAL_Driver/Src/stm32h7xx_hal_tim.c ****     case TIM_CHANNEL_3:
1002:Drivers/STM32H7xx_HAL_Driver/Src/stm32h7xx_hal_tim.c ****     {
1003:Drivers/STM32H7xx_HAL_Driver/Src/stm32h7xx_hal_tim.c ****       /* Disable the TIM Capture/Compare 3 interrupt */
1004:Drivers/STM32H7xx_HAL_Driver/Src/stm32h7xx_hal_tim.c ****       __HAL_TIM_DISABLE_IT(htim, TIM_IT_CC3);
 2526              		.loc 1 1004 7
 2527 0074 7B68     		ldr	r3, [r7, #4]
 2528 0076 1B68     		ldr	r3, [r3]
 2529 0078 DA68     		ldr	r2, [r3, #12]
 2530 007a 7B68     		ldr	r3, [r7, #4]
 2531 007c 1B68     		ldr	r3, [r3]
 2532 007e 22F00802 		bic	r2, r2, #8
 2533 0082 DA60     		str	r2, [r3, #12]
1005:Drivers/STM32H7xx_HAL_Driver/Src/stm32h7xx_hal_tim.c ****       break;
 2534              		.loc 1 1005 7
 2535 0084 0BE0     		b	.L165
 2536              	.L160:
1006:Drivers/STM32H7xx_HAL_Driver/Src/stm32h7xx_hal_tim.c ****     }
1007:Drivers/STM32H7xx_HAL_Driver/Src/stm32h7xx_hal_tim.c **** 
1008:Drivers/STM32H7xx_HAL_Driver/Src/stm32h7xx_hal_tim.c ****     case TIM_CHANNEL_4:
1009:Drivers/STM32H7xx_HAL_Driver/Src/stm32h7xx_hal_tim.c ****     {
1010:Drivers/STM32H7xx_HAL_Driver/Src/stm32h7xx_hal_tim.c ****       /* Disable the TIM Capture/Compare 4 interrupt */
1011:Drivers/STM32H7xx_HAL_Driver/Src/stm32h7xx_hal_tim.c ****       __HAL_TIM_DISABLE_IT(htim, TIM_IT_CC4);
 2537              		.loc 1 1011 7
 2538 0086 7B68     		ldr	r3, [r7, #4]
 2539 0088 1B68     		ldr	r3, [r3]
 2540 008a DA68     		ldr	r2, [r3, #12]
 2541 008c 7B68     		ldr	r3, [r7, #4]
 2542 008e 1B68     		ldr	r3, [r3]
 2543 0090 22F01002 		bic	r2, r2, #16
 2544 0094 DA60     		str	r2, [r3, #12]
1012:Drivers/STM32H7xx_HAL_Driver/Src/stm32h7xx_hal_tim.c ****       break;
 2545              		.loc 1 1012 7
 2546 0096 02E0     		b	.L165
ARM GAS  C:\Users\TGSPOC~1\AppData\Local\Temp\cchOEqPT.s 			page 63


 2547              	.L159:
1013:Drivers/STM32H7xx_HAL_Driver/Src/stm32h7xx_hal_tim.c ****     }
1014:Drivers/STM32H7xx_HAL_Driver/Src/stm32h7xx_hal_tim.c **** 
1015:Drivers/STM32H7xx_HAL_Driver/Src/stm32h7xx_hal_tim.c ****     default:
1016:Drivers/STM32H7xx_HAL_Driver/Src/stm32h7xx_hal_tim.c ****       status = HAL_ERROR;
 2548              		.loc 1 1016 14
 2549 0098 0123     		movs	r3, #1
 2550 009a FB73     		strb	r3, [r7, #15]
1017:Drivers/STM32H7xx_HAL_Driver/Src/stm32h7xx_hal_tim.c ****       break;
 2551              		.loc 1 1017 7
 2552 009c 00BF     		nop
 2553              	.L165:
1018:Drivers/STM32H7xx_HAL_Driver/Src/stm32h7xx_hal_tim.c ****   }
1019:Drivers/STM32H7xx_HAL_Driver/Src/stm32h7xx_hal_tim.c **** 
1020:Drivers/STM32H7xx_HAL_Driver/Src/stm32h7xx_hal_tim.c ****   if (status == HAL_OK)
 2554              		.loc 1 1020 6
 2555 009e FB7B     		ldrb	r3, [r7, #15]	@ zero_extendqisi2
 2556 00a0 002B     		cmp	r3, #0
 2557 00a2 40F08180 		bne	.L166
1021:Drivers/STM32H7xx_HAL_Driver/Src/stm32h7xx_hal_tim.c ****   {
1022:Drivers/STM32H7xx_HAL_Driver/Src/stm32h7xx_hal_tim.c ****     /* Disable the Output compare channel */
1023:Drivers/STM32H7xx_HAL_Driver/Src/stm32h7xx_hal_tim.c ****     TIM_CCxChannelCmd(htim->Instance, Channel, TIM_CCx_DISABLE);
 2558              		.loc 1 1023 5
 2559 00a6 7B68     		ldr	r3, [r7, #4]
 2560 00a8 1B68     		ldr	r3, [r3]
 2561 00aa 0022     		movs	r2, #0
 2562 00ac 3968     		ldr	r1, [r7]
 2563 00ae 1846     		mov	r0, r3
 2564 00b0 FFF7FEFF 		bl	TIM_CCxChannelCmd
1024:Drivers/STM32H7xx_HAL_Driver/Src/stm32h7xx_hal_tim.c **** 
1025:Drivers/STM32H7xx_HAL_Driver/Src/stm32h7xx_hal_tim.c ****     if (IS_TIM_BREAK_INSTANCE(htim->Instance) != RESET)
 2565              		.loc 1 1025 9
 2566 00b4 7B68     		ldr	r3, [r7, #4]
 2567 00b6 1B68     		ldr	r3, [r3]
 2568 00b8 3E4A     		ldr	r2, .L182
 2569 00ba 9342     		cmp	r3, r2
 2570 00bc 13D0     		beq	.L167
 2571              		.loc 1 1025 9 is_stmt 0 discriminator 2
 2572 00be 7B68     		ldr	r3, [r7, #4]
 2573 00c0 1B68     		ldr	r3, [r3]
 2574 00c2 3D4A     		ldr	r2, .L182+4
 2575 00c4 9342     		cmp	r3, r2
 2576 00c6 0ED0     		beq	.L167
 2577              		.loc 1 1025 9 discriminator 4
 2578 00c8 7B68     		ldr	r3, [r7, #4]
 2579 00ca 1B68     		ldr	r3, [r3]
 2580 00cc 3B4A     		ldr	r2, .L182+8
 2581 00ce 9342     		cmp	r3, r2
 2582 00d0 09D0     		beq	.L167
 2583              		.loc 1 1025 9 discriminator 6
 2584 00d2 7B68     		ldr	r3, [r7, #4]
 2585 00d4 1B68     		ldr	r3, [r3]
 2586 00d6 3A4A     		ldr	r2, .L182+12
 2587 00d8 9342     		cmp	r3, r2
 2588 00da 04D0     		beq	.L167
 2589              		.loc 1 1025 9 discriminator 8
 2590 00dc 7B68     		ldr	r3, [r7, #4]
ARM GAS  C:\Users\TGSPOC~1\AppData\Local\Temp\cchOEqPT.s 			page 64


 2591 00de 1B68     		ldr	r3, [r3]
 2592 00e0 384A     		ldr	r2, .L182+16
 2593 00e2 9342     		cmp	r3, r2
 2594 00e4 01D1     		bne	.L168
 2595              	.L167:
 2596              		.loc 1 1025 9 discriminator 9
 2597 00e6 0123     		movs	r3, #1
 2598              		.loc 1 1025 9
 2599 00e8 00E0     		b	.L169
 2600              	.L168:
 2601              		.loc 1 1025 9 discriminator 10
 2602 00ea 0023     		movs	r3, #0
 2603              	.L169:
 2604              		.loc 1 1025 8 is_stmt 1 discriminator 12
 2605 00ec 002B     		cmp	r3, #0
 2606 00ee 17D0     		beq	.L170
1026:Drivers/STM32H7xx_HAL_Driver/Src/stm32h7xx_hal_tim.c ****     {
1027:Drivers/STM32H7xx_HAL_Driver/Src/stm32h7xx_hal_tim.c ****       /* Disable the Main Output */
1028:Drivers/STM32H7xx_HAL_Driver/Src/stm32h7xx_hal_tim.c ****       __HAL_TIM_MOE_DISABLE(htim);
 2607              		.loc 1 1028 7
 2608 00f0 7B68     		ldr	r3, [r7, #4]
 2609 00f2 1B68     		ldr	r3, [r3]
 2610 00f4 1A6A     		ldr	r2, [r3, #32]
 2611 00f6 41F21113 		movw	r3, #4369
 2612 00fa 1340     		ands	r3, r3, r2
 2613 00fc 002B     		cmp	r3, #0
 2614 00fe 0FD1     		bne	.L170
 2615              		.loc 1 1028 7 is_stmt 0 discriminator 1
 2616 0100 7B68     		ldr	r3, [r7, #4]
 2617 0102 1B68     		ldr	r3, [r3]
 2618 0104 1A6A     		ldr	r2, [r3, #32]
 2619 0106 40F24443 		movw	r3, #1092
 2620 010a 1340     		ands	r3, r3, r2
 2621 010c 002B     		cmp	r3, #0
 2622 010e 07D1     		bne	.L170
 2623              		.loc 1 1028 7 discriminator 2
 2624 0110 7B68     		ldr	r3, [r7, #4]
 2625 0112 1B68     		ldr	r3, [r3]
 2626 0114 5A6C     		ldr	r2, [r3, #68]
 2627 0116 7B68     		ldr	r3, [r7, #4]
 2628 0118 1B68     		ldr	r3, [r3]
 2629 011a 22F40042 		bic	r2, r2, #32768
 2630 011e 5A64     		str	r2, [r3, #68]
 2631              	.L170:
1029:Drivers/STM32H7xx_HAL_Driver/Src/stm32h7xx_hal_tim.c ****     }
1030:Drivers/STM32H7xx_HAL_Driver/Src/stm32h7xx_hal_tim.c **** 
1031:Drivers/STM32H7xx_HAL_Driver/Src/stm32h7xx_hal_tim.c ****     /* Disable the Peripheral */
1032:Drivers/STM32H7xx_HAL_Driver/Src/stm32h7xx_hal_tim.c ****     __HAL_TIM_DISABLE(htim);
 2632              		.loc 1 1032 5 is_stmt 1
 2633 0120 7B68     		ldr	r3, [r7, #4]
 2634 0122 1B68     		ldr	r3, [r3]
 2635 0124 1A6A     		ldr	r2, [r3, #32]
 2636 0126 41F21113 		movw	r3, #4369
 2637 012a 1340     		ands	r3, r3, r2
 2638 012c 002B     		cmp	r3, #0
 2639 012e 0FD1     		bne	.L171
 2640              		.loc 1 1032 5 is_stmt 0 discriminator 1
ARM GAS  C:\Users\TGSPOC~1\AppData\Local\Temp\cchOEqPT.s 			page 65


 2641 0130 7B68     		ldr	r3, [r7, #4]
 2642 0132 1B68     		ldr	r3, [r3]
 2643 0134 1A6A     		ldr	r2, [r3, #32]
 2644 0136 40F24443 		movw	r3, #1092
 2645 013a 1340     		ands	r3, r3, r2
 2646 013c 002B     		cmp	r3, #0
 2647 013e 07D1     		bne	.L171
 2648              		.loc 1 1032 5 discriminator 2
 2649 0140 7B68     		ldr	r3, [r7, #4]
 2650 0142 1B68     		ldr	r3, [r3]
 2651 0144 1A68     		ldr	r2, [r3]
 2652 0146 7B68     		ldr	r3, [r7, #4]
 2653 0148 1B68     		ldr	r3, [r3]
 2654 014a 22F00102 		bic	r2, r2, #1
 2655 014e 1A60     		str	r2, [r3]
 2656              	.L171:
1033:Drivers/STM32H7xx_HAL_Driver/Src/stm32h7xx_hal_tim.c **** 
1034:Drivers/STM32H7xx_HAL_Driver/Src/stm32h7xx_hal_tim.c ****     /* Set the TIM channel state */
1035:Drivers/STM32H7xx_HAL_Driver/Src/stm32h7xx_hal_tim.c ****     TIM_CHANNEL_STATE_SET(htim, Channel, HAL_TIM_CHANNEL_STATE_READY);
 2657              		.loc 1 1035 5 is_stmt 1
 2658 0150 3B68     		ldr	r3, [r7]
 2659 0152 002B     		cmp	r3, #0
 2660 0154 04D1     		bne	.L172
 2661              		.loc 1 1035 5 is_stmt 0 discriminator 1
 2662 0156 7B68     		ldr	r3, [r7, #4]
 2663 0158 0122     		movs	r2, #1
 2664 015a 83F83E20 		strb	r2, [r3, #62]
 2665 015e 23E0     		b	.L166
 2666              	.L172:
 2667              		.loc 1 1035 5 discriminator 2
 2668 0160 3B68     		ldr	r3, [r7]
 2669 0162 042B     		cmp	r3, #4
 2670 0164 04D1     		bne	.L173
 2671              		.loc 1 1035 5 discriminator 3
 2672 0166 7B68     		ldr	r3, [r7, #4]
 2673 0168 0122     		movs	r2, #1
 2674 016a 83F83F20 		strb	r2, [r3, #63]
 2675 016e 1BE0     		b	.L166
 2676              	.L173:
 2677              		.loc 1 1035 5 discriminator 4
 2678 0170 3B68     		ldr	r3, [r7]
 2679 0172 082B     		cmp	r3, #8
 2680 0174 04D1     		bne	.L175
 2681              		.loc 1 1035 5 discriminator 6
 2682 0176 7B68     		ldr	r3, [r7, #4]
 2683 0178 0122     		movs	r2, #1
 2684 017a 83F84020 		strb	r2, [r3, #64]
 2685 017e 13E0     		b	.L166
 2686              	.L175:
 2687              		.loc 1 1035 5 discriminator 7
 2688 0180 3B68     		ldr	r3, [r7]
 2689 0182 0C2B     		cmp	r3, #12
 2690 0184 04D1     		bne	.L177
 2691              		.loc 1 1035 5 discriminator 9
 2692 0186 7B68     		ldr	r3, [r7, #4]
 2693 0188 0122     		movs	r2, #1
 2694 018a 83F84120 		strb	r2, [r3, #65]
ARM GAS  C:\Users\TGSPOC~1\AppData\Local\Temp\cchOEqPT.s 			page 66


 2695 018e 0BE0     		b	.L166
 2696              	.L177:
 2697              		.loc 1 1035 5 discriminator 10
 2698 0190 3B68     		ldr	r3, [r7]
 2699 0192 102B     		cmp	r3, #16
 2700 0194 04D1     		bne	.L179
 2701              		.loc 1 1035 5 discriminator 12
 2702 0196 7B68     		ldr	r3, [r7, #4]
 2703 0198 0122     		movs	r2, #1
 2704 019a 83F84220 		strb	r2, [r3, #66]
 2705 019e 03E0     		b	.L166
 2706              	.L179:
 2707              		.loc 1 1035 5 discriminator 13
 2708 01a0 7B68     		ldr	r3, [r7, #4]
 2709 01a2 0122     		movs	r2, #1
 2710 01a4 83F84320 		strb	r2, [r3, #67]
 2711              	.L166:
1036:Drivers/STM32H7xx_HAL_Driver/Src/stm32h7xx_hal_tim.c ****   }
1037:Drivers/STM32H7xx_HAL_Driver/Src/stm32h7xx_hal_tim.c **** 
1038:Drivers/STM32H7xx_HAL_Driver/Src/stm32h7xx_hal_tim.c ****   /* Return function status */
1039:Drivers/STM32H7xx_HAL_Driver/Src/stm32h7xx_hal_tim.c ****   return status;
 2712              		.loc 1 1039 10 is_stmt 1
 2713 01a8 FB7B     		ldrb	r3, [r7, #15]	@ zero_extendqisi2
1040:Drivers/STM32H7xx_HAL_Driver/Src/stm32h7xx_hal_tim.c **** }
 2714              		.loc 1 1040 1
 2715 01aa 1846     		mov	r0, r3
 2716 01ac 1037     		adds	r7, r7, #16
 2717              	.LCFI96:
 2718              		.cfi_def_cfa_offset 8
 2719 01ae BD46     		mov	sp, r7
 2720              	.LCFI97:
 2721              		.cfi_def_cfa_register 13
 2722              		@ sp needed
 2723 01b0 80BD     		pop	{r7, pc}
 2724              	.L183:
 2725 01b2 00BF     		.align	2
 2726              	.L182:
 2727 01b4 00000140 		.word	1073807360
 2728 01b8 00040140 		.word	1073808384
 2729 01bc 00400140 		.word	1073823744
 2730 01c0 00440140 		.word	1073824768
 2731 01c4 00480140 		.word	1073825792
 2732              		.cfi_endproc
 2733              	.LFE161:
 2735              		.section	.text.HAL_TIM_OC_Start_DMA,"ax",%progbits
 2736              		.align	1
 2737              		.global	HAL_TIM_OC_Start_DMA
 2738              		.syntax unified
 2739              		.thumb
 2740              		.thumb_func
 2742              	HAL_TIM_OC_Start_DMA:
 2743              	.LFB162:
1041:Drivers/STM32H7xx_HAL_Driver/Src/stm32h7xx_hal_tim.c **** 
1042:Drivers/STM32H7xx_HAL_Driver/Src/stm32h7xx_hal_tim.c **** /**
1043:Drivers/STM32H7xx_HAL_Driver/Src/stm32h7xx_hal_tim.c ****   * @brief  Starts the TIM Output Compare signal generation in DMA mode.
1044:Drivers/STM32H7xx_HAL_Driver/Src/stm32h7xx_hal_tim.c ****   * @param  htim TIM Output Compare handle
1045:Drivers/STM32H7xx_HAL_Driver/Src/stm32h7xx_hal_tim.c ****   * @param  Channel TIM Channel to be enabled
ARM GAS  C:\Users\TGSPOC~1\AppData\Local\Temp\cchOEqPT.s 			page 67


1046:Drivers/STM32H7xx_HAL_Driver/Src/stm32h7xx_hal_tim.c ****   *          This parameter can be one of the following values:
1047:Drivers/STM32H7xx_HAL_Driver/Src/stm32h7xx_hal_tim.c ****   *            @arg TIM_CHANNEL_1: TIM Channel 1 selected
1048:Drivers/STM32H7xx_HAL_Driver/Src/stm32h7xx_hal_tim.c ****   *            @arg TIM_CHANNEL_2: TIM Channel 2 selected
1049:Drivers/STM32H7xx_HAL_Driver/Src/stm32h7xx_hal_tim.c ****   *            @arg TIM_CHANNEL_3: TIM Channel 3 selected
1050:Drivers/STM32H7xx_HAL_Driver/Src/stm32h7xx_hal_tim.c ****   *            @arg TIM_CHANNEL_4: TIM Channel 4 selected
1051:Drivers/STM32H7xx_HAL_Driver/Src/stm32h7xx_hal_tim.c ****   * @param  pData The source Buffer address.
1052:Drivers/STM32H7xx_HAL_Driver/Src/stm32h7xx_hal_tim.c ****   * @param  Length The length of data to be transferred from memory to TIM peripheral
1053:Drivers/STM32H7xx_HAL_Driver/Src/stm32h7xx_hal_tim.c ****   * @retval HAL status
1054:Drivers/STM32H7xx_HAL_Driver/Src/stm32h7xx_hal_tim.c ****   */
1055:Drivers/STM32H7xx_HAL_Driver/Src/stm32h7xx_hal_tim.c **** HAL_StatusTypeDef HAL_TIM_OC_Start_DMA(TIM_HandleTypeDef *htim, uint32_t Channel, const uint32_t *p
1056:Drivers/STM32H7xx_HAL_Driver/Src/stm32h7xx_hal_tim.c ****                                        uint16_t Length)
1057:Drivers/STM32H7xx_HAL_Driver/Src/stm32h7xx_hal_tim.c **** {
 2744              		.loc 1 1057 1
 2745              		.cfi_startproc
 2746              		@ args = 0, pretend = 0, frame = 24
 2747              		@ frame_needed = 1, uses_anonymous_args = 0
 2748 0000 80B5     		push	{r7, lr}
 2749              	.LCFI98:
 2750              		.cfi_def_cfa_offset 8
 2751              		.cfi_offset 7, -8
 2752              		.cfi_offset 14, -4
 2753 0002 86B0     		sub	sp, sp, #24
 2754              	.LCFI99:
 2755              		.cfi_def_cfa_offset 32
 2756 0004 00AF     		add	r7, sp, #0
 2757              	.LCFI100:
 2758              		.cfi_def_cfa_register 7
 2759 0006 F860     		str	r0, [r7, #12]
 2760 0008 B960     		str	r1, [r7, #8]
 2761 000a 7A60     		str	r2, [r7, #4]
 2762 000c 7B80     		strh	r3, [r7, #2]	@ movhi
1058:Drivers/STM32H7xx_HAL_Driver/Src/stm32h7xx_hal_tim.c ****   HAL_StatusTypeDef status = HAL_OK;
 2763              		.loc 1 1058 21
 2764 000e 0023     		movs	r3, #0
 2765 0010 FB75     		strb	r3, [r7, #23]
1059:Drivers/STM32H7xx_HAL_Driver/Src/stm32h7xx_hal_tim.c ****   uint32_t tmpsmcr;
1060:Drivers/STM32H7xx_HAL_Driver/Src/stm32h7xx_hal_tim.c **** 
1061:Drivers/STM32H7xx_HAL_Driver/Src/stm32h7xx_hal_tim.c ****   /* Check the parameters */
1062:Drivers/STM32H7xx_HAL_Driver/Src/stm32h7xx_hal_tim.c ****   assert_param(IS_TIM_CCX_CHANNEL(htim->Instance, Channel));
1063:Drivers/STM32H7xx_HAL_Driver/Src/stm32h7xx_hal_tim.c **** 
1064:Drivers/STM32H7xx_HAL_Driver/Src/stm32h7xx_hal_tim.c ****   /* Set the TIM channel state */
1065:Drivers/STM32H7xx_HAL_Driver/Src/stm32h7xx_hal_tim.c ****   if (TIM_CHANNEL_STATE_GET(htim, Channel) == HAL_TIM_CHANNEL_STATE_BUSY)
 2766              		.loc 1 1065 44
 2767 0012 BB68     		ldr	r3, [r7, #8]
 2768 0014 002B     		cmp	r3, #0
 2769 0016 09D1     		bne	.L185
 2770              		.loc 1 1065 7 discriminator 1
 2771 0018 FB68     		ldr	r3, [r7, #12]
 2772 001a 93F83E30 		ldrb	r3, [r3, #62]
 2773 001e DBB2     		uxtb	r3, r3
 2774              		.loc 1 1065 44 discriminator 1
 2775 0020 022B     		cmp	r3, #2
 2776 0022 0CBF     		ite	eq
 2777 0024 0123     		moveq	r3, #1
 2778 0026 0023     		movne	r3, #0
 2779 0028 DBB2     		uxtb	r3, r3
 2780 002a 3CE0     		b	.L186
ARM GAS  C:\Users\TGSPOC~1\AppData\Local\Temp\cchOEqPT.s 			page 68


 2781              	.L185:
 2782              		.loc 1 1065 44 is_stmt 0 discriminator 2
 2783 002c BB68     		ldr	r3, [r7, #8]
 2784 002e 042B     		cmp	r3, #4
 2785 0030 09D1     		bne	.L187
 2786              		.loc 1 1065 7 is_stmt 1 discriminator 4
 2787 0032 FB68     		ldr	r3, [r7, #12]
 2788 0034 93F83F30 		ldrb	r3, [r3, #63]
 2789 0038 DBB2     		uxtb	r3, r3
 2790              		.loc 1 1065 44 discriminator 4
 2791 003a 022B     		cmp	r3, #2
 2792 003c 0CBF     		ite	eq
 2793 003e 0123     		moveq	r3, #1
 2794 0040 0023     		movne	r3, #0
 2795 0042 DBB2     		uxtb	r3, r3
 2796 0044 2FE0     		b	.L186
 2797              	.L187:
 2798              		.loc 1 1065 44 is_stmt 0 discriminator 5
 2799 0046 BB68     		ldr	r3, [r7, #8]
 2800 0048 082B     		cmp	r3, #8
 2801 004a 09D1     		bne	.L189
 2802              		.loc 1 1065 7 is_stmt 1 discriminator 7
 2803 004c FB68     		ldr	r3, [r7, #12]
 2804 004e 93F84030 		ldrb	r3, [r3, #64]
 2805 0052 DBB2     		uxtb	r3, r3
 2806              		.loc 1 1065 44 discriminator 7
 2807 0054 022B     		cmp	r3, #2
 2808 0056 0CBF     		ite	eq
 2809 0058 0123     		moveq	r3, #1
 2810 005a 0023     		movne	r3, #0
 2811 005c DBB2     		uxtb	r3, r3
 2812 005e 22E0     		b	.L186
 2813              	.L189:
 2814              		.loc 1 1065 44 is_stmt 0 discriminator 8
 2815 0060 BB68     		ldr	r3, [r7, #8]
 2816 0062 0C2B     		cmp	r3, #12
 2817 0064 09D1     		bne	.L191
 2818              		.loc 1 1065 7 is_stmt 1 discriminator 10
 2819 0066 FB68     		ldr	r3, [r7, #12]
 2820 0068 93F84130 		ldrb	r3, [r3, #65]
 2821 006c DBB2     		uxtb	r3, r3
 2822              		.loc 1 1065 44 discriminator 10
 2823 006e 022B     		cmp	r3, #2
 2824 0070 0CBF     		ite	eq
 2825 0072 0123     		moveq	r3, #1
 2826 0074 0023     		movne	r3, #0
 2827 0076 DBB2     		uxtb	r3, r3
 2828 0078 15E0     		b	.L186
 2829              	.L191:
 2830              		.loc 1 1065 44 is_stmt 0 discriminator 11
 2831 007a BB68     		ldr	r3, [r7, #8]
 2832 007c 102B     		cmp	r3, #16
 2833 007e 09D1     		bne	.L193
 2834              		.loc 1 1065 7 is_stmt 1 discriminator 13
 2835 0080 FB68     		ldr	r3, [r7, #12]
 2836 0082 93F84230 		ldrb	r3, [r3, #66]
 2837 0086 DBB2     		uxtb	r3, r3
ARM GAS  C:\Users\TGSPOC~1\AppData\Local\Temp\cchOEqPT.s 			page 69


 2838              		.loc 1 1065 44 discriminator 13
 2839 0088 022B     		cmp	r3, #2
 2840 008a 0CBF     		ite	eq
 2841 008c 0123     		moveq	r3, #1
 2842 008e 0023     		movne	r3, #0
 2843 0090 DBB2     		uxtb	r3, r3
 2844 0092 08E0     		b	.L186
 2845              	.L193:
 2846              		.loc 1 1065 7 discriminator 14
 2847 0094 FB68     		ldr	r3, [r7, #12]
 2848 0096 93F84330 		ldrb	r3, [r3, #67]
 2849 009a DBB2     		uxtb	r3, r3
 2850              		.loc 1 1065 44 discriminator 14
 2851 009c 022B     		cmp	r3, #2
 2852 009e 0CBF     		ite	eq
 2853 00a0 0123     		moveq	r3, #1
 2854 00a2 0023     		movne	r3, #0
 2855 00a4 DBB2     		uxtb	r3, r3
 2856              	.L186:
 2857              		.loc 1 1065 6 discriminator 20
 2858 00a6 002B     		cmp	r3, #0
 2859 00a8 01D0     		beq	.L195
1066:Drivers/STM32H7xx_HAL_Driver/Src/stm32h7xx_hal_tim.c ****   {
1067:Drivers/STM32H7xx_HAL_Driver/Src/stm32h7xx_hal_tim.c ****     return HAL_BUSY;
 2860              		.loc 1 1067 12
 2861 00aa 0223     		movs	r3, #2
 2862 00ac B0E1     		b	.L196
 2863              	.L195:
1068:Drivers/STM32H7xx_HAL_Driver/Src/stm32h7xx_hal_tim.c ****   }
1069:Drivers/STM32H7xx_HAL_Driver/Src/stm32h7xx_hal_tim.c ****   else if (TIM_CHANNEL_STATE_GET(htim, Channel) == HAL_TIM_CHANNEL_STATE_READY)
 2864              		.loc 1 1069 49
 2865 00ae BB68     		ldr	r3, [r7, #8]
 2866 00b0 002B     		cmp	r3, #0
 2867 00b2 09D1     		bne	.L197
 2868              		.loc 1 1069 12 discriminator 1
 2869 00b4 FB68     		ldr	r3, [r7, #12]
 2870 00b6 93F83E30 		ldrb	r3, [r3, #62]
 2871 00ba DBB2     		uxtb	r3, r3
 2872              		.loc 1 1069 49 discriminator 1
 2873 00bc 012B     		cmp	r3, #1
 2874 00be 0CBF     		ite	eq
 2875 00c0 0123     		moveq	r3, #1
 2876 00c2 0023     		movne	r3, #0
 2877 00c4 DBB2     		uxtb	r3, r3
 2878 00c6 3CE0     		b	.L198
 2879              	.L197:
 2880              		.loc 1 1069 49 is_stmt 0 discriminator 2
 2881 00c8 BB68     		ldr	r3, [r7, #8]
 2882 00ca 042B     		cmp	r3, #4
 2883 00cc 09D1     		bne	.L199
 2884              		.loc 1 1069 12 is_stmt 1 discriminator 4
 2885 00ce FB68     		ldr	r3, [r7, #12]
 2886 00d0 93F83F30 		ldrb	r3, [r3, #63]
 2887 00d4 DBB2     		uxtb	r3, r3
 2888              		.loc 1 1069 49 discriminator 4
 2889 00d6 012B     		cmp	r3, #1
 2890 00d8 0CBF     		ite	eq
ARM GAS  C:\Users\TGSPOC~1\AppData\Local\Temp\cchOEqPT.s 			page 70


 2891 00da 0123     		moveq	r3, #1
 2892 00dc 0023     		movne	r3, #0
 2893 00de DBB2     		uxtb	r3, r3
 2894 00e0 2FE0     		b	.L198
 2895              	.L199:
 2896              		.loc 1 1069 49 is_stmt 0 discriminator 5
 2897 00e2 BB68     		ldr	r3, [r7, #8]
 2898 00e4 082B     		cmp	r3, #8
 2899 00e6 09D1     		bne	.L201
 2900              		.loc 1 1069 12 is_stmt 1 discriminator 7
 2901 00e8 FB68     		ldr	r3, [r7, #12]
 2902 00ea 93F84030 		ldrb	r3, [r3, #64]
 2903 00ee DBB2     		uxtb	r3, r3
 2904              		.loc 1 1069 49 discriminator 7
 2905 00f0 012B     		cmp	r3, #1
 2906 00f2 0CBF     		ite	eq
 2907 00f4 0123     		moveq	r3, #1
 2908 00f6 0023     		movne	r3, #0
 2909 00f8 DBB2     		uxtb	r3, r3
 2910 00fa 22E0     		b	.L198
 2911              	.L201:
 2912              		.loc 1 1069 49 is_stmt 0 discriminator 8
 2913 00fc BB68     		ldr	r3, [r7, #8]
 2914 00fe 0C2B     		cmp	r3, #12
 2915 0100 09D1     		bne	.L203
 2916              		.loc 1 1069 12 is_stmt 1 discriminator 10
 2917 0102 FB68     		ldr	r3, [r7, #12]
 2918 0104 93F84130 		ldrb	r3, [r3, #65]
 2919 0108 DBB2     		uxtb	r3, r3
 2920              		.loc 1 1069 49 discriminator 10
 2921 010a 012B     		cmp	r3, #1
 2922 010c 0CBF     		ite	eq
 2923 010e 0123     		moveq	r3, #1
 2924 0110 0023     		movne	r3, #0
 2925 0112 DBB2     		uxtb	r3, r3
 2926 0114 15E0     		b	.L198
 2927              	.L203:
 2928              		.loc 1 1069 49 is_stmt 0 discriminator 11
 2929 0116 BB68     		ldr	r3, [r7, #8]
 2930 0118 102B     		cmp	r3, #16
 2931 011a 09D1     		bne	.L205
 2932              		.loc 1 1069 12 is_stmt 1 discriminator 13
 2933 011c FB68     		ldr	r3, [r7, #12]
 2934 011e 93F84230 		ldrb	r3, [r3, #66]
 2935 0122 DBB2     		uxtb	r3, r3
 2936              		.loc 1 1069 49 discriminator 13
 2937 0124 012B     		cmp	r3, #1
 2938 0126 0CBF     		ite	eq
 2939 0128 0123     		moveq	r3, #1
 2940 012a 0023     		movne	r3, #0
 2941 012c DBB2     		uxtb	r3, r3
 2942 012e 08E0     		b	.L198
 2943              	.L205:
 2944              		.loc 1 1069 12 discriminator 14
 2945 0130 FB68     		ldr	r3, [r7, #12]
 2946 0132 93F84330 		ldrb	r3, [r3, #67]
 2947 0136 DBB2     		uxtb	r3, r3
ARM GAS  C:\Users\TGSPOC~1\AppData\Local\Temp\cchOEqPT.s 			page 71


 2948              		.loc 1 1069 49 discriminator 14
 2949 0138 012B     		cmp	r3, #1
 2950 013a 0CBF     		ite	eq
 2951 013c 0123     		moveq	r3, #1
 2952 013e 0023     		movne	r3, #0
 2953 0140 DBB2     		uxtb	r3, r3
 2954              	.L198:
 2955              		.loc 1 1069 11 discriminator 20
 2956 0142 002B     		cmp	r3, #0
 2957 0144 34D0     		beq	.L207
1070:Drivers/STM32H7xx_HAL_Driver/Src/stm32h7xx_hal_tim.c ****   {
1071:Drivers/STM32H7xx_HAL_Driver/Src/stm32h7xx_hal_tim.c ****     if ((pData == NULL) || (Length == 0U))
 2958              		.loc 1 1071 8
 2959 0146 7B68     		ldr	r3, [r7, #4]
 2960 0148 002B     		cmp	r3, #0
 2961 014a 02D0     		beq	.L208
 2962              		.loc 1 1071 25 discriminator 1
 2963 014c 7B88     		ldrh	r3, [r7, #2]
 2964 014e 002B     		cmp	r3, #0
 2965 0150 01D1     		bne	.L209
 2966              	.L208:
1072:Drivers/STM32H7xx_HAL_Driver/Src/stm32h7xx_hal_tim.c ****     {
1073:Drivers/STM32H7xx_HAL_Driver/Src/stm32h7xx_hal_tim.c ****       return HAL_ERROR;
 2967              		.loc 1 1073 14
 2968 0152 0123     		movs	r3, #1
 2969 0154 5CE1     		b	.L196
 2970              	.L209:
1074:Drivers/STM32H7xx_HAL_Driver/Src/stm32h7xx_hal_tim.c ****     }
1075:Drivers/STM32H7xx_HAL_Driver/Src/stm32h7xx_hal_tim.c ****     else
1076:Drivers/STM32H7xx_HAL_Driver/Src/stm32h7xx_hal_tim.c ****     {
1077:Drivers/STM32H7xx_HAL_Driver/Src/stm32h7xx_hal_tim.c ****       TIM_CHANNEL_STATE_SET(htim, Channel, HAL_TIM_CHANNEL_STATE_BUSY);
 2971              		.loc 1 1077 7
 2972 0156 BB68     		ldr	r3, [r7, #8]
 2973 0158 002B     		cmp	r3, #0
 2974 015a 04D1     		bne	.L210
 2975              		.loc 1 1077 7 is_stmt 0 discriminator 1
 2976 015c FB68     		ldr	r3, [r7, #12]
 2977 015e 0222     		movs	r2, #2
 2978 0160 83F83E20 		strb	r2, [r3, #62]
 2979 0164 26E0     		b	.L211
 2980              	.L210:
 2981              		.loc 1 1077 7 discriminator 2
 2982 0166 BB68     		ldr	r3, [r7, #8]
 2983 0168 042B     		cmp	r3, #4
 2984 016a 04D1     		bne	.L212
 2985              		.loc 1 1077 7 discriminator 3
 2986 016c FB68     		ldr	r3, [r7, #12]
 2987 016e 0222     		movs	r2, #2
 2988 0170 83F83F20 		strb	r2, [r3, #63]
 2989              		.loc 1 1077 7 discriminator 18
 2990 0174 1EE0     		b	.L211
 2991              	.L212:
 2992              		.loc 1 1077 7 discriminator 4
 2993 0176 BB68     		ldr	r3, [r7, #8]
 2994 0178 082B     		cmp	r3, #8
 2995 017a 04D1     		bne	.L214
 2996              		.loc 1 1077 7 discriminator 6
ARM GAS  C:\Users\TGSPOC~1\AppData\Local\Temp\cchOEqPT.s 			page 72


 2997 017c FB68     		ldr	r3, [r7, #12]
 2998 017e 0222     		movs	r2, #2
 2999 0180 83F84020 		strb	r2, [r3, #64]
 3000              		.loc 1 1077 7 discriminator 18
 3001 0184 16E0     		b	.L211
 3002              	.L214:
 3003              		.loc 1 1077 7 discriminator 7
 3004 0186 BB68     		ldr	r3, [r7, #8]
 3005 0188 0C2B     		cmp	r3, #12
 3006 018a 04D1     		bne	.L216
 3007              		.loc 1 1077 7 discriminator 9
 3008 018c FB68     		ldr	r3, [r7, #12]
 3009 018e 0222     		movs	r2, #2
 3010 0190 83F84120 		strb	r2, [r3, #65]
 3011              		.loc 1 1077 7 discriminator 18
 3012 0194 0EE0     		b	.L211
 3013              	.L216:
 3014              		.loc 1 1077 7 discriminator 10
 3015 0196 BB68     		ldr	r3, [r7, #8]
 3016 0198 102B     		cmp	r3, #16
 3017 019a 04D1     		bne	.L218
 3018              		.loc 1 1077 7 discriminator 12
 3019 019c FB68     		ldr	r3, [r7, #12]
 3020 019e 0222     		movs	r2, #2
 3021 01a0 83F84220 		strb	r2, [r3, #66]
 3022              		.loc 1 1077 7 discriminator 18
 3023 01a4 06E0     		b	.L211
 3024              	.L218:
 3025              		.loc 1 1077 7 discriminator 13
 3026 01a6 FB68     		ldr	r3, [r7, #12]
 3027 01a8 0222     		movs	r2, #2
 3028 01aa 83F84320 		strb	r2, [r3, #67]
 3029 01ae 01E0     		b	.L211
 3030              	.L207:
1078:Drivers/STM32H7xx_HAL_Driver/Src/stm32h7xx_hal_tim.c ****     }
1079:Drivers/STM32H7xx_HAL_Driver/Src/stm32h7xx_hal_tim.c ****   }
1080:Drivers/STM32H7xx_HAL_Driver/Src/stm32h7xx_hal_tim.c ****   else
1081:Drivers/STM32H7xx_HAL_Driver/Src/stm32h7xx_hal_tim.c ****   {
1082:Drivers/STM32H7xx_HAL_Driver/Src/stm32h7xx_hal_tim.c ****     return HAL_ERROR;
 3031              		.loc 1 1082 12 is_stmt 1
 3032 01b0 0123     		movs	r3, #1
 3033 01b2 2DE1     		b	.L196
 3034              	.L211:
1083:Drivers/STM32H7xx_HAL_Driver/Src/stm32h7xx_hal_tim.c ****   }
1084:Drivers/STM32H7xx_HAL_Driver/Src/stm32h7xx_hal_tim.c **** 
1085:Drivers/STM32H7xx_HAL_Driver/Src/stm32h7xx_hal_tim.c ****   switch (Channel)
 3035              		.loc 1 1085 3
 3036 01b4 BB68     		ldr	r3, [r7, #8]
 3037 01b6 0C2B     		cmp	r3, #12
 3038 01b8 00F2AE80 		bhi	.L220
 3039 01bc 01A2     		adr	r2, .L222
 3040 01be 52F823F0 		ldr	pc, [r2, r3, lsl #2]
 3041 01c2 00BF     		.p2align 2
 3042              	.L222:
 3043 01c4 F9010000 		.word	.L225+1
 3044 01c8 19030000 		.word	.L220+1
 3045 01cc 19030000 		.word	.L220+1
ARM GAS  C:\Users\TGSPOC~1\AppData\Local\Temp\cchOEqPT.s 			page 73


 3046 01d0 19030000 		.word	.L220+1
 3047 01d4 41020000 		.word	.L224+1
 3048 01d8 19030000 		.word	.L220+1
 3049 01dc 19030000 		.word	.L220+1
 3050 01e0 19030000 		.word	.L220+1
 3051 01e4 89020000 		.word	.L223+1
 3052 01e8 19030000 		.word	.L220+1
 3053 01ec 19030000 		.word	.L220+1
 3054 01f0 19030000 		.word	.L220+1
 3055 01f4 D1020000 		.word	.L221+1
 3056              		.p2align 1
 3057              	.L225:
1086:Drivers/STM32H7xx_HAL_Driver/Src/stm32h7xx_hal_tim.c ****   {
1087:Drivers/STM32H7xx_HAL_Driver/Src/stm32h7xx_hal_tim.c ****     case TIM_CHANNEL_1:
1088:Drivers/STM32H7xx_HAL_Driver/Src/stm32h7xx_hal_tim.c ****     {
1089:Drivers/STM32H7xx_HAL_Driver/Src/stm32h7xx_hal_tim.c ****       /* Set the DMA compare callbacks */
1090:Drivers/STM32H7xx_HAL_Driver/Src/stm32h7xx_hal_tim.c ****       htim->hdma[TIM_DMA_ID_CC1]->XferCpltCallback = TIM_DMADelayPulseCplt;
 3058              		.loc 1 1090 17
 3059 01f8 FB68     		ldr	r3, [r7, #12]
 3060 01fa 5B6A     		ldr	r3, [r3, #36]
 3061              		.loc 1 1090 52
 3062 01fc 864A     		ldr	r2, .L240
 3063 01fe DA63     		str	r2, [r3, #60]
1091:Drivers/STM32H7xx_HAL_Driver/Src/stm32h7xx_hal_tim.c ****       htim->hdma[TIM_DMA_ID_CC1]->XferHalfCpltCallback = TIM_DMADelayPulseHalfCplt;
 3064              		.loc 1 1091 17
 3065 0200 FB68     		ldr	r3, [r7, #12]
 3066 0202 5B6A     		ldr	r3, [r3, #36]
 3067              		.loc 1 1091 56
 3068 0204 854A     		ldr	r2, .L240+4
 3069 0206 1A64     		str	r2, [r3, #64]
1092:Drivers/STM32H7xx_HAL_Driver/Src/stm32h7xx_hal_tim.c **** 
1093:Drivers/STM32H7xx_HAL_Driver/Src/stm32h7xx_hal_tim.c ****       /* Set the DMA error callback */
1094:Drivers/STM32H7xx_HAL_Driver/Src/stm32h7xx_hal_tim.c ****       htim->hdma[TIM_DMA_ID_CC1]->XferErrorCallback = TIM_DMAError ;
 3070              		.loc 1 1094 17
 3071 0208 FB68     		ldr	r3, [r7, #12]
 3072 020a 5B6A     		ldr	r3, [r3, #36]
 3073              		.loc 1 1094 53
 3074 020c 844A     		ldr	r2, .L240+8
 3075 020e DA64     		str	r2, [r3, #76]
1095:Drivers/STM32H7xx_HAL_Driver/Src/stm32h7xx_hal_tim.c **** 
1096:Drivers/STM32H7xx_HAL_Driver/Src/stm32h7xx_hal_tim.c ****       /* Enable the DMA stream */
1097:Drivers/STM32H7xx_HAL_Driver/Src/stm32h7xx_hal_tim.c ****       if (HAL_DMA_Start_IT(htim->hdma[TIM_DMA_ID_CC1], (uint32_t)pData, (uint32_t)&htim->Instance->
 3076              		.loc 1 1097 11
 3077 0210 FB68     		ldr	r3, [r7, #12]
 3078 0212 586A     		ldr	r0, [r3, #36]
 3079 0214 7968     		ldr	r1, [r7, #4]
 3080              		.loc 1 1097 88
 3081 0216 FB68     		ldr	r3, [r7, #12]
 3082 0218 1B68     		ldr	r3, [r3]
 3083              		.loc 1 1097 83
 3084 021a 3433     		adds	r3, r3, #52
 3085              		.loc 1 1097 11
 3086 021c 1A46     		mov	r2, r3
 3087 021e 7B88     		ldrh	r3, [r7, #2]
 3088 0220 FFF7FEFF 		bl	HAL_DMA_Start_IT
 3089 0224 0346     		mov	r3, r0
 3090              		.loc 1 1097 10 discriminator 1
ARM GAS  C:\Users\TGSPOC~1\AppData\Local\Temp\cchOEqPT.s 			page 74


 3091 0226 002B     		cmp	r3, #0
 3092 0228 01D0     		beq	.L226
1098:Drivers/STM32H7xx_HAL_Driver/Src/stm32h7xx_hal_tim.c ****                            Length) != HAL_OK)
1099:Drivers/STM32H7xx_HAL_Driver/Src/stm32h7xx_hal_tim.c ****       {
1100:Drivers/STM32H7xx_HAL_Driver/Src/stm32h7xx_hal_tim.c ****         /* Return error status */
1101:Drivers/STM32H7xx_HAL_Driver/Src/stm32h7xx_hal_tim.c ****         return HAL_ERROR;
 3093              		.loc 1 1101 16
 3094 022a 0123     		movs	r3, #1
 3095 022c F0E0     		b	.L196
 3096              	.L226:
1102:Drivers/STM32H7xx_HAL_Driver/Src/stm32h7xx_hal_tim.c ****       }
1103:Drivers/STM32H7xx_HAL_Driver/Src/stm32h7xx_hal_tim.c **** 
1104:Drivers/STM32H7xx_HAL_Driver/Src/stm32h7xx_hal_tim.c ****       /* Enable the TIM Capture/Compare 1 DMA request */
1105:Drivers/STM32H7xx_HAL_Driver/Src/stm32h7xx_hal_tim.c ****       __HAL_TIM_ENABLE_DMA(htim, TIM_DMA_CC1);
 3097              		.loc 1 1105 7
 3098 022e FB68     		ldr	r3, [r7, #12]
 3099 0230 1B68     		ldr	r3, [r3]
 3100 0232 DA68     		ldr	r2, [r3, #12]
 3101 0234 FB68     		ldr	r3, [r7, #12]
 3102 0236 1B68     		ldr	r3, [r3]
 3103 0238 42F40072 		orr	r2, r2, #512
 3104 023c DA60     		str	r2, [r3, #12]
1106:Drivers/STM32H7xx_HAL_Driver/Src/stm32h7xx_hal_tim.c ****       break;
 3105              		.loc 1 1106 7
 3106 023e 6EE0     		b	.L227
 3107              	.L224:
1107:Drivers/STM32H7xx_HAL_Driver/Src/stm32h7xx_hal_tim.c ****     }
1108:Drivers/STM32H7xx_HAL_Driver/Src/stm32h7xx_hal_tim.c **** 
1109:Drivers/STM32H7xx_HAL_Driver/Src/stm32h7xx_hal_tim.c ****     case TIM_CHANNEL_2:
1110:Drivers/STM32H7xx_HAL_Driver/Src/stm32h7xx_hal_tim.c ****     {
1111:Drivers/STM32H7xx_HAL_Driver/Src/stm32h7xx_hal_tim.c ****       /* Set the DMA compare callbacks */
1112:Drivers/STM32H7xx_HAL_Driver/Src/stm32h7xx_hal_tim.c ****       htim->hdma[TIM_DMA_ID_CC2]->XferCpltCallback = TIM_DMADelayPulseCplt;
 3108              		.loc 1 1112 17
 3109 0240 FB68     		ldr	r3, [r7, #12]
 3110 0242 9B6A     		ldr	r3, [r3, #40]
 3111              		.loc 1 1112 52
 3112 0244 744A     		ldr	r2, .L240
 3113 0246 DA63     		str	r2, [r3, #60]
1113:Drivers/STM32H7xx_HAL_Driver/Src/stm32h7xx_hal_tim.c ****       htim->hdma[TIM_DMA_ID_CC2]->XferHalfCpltCallback = TIM_DMADelayPulseHalfCplt;
 3114              		.loc 1 1113 17
 3115 0248 FB68     		ldr	r3, [r7, #12]
 3116 024a 9B6A     		ldr	r3, [r3, #40]
 3117              		.loc 1 1113 56
 3118 024c 734A     		ldr	r2, .L240+4
 3119 024e 1A64     		str	r2, [r3, #64]
1114:Drivers/STM32H7xx_HAL_Driver/Src/stm32h7xx_hal_tim.c **** 
1115:Drivers/STM32H7xx_HAL_Driver/Src/stm32h7xx_hal_tim.c ****       /* Set the DMA error callback */
1116:Drivers/STM32H7xx_HAL_Driver/Src/stm32h7xx_hal_tim.c ****       htim->hdma[TIM_DMA_ID_CC2]->XferErrorCallback = TIM_DMAError ;
 3120              		.loc 1 1116 17
 3121 0250 FB68     		ldr	r3, [r7, #12]
 3122 0252 9B6A     		ldr	r3, [r3, #40]
 3123              		.loc 1 1116 53
 3124 0254 724A     		ldr	r2, .L240+8
 3125 0256 DA64     		str	r2, [r3, #76]
1117:Drivers/STM32H7xx_HAL_Driver/Src/stm32h7xx_hal_tim.c **** 
1118:Drivers/STM32H7xx_HAL_Driver/Src/stm32h7xx_hal_tim.c ****       /* Enable the DMA stream */
1119:Drivers/STM32H7xx_HAL_Driver/Src/stm32h7xx_hal_tim.c ****       if (HAL_DMA_Start_IT(htim->hdma[TIM_DMA_ID_CC2], (uint32_t)pData, (uint32_t)&htim->Instance->
ARM GAS  C:\Users\TGSPOC~1\AppData\Local\Temp\cchOEqPT.s 			page 75


 3126              		.loc 1 1119 11
 3127 0258 FB68     		ldr	r3, [r7, #12]
 3128 025a 986A     		ldr	r0, [r3, #40]
 3129 025c 7968     		ldr	r1, [r7, #4]
 3130              		.loc 1 1119 88
 3131 025e FB68     		ldr	r3, [r7, #12]
 3132 0260 1B68     		ldr	r3, [r3]
 3133              		.loc 1 1119 83
 3134 0262 3833     		adds	r3, r3, #56
 3135              		.loc 1 1119 11
 3136 0264 1A46     		mov	r2, r3
 3137 0266 7B88     		ldrh	r3, [r7, #2]
 3138 0268 FFF7FEFF 		bl	HAL_DMA_Start_IT
 3139 026c 0346     		mov	r3, r0
 3140              		.loc 1 1119 10 discriminator 1
 3141 026e 002B     		cmp	r3, #0
 3142 0270 01D0     		beq	.L228
1120:Drivers/STM32H7xx_HAL_Driver/Src/stm32h7xx_hal_tim.c ****                            Length) != HAL_OK)
1121:Drivers/STM32H7xx_HAL_Driver/Src/stm32h7xx_hal_tim.c ****       {
1122:Drivers/STM32H7xx_HAL_Driver/Src/stm32h7xx_hal_tim.c ****         /* Return error status */
1123:Drivers/STM32H7xx_HAL_Driver/Src/stm32h7xx_hal_tim.c ****         return HAL_ERROR;
 3143              		.loc 1 1123 16
 3144 0272 0123     		movs	r3, #1
 3145 0274 CCE0     		b	.L196
 3146              	.L228:
1124:Drivers/STM32H7xx_HAL_Driver/Src/stm32h7xx_hal_tim.c ****       }
1125:Drivers/STM32H7xx_HAL_Driver/Src/stm32h7xx_hal_tim.c **** 
1126:Drivers/STM32H7xx_HAL_Driver/Src/stm32h7xx_hal_tim.c ****       /* Enable the TIM Capture/Compare 2 DMA request */
1127:Drivers/STM32H7xx_HAL_Driver/Src/stm32h7xx_hal_tim.c ****       __HAL_TIM_ENABLE_DMA(htim, TIM_DMA_CC2);
 3147              		.loc 1 1127 7
 3148 0276 FB68     		ldr	r3, [r7, #12]
 3149 0278 1B68     		ldr	r3, [r3]
 3150 027a DA68     		ldr	r2, [r3, #12]
 3151 027c FB68     		ldr	r3, [r7, #12]
 3152 027e 1B68     		ldr	r3, [r3]
 3153 0280 42F48062 		orr	r2, r2, #1024
 3154 0284 DA60     		str	r2, [r3, #12]
1128:Drivers/STM32H7xx_HAL_Driver/Src/stm32h7xx_hal_tim.c ****       break;
 3155              		.loc 1 1128 7
 3156 0286 4AE0     		b	.L227
 3157              	.L223:
1129:Drivers/STM32H7xx_HAL_Driver/Src/stm32h7xx_hal_tim.c ****     }
1130:Drivers/STM32H7xx_HAL_Driver/Src/stm32h7xx_hal_tim.c **** 
1131:Drivers/STM32H7xx_HAL_Driver/Src/stm32h7xx_hal_tim.c ****     case TIM_CHANNEL_3:
1132:Drivers/STM32H7xx_HAL_Driver/Src/stm32h7xx_hal_tim.c ****     {
1133:Drivers/STM32H7xx_HAL_Driver/Src/stm32h7xx_hal_tim.c ****       /* Set the DMA compare callbacks */
1134:Drivers/STM32H7xx_HAL_Driver/Src/stm32h7xx_hal_tim.c ****       htim->hdma[TIM_DMA_ID_CC3]->XferCpltCallback = TIM_DMADelayPulseCplt;
 3158              		.loc 1 1134 17
 3159 0288 FB68     		ldr	r3, [r7, #12]
 3160 028a DB6A     		ldr	r3, [r3, #44]
 3161              		.loc 1 1134 52
 3162 028c 624A     		ldr	r2, .L240
 3163 028e DA63     		str	r2, [r3, #60]
1135:Drivers/STM32H7xx_HAL_Driver/Src/stm32h7xx_hal_tim.c ****       htim->hdma[TIM_DMA_ID_CC3]->XferHalfCpltCallback = TIM_DMADelayPulseHalfCplt;
 3164              		.loc 1 1135 17
 3165 0290 FB68     		ldr	r3, [r7, #12]
 3166 0292 DB6A     		ldr	r3, [r3, #44]
ARM GAS  C:\Users\TGSPOC~1\AppData\Local\Temp\cchOEqPT.s 			page 76


 3167              		.loc 1 1135 56
 3168 0294 614A     		ldr	r2, .L240+4
 3169 0296 1A64     		str	r2, [r3, #64]
1136:Drivers/STM32H7xx_HAL_Driver/Src/stm32h7xx_hal_tim.c **** 
1137:Drivers/STM32H7xx_HAL_Driver/Src/stm32h7xx_hal_tim.c ****       /* Set the DMA error callback */
1138:Drivers/STM32H7xx_HAL_Driver/Src/stm32h7xx_hal_tim.c ****       htim->hdma[TIM_DMA_ID_CC3]->XferErrorCallback = TIM_DMAError ;
 3170              		.loc 1 1138 17
 3171 0298 FB68     		ldr	r3, [r7, #12]
 3172 029a DB6A     		ldr	r3, [r3, #44]
 3173              		.loc 1 1138 53
 3174 029c 604A     		ldr	r2, .L240+8
 3175 029e DA64     		str	r2, [r3, #76]
1139:Drivers/STM32H7xx_HAL_Driver/Src/stm32h7xx_hal_tim.c **** 
1140:Drivers/STM32H7xx_HAL_Driver/Src/stm32h7xx_hal_tim.c ****       /* Enable the DMA stream */
1141:Drivers/STM32H7xx_HAL_Driver/Src/stm32h7xx_hal_tim.c ****       if (HAL_DMA_Start_IT(htim->hdma[TIM_DMA_ID_CC3], (uint32_t)pData, (uint32_t)&htim->Instance->
 3176              		.loc 1 1141 11
 3177 02a0 FB68     		ldr	r3, [r7, #12]
 3178 02a2 D86A     		ldr	r0, [r3, #44]
 3179 02a4 7968     		ldr	r1, [r7, #4]
 3180              		.loc 1 1141 88
 3181 02a6 FB68     		ldr	r3, [r7, #12]
 3182 02a8 1B68     		ldr	r3, [r3]
 3183              		.loc 1 1141 83
 3184 02aa 3C33     		adds	r3, r3, #60
 3185              		.loc 1 1141 11
 3186 02ac 1A46     		mov	r2, r3
 3187 02ae 7B88     		ldrh	r3, [r7, #2]
 3188 02b0 FFF7FEFF 		bl	HAL_DMA_Start_IT
 3189 02b4 0346     		mov	r3, r0
 3190              		.loc 1 1141 10 discriminator 1
 3191 02b6 002B     		cmp	r3, #0
 3192 02b8 01D0     		beq	.L229
1142:Drivers/STM32H7xx_HAL_Driver/Src/stm32h7xx_hal_tim.c ****                            Length) != HAL_OK)
1143:Drivers/STM32H7xx_HAL_Driver/Src/stm32h7xx_hal_tim.c ****       {
1144:Drivers/STM32H7xx_HAL_Driver/Src/stm32h7xx_hal_tim.c ****         /* Return error status */
1145:Drivers/STM32H7xx_HAL_Driver/Src/stm32h7xx_hal_tim.c ****         return HAL_ERROR;
 3193              		.loc 1 1145 16
 3194 02ba 0123     		movs	r3, #1
 3195 02bc A8E0     		b	.L196
 3196              	.L229:
1146:Drivers/STM32H7xx_HAL_Driver/Src/stm32h7xx_hal_tim.c ****       }
1147:Drivers/STM32H7xx_HAL_Driver/Src/stm32h7xx_hal_tim.c ****       /* Enable the TIM Capture/Compare 3 DMA request */
1148:Drivers/STM32H7xx_HAL_Driver/Src/stm32h7xx_hal_tim.c ****       __HAL_TIM_ENABLE_DMA(htim, TIM_DMA_CC3);
 3197              		.loc 1 1148 7
 3198 02be FB68     		ldr	r3, [r7, #12]
 3199 02c0 1B68     		ldr	r3, [r3]
 3200 02c2 DA68     		ldr	r2, [r3, #12]
 3201 02c4 FB68     		ldr	r3, [r7, #12]
 3202 02c6 1B68     		ldr	r3, [r3]
 3203 02c8 42F40062 		orr	r2, r2, #2048
 3204 02cc DA60     		str	r2, [r3, #12]
1149:Drivers/STM32H7xx_HAL_Driver/Src/stm32h7xx_hal_tim.c ****       break;
 3205              		.loc 1 1149 7
 3206 02ce 26E0     		b	.L227
 3207              	.L221:
1150:Drivers/STM32H7xx_HAL_Driver/Src/stm32h7xx_hal_tim.c ****     }
1151:Drivers/STM32H7xx_HAL_Driver/Src/stm32h7xx_hal_tim.c **** 
ARM GAS  C:\Users\TGSPOC~1\AppData\Local\Temp\cchOEqPT.s 			page 77


1152:Drivers/STM32H7xx_HAL_Driver/Src/stm32h7xx_hal_tim.c ****     case TIM_CHANNEL_4:
1153:Drivers/STM32H7xx_HAL_Driver/Src/stm32h7xx_hal_tim.c ****     {
1154:Drivers/STM32H7xx_HAL_Driver/Src/stm32h7xx_hal_tim.c ****       /* Set the DMA compare callbacks */
1155:Drivers/STM32H7xx_HAL_Driver/Src/stm32h7xx_hal_tim.c ****       htim->hdma[TIM_DMA_ID_CC4]->XferCpltCallback = TIM_DMADelayPulseCplt;
 3208              		.loc 1 1155 17
 3209 02d0 FB68     		ldr	r3, [r7, #12]
 3210 02d2 1B6B     		ldr	r3, [r3, #48]
 3211              		.loc 1 1155 52
 3212 02d4 504A     		ldr	r2, .L240
 3213 02d6 DA63     		str	r2, [r3, #60]
1156:Drivers/STM32H7xx_HAL_Driver/Src/stm32h7xx_hal_tim.c ****       htim->hdma[TIM_DMA_ID_CC4]->XferHalfCpltCallback = TIM_DMADelayPulseHalfCplt;
 3214              		.loc 1 1156 17
 3215 02d8 FB68     		ldr	r3, [r7, #12]
 3216 02da 1B6B     		ldr	r3, [r3, #48]
 3217              		.loc 1 1156 56
 3218 02dc 4F4A     		ldr	r2, .L240+4
 3219 02de 1A64     		str	r2, [r3, #64]
1157:Drivers/STM32H7xx_HAL_Driver/Src/stm32h7xx_hal_tim.c **** 
1158:Drivers/STM32H7xx_HAL_Driver/Src/stm32h7xx_hal_tim.c ****       /* Set the DMA error callback */
1159:Drivers/STM32H7xx_HAL_Driver/Src/stm32h7xx_hal_tim.c ****       htim->hdma[TIM_DMA_ID_CC4]->XferErrorCallback = TIM_DMAError ;
 3220              		.loc 1 1159 17
 3221 02e0 FB68     		ldr	r3, [r7, #12]
 3222 02e2 1B6B     		ldr	r3, [r3, #48]
 3223              		.loc 1 1159 53
 3224 02e4 4E4A     		ldr	r2, .L240+8
 3225 02e6 DA64     		str	r2, [r3, #76]
1160:Drivers/STM32H7xx_HAL_Driver/Src/stm32h7xx_hal_tim.c **** 
1161:Drivers/STM32H7xx_HAL_Driver/Src/stm32h7xx_hal_tim.c ****       /* Enable the DMA stream */
1162:Drivers/STM32H7xx_HAL_Driver/Src/stm32h7xx_hal_tim.c ****       if (HAL_DMA_Start_IT(htim->hdma[TIM_DMA_ID_CC4], (uint32_t)pData, (uint32_t)&htim->Instance->
 3226              		.loc 1 1162 11
 3227 02e8 FB68     		ldr	r3, [r7, #12]
 3228 02ea 186B     		ldr	r0, [r3, #48]
 3229 02ec 7968     		ldr	r1, [r7, #4]
 3230              		.loc 1 1162 88
 3231 02ee FB68     		ldr	r3, [r7, #12]
 3232 02f0 1B68     		ldr	r3, [r3]
 3233              		.loc 1 1162 83
 3234 02f2 4033     		adds	r3, r3, #64
 3235              		.loc 1 1162 11
 3236 02f4 1A46     		mov	r2, r3
 3237 02f6 7B88     		ldrh	r3, [r7, #2]
 3238 02f8 FFF7FEFF 		bl	HAL_DMA_Start_IT
 3239 02fc 0346     		mov	r3, r0
 3240              		.loc 1 1162 10 discriminator 1
 3241 02fe 002B     		cmp	r3, #0
 3242 0300 01D0     		beq	.L230
1163:Drivers/STM32H7xx_HAL_Driver/Src/stm32h7xx_hal_tim.c ****                            Length) != HAL_OK)
1164:Drivers/STM32H7xx_HAL_Driver/Src/stm32h7xx_hal_tim.c ****       {
1165:Drivers/STM32H7xx_HAL_Driver/Src/stm32h7xx_hal_tim.c ****         /* Return error status */
1166:Drivers/STM32H7xx_HAL_Driver/Src/stm32h7xx_hal_tim.c ****         return HAL_ERROR;
 3243              		.loc 1 1166 16
 3244 0302 0123     		movs	r3, #1
 3245 0304 84E0     		b	.L196
 3246              	.L230:
1167:Drivers/STM32H7xx_HAL_Driver/Src/stm32h7xx_hal_tim.c ****       }
1168:Drivers/STM32H7xx_HAL_Driver/Src/stm32h7xx_hal_tim.c ****       /* Enable the TIM Capture/Compare 4 DMA request */
1169:Drivers/STM32H7xx_HAL_Driver/Src/stm32h7xx_hal_tim.c ****       __HAL_TIM_ENABLE_DMA(htim, TIM_DMA_CC4);
ARM GAS  C:\Users\TGSPOC~1\AppData\Local\Temp\cchOEqPT.s 			page 78


 3247              		.loc 1 1169 7
 3248 0306 FB68     		ldr	r3, [r7, #12]
 3249 0308 1B68     		ldr	r3, [r3]
 3250 030a DA68     		ldr	r2, [r3, #12]
 3251 030c FB68     		ldr	r3, [r7, #12]
 3252 030e 1B68     		ldr	r3, [r3]
 3253 0310 42F48052 		orr	r2, r2, #4096
 3254 0314 DA60     		str	r2, [r3, #12]
1170:Drivers/STM32H7xx_HAL_Driver/Src/stm32h7xx_hal_tim.c ****       break;
 3255              		.loc 1 1170 7
 3256 0316 02E0     		b	.L227
 3257              	.L220:
1171:Drivers/STM32H7xx_HAL_Driver/Src/stm32h7xx_hal_tim.c ****     }
1172:Drivers/STM32H7xx_HAL_Driver/Src/stm32h7xx_hal_tim.c **** 
1173:Drivers/STM32H7xx_HAL_Driver/Src/stm32h7xx_hal_tim.c ****     default:
1174:Drivers/STM32H7xx_HAL_Driver/Src/stm32h7xx_hal_tim.c ****       status = HAL_ERROR;
 3258              		.loc 1 1174 14
 3259 0318 0123     		movs	r3, #1
 3260 031a FB75     		strb	r3, [r7, #23]
1175:Drivers/STM32H7xx_HAL_Driver/Src/stm32h7xx_hal_tim.c ****       break;
 3261              		.loc 1 1175 7
 3262 031c 00BF     		nop
 3263              	.L227:
1176:Drivers/STM32H7xx_HAL_Driver/Src/stm32h7xx_hal_tim.c ****   }
1177:Drivers/STM32H7xx_HAL_Driver/Src/stm32h7xx_hal_tim.c **** 
1178:Drivers/STM32H7xx_HAL_Driver/Src/stm32h7xx_hal_tim.c ****   if (status == HAL_OK)
 3264              		.loc 1 1178 6
 3265 031e FB7D     		ldrb	r3, [r7, #23]	@ zero_extendqisi2
 3266 0320 002B     		cmp	r3, #0
 3267 0322 74D1     		bne	.L231
1179:Drivers/STM32H7xx_HAL_Driver/Src/stm32h7xx_hal_tim.c ****   {
1180:Drivers/STM32H7xx_HAL_Driver/Src/stm32h7xx_hal_tim.c ****     /* Enable the Output compare channel */
1181:Drivers/STM32H7xx_HAL_Driver/Src/stm32h7xx_hal_tim.c ****     TIM_CCxChannelCmd(htim->Instance, Channel, TIM_CCx_ENABLE);
 3268              		.loc 1 1181 5
 3269 0324 FB68     		ldr	r3, [r7, #12]
 3270 0326 1B68     		ldr	r3, [r3]
 3271 0328 0122     		movs	r2, #1
 3272 032a B968     		ldr	r1, [r7, #8]
 3273 032c 1846     		mov	r0, r3
 3274 032e FFF7FEFF 		bl	TIM_CCxChannelCmd
1182:Drivers/STM32H7xx_HAL_Driver/Src/stm32h7xx_hal_tim.c **** 
1183:Drivers/STM32H7xx_HAL_Driver/Src/stm32h7xx_hal_tim.c ****     if (IS_TIM_BREAK_INSTANCE(htim->Instance) != RESET)
 3275              		.loc 1 1183 9
 3276 0332 FB68     		ldr	r3, [r7, #12]
 3277 0334 1B68     		ldr	r3, [r3]
 3278 0336 3B4A     		ldr	r2, .L240+12
 3279 0338 9342     		cmp	r3, r2
 3280 033a 13D0     		beq	.L232
 3281              		.loc 1 1183 9 is_stmt 0 discriminator 2
 3282 033c FB68     		ldr	r3, [r7, #12]
 3283 033e 1B68     		ldr	r3, [r3]
 3284 0340 394A     		ldr	r2, .L240+16
 3285 0342 9342     		cmp	r3, r2
 3286 0344 0ED0     		beq	.L232
 3287              		.loc 1 1183 9 discriminator 4
 3288 0346 FB68     		ldr	r3, [r7, #12]
 3289 0348 1B68     		ldr	r3, [r3]
ARM GAS  C:\Users\TGSPOC~1\AppData\Local\Temp\cchOEqPT.s 			page 79


 3290 034a 384A     		ldr	r2, .L240+20
 3291 034c 9342     		cmp	r3, r2
 3292 034e 09D0     		beq	.L232
 3293              		.loc 1 1183 9 discriminator 6
 3294 0350 FB68     		ldr	r3, [r7, #12]
 3295 0352 1B68     		ldr	r3, [r3]
 3296 0354 364A     		ldr	r2, .L240+24
 3297 0356 9342     		cmp	r3, r2
 3298 0358 04D0     		beq	.L232
 3299              		.loc 1 1183 9 discriminator 8
 3300 035a FB68     		ldr	r3, [r7, #12]
 3301 035c 1B68     		ldr	r3, [r3]
 3302 035e 354A     		ldr	r2, .L240+28
 3303 0360 9342     		cmp	r3, r2
 3304 0362 01D1     		bne	.L233
 3305              	.L232:
 3306              		.loc 1 1183 9 discriminator 9
 3307 0364 0123     		movs	r3, #1
 3308              		.loc 1 1183 9
 3309 0366 00E0     		b	.L234
 3310              	.L233:
 3311              		.loc 1 1183 9 discriminator 10
 3312 0368 0023     		movs	r3, #0
 3313              	.L234:
 3314              		.loc 1 1183 8 is_stmt 1 discriminator 12
 3315 036a 002B     		cmp	r3, #0
 3316 036c 07D0     		beq	.L235
1184:Drivers/STM32H7xx_HAL_Driver/Src/stm32h7xx_hal_tim.c ****     {
1185:Drivers/STM32H7xx_HAL_Driver/Src/stm32h7xx_hal_tim.c ****       /* Enable the main output */
1186:Drivers/STM32H7xx_HAL_Driver/Src/stm32h7xx_hal_tim.c ****       __HAL_TIM_MOE_ENABLE(htim);
 3317              		.loc 1 1186 7
 3318 036e FB68     		ldr	r3, [r7, #12]
 3319 0370 1B68     		ldr	r3, [r3]
 3320 0372 5A6C     		ldr	r2, [r3, #68]
 3321 0374 FB68     		ldr	r3, [r7, #12]
 3322 0376 1B68     		ldr	r3, [r3]
 3323 0378 42F40042 		orr	r2, r2, #32768
 3324 037c 5A64     		str	r2, [r3, #68]
 3325              	.L235:
1187:Drivers/STM32H7xx_HAL_Driver/Src/stm32h7xx_hal_tim.c ****     }
1188:Drivers/STM32H7xx_HAL_Driver/Src/stm32h7xx_hal_tim.c **** 
1189:Drivers/STM32H7xx_HAL_Driver/Src/stm32h7xx_hal_tim.c ****     /* Enable the Peripheral, except in trigger mode where enable is automatically done with trigge
1190:Drivers/STM32H7xx_HAL_Driver/Src/stm32h7xx_hal_tim.c ****     if (IS_TIM_SLAVE_INSTANCE(htim->Instance))
 3326              		.loc 1 1190 9
 3327 037e FB68     		ldr	r3, [r7, #12]
 3328 0380 1B68     		ldr	r3, [r3]
 3329              		.loc 1 1190 8
 3330 0382 284A     		ldr	r2, .L240+12
 3331 0384 9342     		cmp	r3, r2
 3332 0386 22D0     		beq	.L236
 3333              		.loc 1 1190 9 discriminator 1
 3334 0388 FB68     		ldr	r3, [r7, #12]
 3335 038a 1B68     		ldr	r3, [r3]
 3336 038c B3F1804F 		cmp	r3, #1073741824
 3337 0390 1DD0     		beq	.L236
 3338              		.loc 1 1190 9 is_stmt 0 discriminator 2
 3339 0392 FB68     		ldr	r3, [r7, #12]
ARM GAS  C:\Users\TGSPOC~1\AppData\Local\Temp\cchOEqPT.s 			page 80


 3340 0394 1B68     		ldr	r3, [r3]
 3341 0396 284A     		ldr	r2, .L240+32
 3342 0398 9342     		cmp	r3, r2
 3343 039a 18D0     		beq	.L236
 3344              		.loc 1 1190 9 discriminator 3
 3345 039c FB68     		ldr	r3, [r7, #12]
 3346 039e 1B68     		ldr	r3, [r3]
 3347 03a0 264A     		ldr	r2, .L240+36
 3348 03a2 9342     		cmp	r3, r2
 3349 03a4 13D0     		beq	.L236
 3350              		.loc 1 1190 9 discriminator 4
 3351 03a6 FB68     		ldr	r3, [r7, #12]
 3352 03a8 1B68     		ldr	r3, [r3]
 3353 03aa 254A     		ldr	r2, .L240+40
 3354 03ac 9342     		cmp	r3, r2
 3355 03ae 0ED0     		beq	.L236
 3356              		.loc 1 1190 9 discriminator 5
 3357 03b0 FB68     		ldr	r3, [r7, #12]
 3358 03b2 1B68     		ldr	r3, [r3]
 3359 03b4 1C4A     		ldr	r2, .L240+16
 3360 03b6 9342     		cmp	r3, r2
 3361 03b8 09D0     		beq	.L236
 3362              		.loc 1 1190 9 discriminator 6
 3363 03ba FB68     		ldr	r3, [r7, #12]
 3364 03bc 1B68     		ldr	r3, [r3]
 3365 03be 214A     		ldr	r2, .L240+44
 3366 03c0 9342     		cmp	r3, r2
 3367 03c2 04D0     		beq	.L236
 3368              		.loc 1 1190 9 discriminator 7
 3369 03c4 FB68     		ldr	r3, [r7, #12]
 3370 03c6 1B68     		ldr	r3, [r3]
 3371 03c8 184A     		ldr	r2, .L240+20
 3372 03ca 9342     		cmp	r3, r2
 3373 03cc 15D1     		bne	.L237
 3374              	.L236:
1191:Drivers/STM32H7xx_HAL_Driver/Src/stm32h7xx_hal_tim.c ****     {
1192:Drivers/STM32H7xx_HAL_Driver/Src/stm32h7xx_hal_tim.c ****       tmpsmcr = htim->Instance->SMCR & TIM_SMCR_SMS;
 3375              		.loc 1 1192 21 is_stmt 1
 3376 03ce FB68     		ldr	r3, [r7, #12]
 3377 03d0 1B68     		ldr	r3, [r3]
 3378              		.loc 1 1192 31
 3379 03d2 9A68     		ldr	r2, [r3, #8]
 3380              		.loc 1 1192 15
 3381 03d4 1C4B     		ldr	r3, .L240+48
 3382 03d6 1340     		ands	r3, r3, r2
 3383 03d8 3B61     		str	r3, [r7, #16]
1193:Drivers/STM32H7xx_HAL_Driver/Src/stm32h7xx_hal_tim.c ****       if (!IS_TIM_SLAVEMODE_TRIGGER_ENABLED(tmpsmcr))
 3384              		.loc 1 1193 10
 3385 03da 3B69     		ldr	r3, [r7, #16]
 3386 03dc 062B     		cmp	r3, #6
 3387 03de 15D0     		beq	.L239
 3388              		.loc 1 1193 11 discriminator 1
 3389 03e0 3B69     		ldr	r3, [r7, #16]
 3390 03e2 B3F5803F 		cmp	r3, #65536
 3391 03e6 11D0     		beq	.L239
1194:Drivers/STM32H7xx_HAL_Driver/Src/stm32h7xx_hal_tim.c ****       {
1195:Drivers/STM32H7xx_HAL_Driver/Src/stm32h7xx_hal_tim.c ****         __HAL_TIM_ENABLE(htim);
ARM GAS  C:\Users\TGSPOC~1\AppData\Local\Temp\cchOEqPT.s 			page 81


 3392              		.loc 1 1195 9
 3393 03e8 FB68     		ldr	r3, [r7, #12]
 3394 03ea 1B68     		ldr	r3, [r3]
 3395 03ec 1A68     		ldr	r2, [r3]
 3396 03ee FB68     		ldr	r3, [r7, #12]
 3397 03f0 1B68     		ldr	r3, [r3]
 3398 03f2 42F00102 		orr	r2, r2, #1
 3399 03f6 1A60     		str	r2, [r3]
1193:Drivers/STM32H7xx_HAL_Driver/Src/stm32h7xx_hal_tim.c ****       if (!IS_TIM_SLAVEMODE_TRIGGER_ENABLED(tmpsmcr))
 3400              		.loc 1 1193 10
 3401 03f8 08E0     		b	.L239
 3402              	.L237:
1196:Drivers/STM32H7xx_HAL_Driver/Src/stm32h7xx_hal_tim.c ****       }
1197:Drivers/STM32H7xx_HAL_Driver/Src/stm32h7xx_hal_tim.c ****     }
1198:Drivers/STM32H7xx_HAL_Driver/Src/stm32h7xx_hal_tim.c ****     else
1199:Drivers/STM32H7xx_HAL_Driver/Src/stm32h7xx_hal_tim.c ****     {
1200:Drivers/STM32H7xx_HAL_Driver/Src/stm32h7xx_hal_tim.c ****       __HAL_TIM_ENABLE(htim);
 3403              		.loc 1 1200 7
 3404 03fa FB68     		ldr	r3, [r7, #12]
 3405 03fc 1B68     		ldr	r3, [r3]
 3406 03fe 1A68     		ldr	r2, [r3]
 3407 0400 FB68     		ldr	r3, [r7, #12]
 3408 0402 1B68     		ldr	r3, [r3]
 3409 0404 42F00102 		orr	r2, r2, #1
 3410 0408 1A60     		str	r2, [r3]
 3411 040a 00E0     		b	.L231
 3412              	.L239:
1193:Drivers/STM32H7xx_HAL_Driver/Src/stm32h7xx_hal_tim.c ****       {
 3413              		.loc 1 1193 10
 3414 040c 00BF     		nop
 3415              	.L231:
1201:Drivers/STM32H7xx_HAL_Driver/Src/stm32h7xx_hal_tim.c ****     }
1202:Drivers/STM32H7xx_HAL_Driver/Src/stm32h7xx_hal_tim.c ****   }
1203:Drivers/STM32H7xx_HAL_Driver/Src/stm32h7xx_hal_tim.c **** 
1204:Drivers/STM32H7xx_HAL_Driver/Src/stm32h7xx_hal_tim.c ****   /* Return function status */
1205:Drivers/STM32H7xx_HAL_Driver/Src/stm32h7xx_hal_tim.c ****   return status;
 3416              		.loc 1 1205 10
 3417 040e FB7D     		ldrb	r3, [r7, #23]	@ zero_extendqisi2
 3418              	.L196:
1206:Drivers/STM32H7xx_HAL_Driver/Src/stm32h7xx_hal_tim.c **** }
 3419              		.loc 1 1206 1
 3420 0410 1846     		mov	r0, r3
 3421 0412 1837     		adds	r7, r7, #24
 3422              	.LCFI101:
 3423              		.cfi_def_cfa_offset 8
 3424 0414 BD46     		mov	sp, r7
 3425              	.LCFI102:
 3426              		.cfi_def_cfa_register 13
 3427              		@ sp needed
 3428 0416 80BD     		pop	{r7, pc}
 3429              	.L241:
 3430              		.align	2
 3431              	.L240:
 3432 0418 00000000 		.word	TIM_DMADelayPulseCplt
 3433 041c 00000000 		.word	TIM_DMADelayPulseHalfCplt
 3434 0420 00000000 		.word	TIM_DMAError
 3435 0424 00000140 		.word	1073807360
ARM GAS  C:\Users\TGSPOC~1\AppData\Local\Temp\cchOEqPT.s 			page 82


 3436 0428 00040140 		.word	1073808384
 3437 042c 00400140 		.word	1073823744
 3438 0430 00440140 		.word	1073824768
 3439 0434 00480140 		.word	1073825792
 3440 0438 00040040 		.word	1073742848
 3441 043c 00080040 		.word	1073743872
 3442 0440 000C0040 		.word	1073744896
 3443 0444 00180040 		.word	1073747968
 3444 0448 07000100 		.word	65543
 3445              		.cfi_endproc
 3446              	.LFE162:
 3448              		.section	.text.HAL_TIM_OC_Stop_DMA,"ax",%progbits
 3449              		.align	1
 3450              		.global	HAL_TIM_OC_Stop_DMA
 3451              		.syntax unified
 3452              		.thumb
 3453              		.thumb_func
 3455              	HAL_TIM_OC_Stop_DMA:
 3456              	.LFB163:
1207:Drivers/STM32H7xx_HAL_Driver/Src/stm32h7xx_hal_tim.c **** 
1208:Drivers/STM32H7xx_HAL_Driver/Src/stm32h7xx_hal_tim.c **** /**
1209:Drivers/STM32H7xx_HAL_Driver/Src/stm32h7xx_hal_tim.c ****   * @brief  Stops the TIM Output Compare signal generation in DMA mode.
1210:Drivers/STM32H7xx_HAL_Driver/Src/stm32h7xx_hal_tim.c ****   * @param  htim TIM Output Compare handle
1211:Drivers/STM32H7xx_HAL_Driver/Src/stm32h7xx_hal_tim.c ****   * @param  Channel TIM Channel to be disabled
1212:Drivers/STM32H7xx_HAL_Driver/Src/stm32h7xx_hal_tim.c ****   *          This parameter can be one of the following values:
1213:Drivers/STM32H7xx_HAL_Driver/Src/stm32h7xx_hal_tim.c ****   *            @arg TIM_CHANNEL_1: TIM Channel 1 selected
1214:Drivers/STM32H7xx_HAL_Driver/Src/stm32h7xx_hal_tim.c ****   *            @arg TIM_CHANNEL_2: TIM Channel 2 selected
1215:Drivers/STM32H7xx_HAL_Driver/Src/stm32h7xx_hal_tim.c ****   *            @arg TIM_CHANNEL_3: TIM Channel 3 selected
1216:Drivers/STM32H7xx_HAL_Driver/Src/stm32h7xx_hal_tim.c ****   *            @arg TIM_CHANNEL_4: TIM Channel 4 selected
1217:Drivers/STM32H7xx_HAL_Driver/Src/stm32h7xx_hal_tim.c ****   * @retval HAL status
1218:Drivers/STM32H7xx_HAL_Driver/Src/stm32h7xx_hal_tim.c ****   */
