ARM GAS  C:\Users\TGSPOC~1\AppData\Local\Temp\ccVI6l15.s 			page 1


   1              		.cpu cortex-m4
   2              		.arch armv7e-m
   3              		.fpu fpv4-sp-d16
   4              		.eabi_attribute 27, 1
   5              		.eabi_attribute 28, 1
   6              		.eabi_attribute 20, 1
   7              		.eabi_attribute 21, 1
   8              		.eabi_attribute 23, 3
   9              		.eabi_attribute 24, 1
  10              		.eabi_attribute 25, 1
  11              		.eabi_attribute 26, 1
  12              		.eabi_attribute 30, 6
  13              		.eabi_attribute 34, 1
  14              		.eabi_attribute 18, 4
  15              		.file	"stm32f4xx_hal_rtc_ex.c"
  16              		.text
  17              	.Ltext0:
  18              		.cfi_sections	.debug_frame
  19              		.file 1 "Drivers/STM32F4xx_HAL_Driver/Src/stm32f4xx_hal_rtc_ex.c"
  20              		.section	.text.HAL_RTCEx_SetTimeStamp,"ax",%progbits
  21              		.align	1
  22              		.global	HAL_RTCEx_SetTimeStamp
  23              		.syntax unified
  24              		.thumb
  25              		.thumb_func
  27              	HAL_RTCEx_SetTimeStamp:
  28              	.LFB134:
   1:Drivers/STM32F4xx_HAL_Driver/Src/stm32f4xx_hal_rtc_ex.c **** /**
   2:Drivers/STM32F4xx_HAL_Driver/Src/stm32f4xx_hal_rtc_ex.c ****   ******************************************************************************
   3:Drivers/STM32F4xx_HAL_Driver/Src/stm32f4xx_hal_rtc_ex.c ****   * @file    stm32f4xx_hal_rtc_ex.c
   4:Drivers/STM32F4xx_HAL_Driver/Src/stm32f4xx_hal_rtc_ex.c ****   * @author  MCD Application Team
   5:Drivers/STM32F4xx_HAL_Driver/Src/stm32f4xx_hal_rtc_ex.c ****   * @brief   Extended RTC HAL module driver.
   6:Drivers/STM32F4xx_HAL_Driver/Src/stm32f4xx_hal_rtc_ex.c ****   *          This file provides firmware functions to manage the following
   7:Drivers/STM32F4xx_HAL_Driver/Src/stm32f4xx_hal_rtc_ex.c ****   *          functionalities of the Real-Time Clock (RTC) Extended peripheral:
   8:Drivers/STM32F4xx_HAL_Driver/Src/stm32f4xx_hal_rtc_ex.c ****   *           + RTC Timestamp functions
   9:Drivers/STM32F4xx_HAL_Driver/Src/stm32f4xx_hal_rtc_ex.c ****   *           + RTC Tamper functions
  10:Drivers/STM32F4xx_HAL_Driver/Src/stm32f4xx_hal_rtc_ex.c ****   *           + RTC Wakeup functions
  11:Drivers/STM32F4xx_HAL_Driver/Src/stm32f4xx_hal_rtc_ex.c ****   *           + Extended Control functions
  12:Drivers/STM32F4xx_HAL_Driver/Src/stm32f4xx_hal_rtc_ex.c ****   *           + Extended RTC features functions
  13:Drivers/STM32F4xx_HAL_Driver/Src/stm32f4xx_hal_rtc_ex.c ****   *
  14:Drivers/STM32F4xx_HAL_Driver/Src/stm32f4xx_hal_rtc_ex.c ****   ******************************************************************************
  15:Drivers/STM32F4xx_HAL_Driver/Src/stm32f4xx_hal_rtc_ex.c ****   * @attention
  16:Drivers/STM32F4xx_HAL_Driver/Src/stm32f4xx_hal_rtc_ex.c ****   *
  17:Drivers/STM32F4xx_HAL_Driver/Src/stm32f4xx_hal_rtc_ex.c ****   * Copyright (c) 2016 STMicroelectronics.
  18:Drivers/STM32F4xx_HAL_Driver/Src/stm32f4xx_hal_rtc_ex.c ****   * All rights reserved.
  19:Drivers/STM32F4xx_HAL_Driver/Src/stm32f4xx_hal_rtc_ex.c ****   *
  20:Drivers/STM32F4xx_HAL_Driver/Src/stm32f4xx_hal_rtc_ex.c ****   * This software is licensed under terms that can be found in the LICENSE file
  21:Drivers/STM32F4xx_HAL_Driver/Src/stm32f4xx_hal_rtc_ex.c ****   * in the root directory of this software component.
  22:Drivers/STM32F4xx_HAL_Driver/Src/stm32f4xx_hal_rtc_ex.c ****   * If no LICENSE file comes with this software, it is provided AS-IS.
  23:Drivers/STM32F4xx_HAL_Driver/Src/stm32f4xx_hal_rtc_ex.c ****   *
  24:Drivers/STM32F4xx_HAL_Driver/Src/stm32f4xx_hal_rtc_ex.c ****   ******************************************************************************
  25:Drivers/STM32F4xx_HAL_Driver/Src/stm32f4xx_hal_rtc_ex.c ****   @verbatim
  26:Drivers/STM32F4xx_HAL_Driver/Src/stm32f4xx_hal_rtc_ex.c ****   ==============================================================================
  27:Drivers/STM32F4xx_HAL_Driver/Src/stm32f4xx_hal_rtc_ex.c ****                         ##### How to use this driver #####
  28:Drivers/STM32F4xx_HAL_Driver/Src/stm32f4xx_hal_rtc_ex.c ****   ==============================================================================
  29:Drivers/STM32F4xx_HAL_Driver/Src/stm32f4xx_hal_rtc_ex.c ****   [..]
  30:Drivers/STM32F4xx_HAL_Driver/Src/stm32f4xx_hal_rtc_ex.c ****     (+) Enable the RTC domain access.
ARM GAS  C:\Users\TGSPOC~1\AppData\Local\Temp\ccVI6l15.s 			page 2


  31:Drivers/STM32F4xx_HAL_Driver/Src/stm32f4xx_hal_rtc_ex.c ****     (+) Configure the RTC Prescaler (Asynchronous and Synchronous) and RTC hour
  32:Drivers/STM32F4xx_HAL_Driver/Src/stm32f4xx_hal_rtc_ex.c ****         format using the HAL_RTC_Init() function.
  33:Drivers/STM32F4xx_HAL_Driver/Src/stm32f4xx_hal_rtc_ex.c **** 
  34:Drivers/STM32F4xx_HAL_Driver/Src/stm32f4xx_hal_rtc_ex.c ****   *** RTC Wakeup configuration ***
  35:Drivers/STM32F4xx_HAL_Driver/Src/stm32f4xx_hal_rtc_ex.c ****   ================================
  36:Drivers/STM32F4xx_HAL_Driver/Src/stm32f4xx_hal_rtc_ex.c ****   [..]
  37:Drivers/STM32F4xx_HAL_Driver/Src/stm32f4xx_hal_rtc_ex.c ****     (+) To configure the RTC Wakeup Clock source and Counter use the
  38:Drivers/STM32F4xx_HAL_Driver/Src/stm32f4xx_hal_rtc_ex.c ****         HAL_RTCEx_SetWakeUpTimer() function.
  39:Drivers/STM32F4xx_HAL_Driver/Src/stm32f4xx_hal_rtc_ex.c ****         You can also configure the RTC Wakeup timer in interrupt mode using the
  40:Drivers/STM32F4xx_HAL_Driver/Src/stm32f4xx_hal_rtc_ex.c ****         HAL_RTCEx_SetWakeUpTimer_IT() function.
  41:Drivers/STM32F4xx_HAL_Driver/Src/stm32f4xx_hal_rtc_ex.c ****     (+) To read the RTC Wakeup Counter register, use the HAL_RTCEx_GetWakeUpTimer()
  42:Drivers/STM32F4xx_HAL_Driver/Src/stm32f4xx_hal_rtc_ex.c ****         function.
  43:Drivers/STM32F4xx_HAL_Driver/Src/stm32f4xx_hal_rtc_ex.c **** 
  44:Drivers/STM32F4xx_HAL_Driver/Src/stm32f4xx_hal_rtc_ex.c ****   *** Timestamp configuration ***
  45:Drivers/STM32F4xx_HAL_Driver/Src/stm32f4xx_hal_rtc_ex.c ****   ===============================
  46:Drivers/STM32F4xx_HAL_Driver/Src/stm32f4xx_hal_rtc_ex.c ****   [..]
  47:Drivers/STM32F4xx_HAL_Driver/Src/stm32f4xx_hal_rtc_ex.c ****     (+) To configure the RTC Timestamp use the HAL_RTCEx_SetTimeStamp() function.
  48:Drivers/STM32F4xx_HAL_Driver/Src/stm32f4xx_hal_rtc_ex.c ****         You can also configure the RTC Timestamp with interrupt mode using the
  49:Drivers/STM32F4xx_HAL_Driver/Src/stm32f4xx_hal_rtc_ex.c ****         HAL_RTCEx_SetTimeStamp_IT() function.
  50:Drivers/STM32F4xx_HAL_Driver/Src/stm32f4xx_hal_rtc_ex.c ****     (+) To read the RTC Timestamp Time and Date register, use the
  51:Drivers/STM32F4xx_HAL_Driver/Src/stm32f4xx_hal_rtc_ex.c ****         HAL_RTCEx_GetTimeStamp() function.
  52:Drivers/STM32F4xx_HAL_Driver/Src/stm32f4xx_hal_rtc_ex.c ****     (+) The Timestamp alternate function can be mapped either to RTC_AF1 (PC13)
  53:Drivers/STM32F4xx_HAL_Driver/Src/stm32f4xx_hal_rtc_ex.c ****         or RTC_AF2 (PI8) depending on the value of TSINSEL bit in RTC_TAFCR
  54:Drivers/STM32F4xx_HAL_Driver/Src/stm32f4xx_hal_rtc_ex.c ****         register.
  55:Drivers/STM32F4xx_HAL_Driver/Src/stm32f4xx_hal_rtc_ex.c ****         For STM32F446xx devices RTC_AF2 corresponds to pin PA0 and not to pin PI8.
  56:Drivers/STM32F4xx_HAL_Driver/Src/stm32f4xx_hal_rtc_ex.c ****         The corresponding pin is also selected by HAL_RTCEx_SetTimeStamp()
  57:Drivers/STM32F4xx_HAL_Driver/Src/stm32f4xx_hal_rtc_ex.c ****         or HAL_RTCEx_SetTimeStamp_IT() functions.
  58:Drivers/STM32F4xx_HAL_Driver/Src/stm32f4xx_hal_rtc_ex.c **** 
  59:Drivers/STM32F4xx_HAL_Driver/Src/stm32f4xx_hal_rtc_ex.c ****   *** Tamper configuration ***
  60:Drivers/STM32F4xx_HAL_Driver/Src/stm32f4xx_hal_rtc_ex.c ****   ============================
  61:Drivers/STM32F4xx_HAL_Driver/Src/stm32f4xx_hal_rtc_ex.c ****   [..]
  62:Drivers/STM32F4xx_HAL_Driver/Src/stm32f4xx_hal_rtc_ex.c ****     (+) To Enable the RTC Tamper and configure the Tamper filter count, trigger
  63:Drivers/STM32F4xx_HAL_Driver/Src/stm32f4xx_hal_rtc_ex.c ****         Edge or Level according to the Tamper filter value (if equal to 0 Edge
  64:Drivers/STM32F4xx_HAL_Driver/Src/stm32f4xx_hal_rtc_ex.c ****         else Level), sampling frequency, precharge or discharge and Pull-UP use
  65:Drivers/STM32F4xx_HAL_Driver/Src/stm32f4xx_hal_rtc_ex.c ****         the HAL_RTCEx_SetTamper() function.
  66:Drivers/STM32F4xx_HAL_Driver/Src/stm32f4xx_hal_rtc_ex.c ****         You can configure RTC Tamper in interrupt mode using HAL_RTCEx_SetTamper_IT()
  67:Drivers/STM32F4xx_HAL_Driver/Src/stm32f4xx_hal_rtc_ex.c ****         function.
  68:Drivers/STM32F4xx_HAL_Driver/Src/stm32f4xx_hal_rtc_ex.c ****     (+) The TAMPER1 alternate function can be mapped either to RTC_AF1 (PC13)
  69:Drivers/STM32F4xx_HAL_Driver/Src/stm32f4xx_hal_rtc_ex.c ****         or RTC_AF2 (PI8) depending on the value of TAMP1INSEL bit in RTC_TAFCR
  70:Drivers/STM32F4xx_HAL_Driver/Src/stm32f4xx_hal_rtc_ex.c ****         register.
  71:Drivers/STM32F4xx_HAL_Driver/Src/stm32f4xx_hal_rtc_ex.c ****         The corresponding pin is also selected by HAL_RTCEx_SetTamper()
  72:Drivers/STM32F4xx_HAL_Driver/Src/stm32f4xx_hal_rtc_ex.c ****         or HAL_RTCEx_SetTamper_IT() functions.
  73:Drivers/STM32F4xx_HAL_Driver/Src/stm32f4xx_hal_rtc_ex.c ****     (+) The TAMPER2 alternate function is mapped to RTC_AF2 (PI8).
  74:Drivers/STM32F4xx_HAL_Driver/Src/stm32f4xx_hal_rtc_ex.c ****         For STM32F446xx devices RTC_AF2 corresponds to pin PA0 and not to pin PI8.
  75:Drivers/STM32F4xx_HAL_Driver/Src/stm32f4xx_hal_rtc_ex.c **** 
  76:Drivers/STM32F4xx_HAL_Driver/Src/stm32f4xx_hal_rtc_ex.c ****   *** Backup Data Registers configuration ***
  77:Drivers/STM32F4xx_HAL_Driver/Src/stm32f4xx_hal_rtc_ex.c ****   ===========================================
  78:Drivers/STM32F4xx_HAL_Driver/Src/stm32f4xx_hal_rtc_ex.c ****   [..]
  79:Drivers/STM32F4xx_HAL_Driver/Src/stm32f4xx_hal_rtc_ex.c ****     (+) To write to the RTC Backup Data registers, use the HAL_RTCEx_BKUPWrite()
  80:Drivers/STM32F4xx_HAL_Driver/Src/stm32f4xx_hal_rtc_ex.c ****         function.
  81:Drivers/STM32F4xx_HAL_Driver/Src/stm32f4xx_hal_rtc_ex.c ****     (+) To read the RTC Backup Data registers, use the HAL_RTCEx_BKUPRead()
  82:Drivers/STM32F4xx_HAL_Driver/Src/stm32f4xx_hal_rtc_ex.c ****         function.
  83:Drivers/STM32F4xx_HAL_Driver/Src/stm32f4xx_hal_rtc_ex.c **** 
  84:Drivers/STM32F4xx_HAL_Driver/Src/stm32f4xx_hal_rtc_ex.c ****   *** Coarse Digital Calibration configuration ***
  85:Drivers/STM32F4xx_HAL_Driver/Src/stm32f4xx_hal_rtc_ex.c ****   ================================================
  86:Drivers/STM32F4xx_HAL_Driver/Src/stm32f4xx_hal_rtc_ex.c ****   [..]
  87:Drivers/STM32F4xx_HAL_Driver/Src/stm32f4xx_hal_rtc_ex.c ****     (+) The Coarse Digital Calibration can be used to compensate crystal inaccuracy
ARM GAS  C:\Users\TGSPOC~1\AppData\Local\Temp\ccVI6l15.s 			page 3


  88:Drivers/STM32F4xx_HAL_Driver/Src/stm32f4xx_hal_rtc_ex.c ****         by setting the DCS bit in RTC_CALIBR register.
  89:Drivers/STM32F4xx_HAL_Driver/Src/stm32f4xx_hal_rtc_ex.c ****     (+) When positive calibration is enabled (DCS = ‘0’), 2 asynchronous prescaler
  90:Drivers/STM32F4xx_HAL_Driver/Src/stm32f4xx_hal_rtc_ex.c ****         clock cycles are added every minute during 2xDC minutes.
  91:Drivers/STM32F4xx_HAL_Driver/Src/stm32f4xx_hal_rtc_ex.c ****         This causes the calendar to be updated sooner, thereby adjusting the
  92:Drivers/STM32F4xx_HAL_Driver/Src/stm32f4xx_hal_rtc_ex.c ****         effective RTC frequency to be a bit higher.
  93:Drivers/STM32F4xx_HAL_Driver/Src/stm32f4xx_hal_rtc_ex.c ****     (+) When negative calibration is enabled (DCS = ‘1’), 1 asynchronous prescaler
  94:Drivers/STM32F4xx_HAL_Driver/Src/stm32f4xx_hal_rtc_ex.c ****         clock cycle is removed every minute during 2xDC minutes.
  95:Drivers/STM32F4xx_HAL_Driver/Src/stm32f4xx_hal_rtc_ex.c ****         This causes the calendar to be updated later, thereby adjusting the
  96:Drivers/STM32F4xx_HAL_Driver/Src/stm32f4xx_hal_rtc_ex.c ****         effective RTC frequency to be a bit lower.
  97:Drivers/STM32F4xx_HAL_Driver/Src/stm32f4xx_hal_rtc_ex.c ****     (+) DC is configured through bits DC[4:0] of RTC_CALIBR register. This number
  98:Drivers/STM32F4xx_HAL_Driver/Src/stm32f4xx_hal_rtc_ex.c ****         ranges from 0 to 31 corresponding to a time interval (2xDC) ranging from
  99:Drivers/STM32F4xx_HAL_Driver/Src/stm32f4xx_hal_rtc_ex.c ****         0 to 62.
 100:Drivers/STM32F4xx_HAL_Driver/Src/stm32f4xx_hal_rtc_ex.c ****     (+) In order to measure the clock deviation, a 512 Hz clock is output for
 101:Drivers/STM32F4xx_HAL_Driver/Src/stm32f4xx_hal_rtc_ex.c ****         calibration.
 102:Drivers/STM32F4xx_HAL_Driver/Src/stm32f4xx_hal_rtc_ex.c ****     (+) The RTC Coarse Digital Calibration value and sign can be calibrated using
 103:Drivers/STM32F4xx_HAL_Driver/Src/stm32f4xx_hal_rtc_ex.c ****         the HAL_RTCEx_SetCoarseCalib() function.
 104:Drivers/STM32F4xx_HAL_Driver/Src/stm32f4xx_hal_rtc_ex.c **** 
 105:Drivers/STM32F4xx_HAL_Driver/Src/stm32f4xx_hal_rtc_ex.c ****   *** Smooth Digital Calibration configuration ***
 106:Drivers/STM32F4xx_HAL_Driver/Src/stm32f4xx_hal_rtc_ex.c ****   ================================================
 107:Drivers/STM32F4xx_HAL_Driver/Src/stm32f4xx_hal_rtc_ex.c ****   [..]
 108:Drivers/STM32F4xx_HAL_Driver/Src/stm32f4xx_hal_rtc_ex.c ****     (+) RTC frequency can be digitally calibrated with a resolution of about
 109:Drivers/STM32F4xx_HAL_Driver/Src/stm32f4xx_hal_rtc_ex.c ****         0.954 ppm with a range from -487.1 ppm to +488.5 ppm.
 110:Drivers/STM32F4xx_HAL_Driver/Src/stm32f4xx_hal_rtc_ex.c ****         The correction of the frequency is performed using a series of small
 111:Drivers/STM32F4xx_HAL_Driver/Src/stm32f4xx_hal_rtc_ex.c ****         adjustments (adding and/or subtracting individual RTCCLK pulses).
 112:Drivers/STM32F4xx_HAL_Driver/Src/stm32f4xx_hal_rtc_ex.c ****     (+) The smooth digital calibration is performed during a cycle of about 2^20
 113:Drivers/STM32F4xx_HAL_Driver/Src/stm32f4xx_hal_rtc_ex.c ****         RTCCLK pulses (or 32 seconds) when the input frequency is 32,768 Hz.
 114:Drivers/STM32F4xx_HAL_Driver/Src/stm32f4xx_hal_rtc_ex.c ****         This cycle is maintained by a 20-bit counter clocked by RTCCLK.
 115:Drivers/STM32F4xx_HAL_Driver/Src/stm32f4xx_hal_rtc_ex.c ****     (+) The smooth calibration register (RTC_CALR) specifies the number of RTCCLK
 116:Drivers/STM32F4xx_HAL_Driver/Src/stm32f4xx_hal_rtc_ex.c ****         clock cycles to be masked during the 32-second cycle.
 117:Drivers/STM32F4xx_HAL_Driver/Src/stm32f4xx_hal_rtc_ex.c ****     (+) The RTC Smooth Digital Calibration value and the corresponding calibration
 118:Drivers/STM32F4xx_HAL_Driver/Src/stm32f4xx_hal_rtc_ex.c ****         cycle period (32s, 16s, or 8s) can be calibrated using the
 119:Drivers/STM32F4xx_HAL_Driver/Src/stm32f4xx_hal_rtc_ex.c ****         HAL_RTCEx_SetSmoothCalib() function.
 120:Drivers/STM32F4xx_HAL_Driver/Src/stm32f4xx_hal_rtc_ex.c **** 
 121:Drivers/STM32F4xx_HAL_Driver/Src/stm32f4xx_hal_rtc_ex.c ****   @endverbatim
 122:Drivers/STM32F4xx_HAL_Driver/Src/stm32f4xx_hal_rtc_ex.c ****   ******************************************************************************
 123:Drivers/STM32F4xx_HAL_Driver/Src/stm32f4xx_hal_rtc_ex.c ****   */
 124:Drivers/STM32F4xx_HAL_Driver/Src/stm32f4xx_hal_rtc_ex.c **** 
 125:Drivers/STM32F4xx_HAL_Driver/Src/stm32f4xx_hal_rtc_ex.c **** /* Includes ------------------------------------------------------------------*/
 126:Drivers/STM32F4xx_HAL_Driver/Src/stm32f4xx_hal_rtc_ex.c **** #include "stm32f4xx_hal.h"
 127:Drivers/STM32F4xx_HAL_Driver/Src/stm32f4xx_hal_rtc_ex.c **** 
 128:Drivers/STM32F4xx_HAL_Driver/Src/stm32f4xx_hal_rtc_ex.c **** /** @addtogroup STM32F4xx_HAL_Driver
 129:Drivers/STM32F4xx_HAL_Driver/Src/stm32f4xx_hal_rtc_ex.c ****   * @{
 130:Drivers/STM32F4xx_HAL_Driver/Src/stm32f4xx_hal_rtc_ex.c ****   */
 131:Drivers/STM32F4xx_HAL_Driver/Src/stm32f4xx_hal_rtc_ex.c **** 
 132:Drivers/STM32F4xx_HAL_Driver/Src/stm32f4xx_hal_rtc_ex.c **** /** @defgroup RTCEx RTCEx
 133:Drivers/STM32F4xx_HAL_Driver/Src/stm32f4xx_hal_rtc_ex.c ****   * @brief    RTC Extended HAL module driver
 134:Drivers/STM32F4xx_HAL_Driver/Src/stm32f4xx_hal_rtc_ex.c ****   * @{
 135:Drivers/STM32F4xx_HAL_Driver/Src/stm32f4xx_hal_rtc_ex.c ****   */
 136:Drivers/STM32F4xx_HAL_Driver/Src/stm32f4xx_hal_rtc_ex.c **** 
 137:Drivers/STM32F4xx_HAL_Driver/Src/stm32f4xx_hal_rtc_ex.c **** #ifdef HAL_RTC_MODULE_ENABLED
 138:Drivers/STM32F4xx_HAL_Driver/Src/stm32f4xx_hal_rtc_ex.c **** 
 139:Drivers/STM32F4xx_HAL_Driver/Src/stm32f4xx_hal_rtc_ex.c **** /* Private typedef -----------------------------------------------------------*/
 140:Drivers/STM32F4xx_HAL_Driver/Src/stm32f4xx_hal_rtc_ex.c **** /* Private define ------------------------------------------------------------*/
 141:Drivers/STM32F4xx_HAL_Driver/Src/stm32f4xx_hal_rtc_ex.c **** /* Private macro -------------------------------------------------------------*/
 142:Drivers/STM32F4xx_HAL_Driver/Src/stm32f4xx_hal_rtc_ex.c **** /* Private variables ---------------------------------------------------------*/
 143:Drivers/STM32F4xx_HAL_Driver/Src/stm32f4xx_hal_rtc_ex.c **** /* Private function prototypes -----------------------------------------------*/
 144:Drivers/STM32F4xx_HAL_Driver/Src/stm32f4xx_hal_rtc_ex.c **** /* Exported functions --------------------------------------------------------*/
ARM GAS  C:\Users\TGSPOC~1\AppData\Local\Temp\ccVI6l15.s 			page 4


 145:Drivers/STM32F4xx_HAL_Driver/Src/stm32f4xx_hal_rtc_ex.c **** 
 146:Drivers/STM32F4xx_HAL_Driver/Src/stm32f4xx_hal_rtc_ex.c **** /** @defgroup RTCEx_Exported_Functions RTCEx Exported Functions
 147:Drivers/STM32F4xx_HAL_Driver/Src/stm32f4xx_hal_rtc_ex.c ****   * @{
 148:Drivers/STM32F4xx_HAL_Driver/Src/stm32f4xx_hal_rtc_ex.c ****   */
 149:Drivers/STM32F4xx_HAL_Driver/Src/stm32f4xx_hal_rtc_ex.c **** 
 150:Drivers/STM32F4xx_HAL_Driver/Src/stm32f4xx_hal_rtc_ex.c **** /** @defgroup RTCEx_Exported_Functions_Group1 RTC Timestamp and Tamper functions
 151:Drivers/STM32F4xx_HAL_Driver/Src/stm32f4xx_hal_rtc_ex.c ****   * @brief    RTC Timestamp and Tamper functions
 152:Drivers/STM32F4xx_HAL_Driver/Src/stm32f4xx_hal_rtc_ex.c ****   *
 153:Drivers/STM32F4xx_HAL_Driver/Src/stm32f4xx_hal_rtc_ex.c **** @verbatim
 154:Drivers/STM32F4xx_HAL_Driver/Src/stm32f4xx_hal_rtc_ex.c ****  ===============================================================================
 155:Drivers/STM32F4xx_HAL_Driver/Src/stm32f4xx_hal_rtc_ex.c ****                  ##### RTC Timestamp and Tamper functions #####
 156:Drivers/STM32F4xx_HAL_Driver/Src/stm32f4xx_hal_rtc_ex.c ****  ===============================================================================
 157:Drivers/STM32F4xx_HAL_Driver/Src/stm32f4xx_hal_rtc_ex.c **** 
 158:Drivers/STM32F4xx_HAL_Driver/Src/stm32f4xx_hal_rtc_ex.c ****  [..] This section provides functions allowing to configure Timestamp feature
 159:Drivers/STM32F4xx_HAL_Driver/Src/stm32f4xx_hal_rtc_ex.c **** 
 160:Drivers/STM32F4xx_HAL_Driver/Src/stm32f4xx_hal_rtc_ex.c **** @endverbatim
 161:Drivers/STM32F4xx_HAL_Driver/Src/stm32f4xx_hal_rtc_ex.c ****   * @{
 162:Drivers/STM32F4xx_HAL_Driver/Src/stm32f4xx_hal_rtc_ex.c ****   */
 163:Drivers/STM32F4xx_HAL_Driver/Src/stm32f4xx_hal_rtc_ex.c **** 
 164:Drivers/STM32F4xx_HAL_Driver/Src/stm32f4xx_hal_rtc_ex.c **** /**
 165:Drivers/STM32F4xx_HAL_Driver/Src/stm32f4xx_hal_rtc_ex.c ****   * @brief  Sets Timestamp.
 166:Drivers/STM32F4xx_HAL_Driver/Src/stm32f4xx_hal_rtc_ex.c ****   * @note   This API must be called before enabling the Timestamp feature.
 167:Drivers/STM32F4xx_HAL_Driver/Src/stm32f4xx_hal_rtc_ex.c ****   * @param  hrtc pointer to a RTC_HandleTypeDef structure that contains
 168:Drivers/STM32F4xx_HAL_Driver/Src/stm32f4xx_hal_rtc_ex.c ****   *                the configuration information for RTC.
 169:Drivers/STM32F4xx_HAL_Driver/Src/stm32f4xx_hal_rtc_ex.c ****   * @param  RTC_TimeStampEdge Specifies the pin edge on which the Timestamp is
 170:Drivers/STM32F4xx_HAL_Driver/Src/stm32f4xx_hal_rtc_ex.c ****   *         activated.
 171:Drivers/STM32F4xx_HAL_Driver/Src/stm32f4xx_hal_rtc_ex.c ****   *          This parameter can be one of the following values:
 172:Drivers/STM32F4xx_HAL_Driver/Src/stm32f4xx_hal_rtc_ex.c ****   *             @arg RTC_TIMESTAMPEDGE_RISING: the Timestamp event occurs on
 173:Drivers/STM32F4xx_HAL_Driver/Src/stm32f4xx_hal_rtc_ex.c ****   *                                        the rising edge of the related pin.
 174:Drivers/STM32F4xx_HAL_Driver/Src/stm32f4xx_hal_rtc_ex.c ****   *             @arg RTC_TIMESTAMPEDGE_FALLING: the Timestamp event occurs on
 175:Drivers/STM32F4xx_HAL_Driver/Src/stm32f4xx_hal_rtc_ex.c ****   *                                        the falling edge of the related pin.
 176:Drivers/STM32F4xx_HAL_Driver/Src/stm32f4xx_hal_rtc_ex.c ****   * @param  RTC_TimeStampPin Specifies the RTC Timestamp Pin.
 177:Drivers/STM32F4xx_HAL_Driver/Src/stm32f4xx_hal_rtc_ex.c ****   *          This parameter can be one of the following values:
 178:Drivers/STM32F4xx_HAL_Driver/Src/stm32f4xx_hal_rtc_ex.c ****   *             @arg RTC_TIMESTAMPPIN_DEFAULT: PC13 is selected as RTC Timestamp Pin.
 179:Drivers/STM32F4xx_HAL_Driver/Src/stm32f4xx_hal_rtc_ex.c ****   *             @arg RTC_TIMESTAMPPIN_POS1: PI8 is selected as RTC Timestamp Pin.
 180:Drivers/STM32F4xx_HAL_Driver/Src/stm32f4xx_hal_rtc_ex.c ****   * @note RTC_TIMESTAMPPIN_POS1 corresponds to pin PA0 in the case of
 181:Drivers/STM32F4xx_HAL_Driver/Src/stm32f4xx_hal_rtc_ex.c ****   *       STM32F446xx devices.
 182:Drivers/STM32F4xx_HAL_Driver/Src/stm32f4xx_hal_rtc_ex.c ****   * @note RTC_TIMESTAMPPIN_POS1 is not applicable to the following list of devices:
 183:Drivers/STM32F4xx_HAL_Driver/Src/stm32f4xx_hal_rtc_ex.c ****   *       STM32F412xx, STM32F413xx and STM32F423xx.
 184:Drivers/STM32F4xx_HAL_Driver/Src/stm32f4xx_hal_rtc_ex.c ****   * @retval HAL status
 185:Drivers/STM32F4xx_HAL_Driver/Src/stm32f4xx_hal_rtc_ex.c ****   */
 186:Drivers/STM32F4xx_HAL_Driver/Src/stm32f4xx_hal_rtc_ex.c **** HAL_StatusTypeDef HAL_RTCEx_SetTimeStamp(RTC_HandleTypeDef *hrtc, uint32_t RTC_TimeStampEdge, uint3
 187:Drivers/STM32F4xx_HAL_Driver/Src/stm32f4xx_hal_rtc_ex.c **** {
  29              		.loc 1 187 1
  30              		.cfi_startproc
  31              		@ args = 0, pretend = 0, frame = 24
  32              		@ frame_needed = 1, uses_anonymous_args = 0
  33              		@ link register save eliminated.
  34 0000 80B4     		push	{r7}
  35              	.LCFI0:
  36              		.cfi_def_cfa_offset 4
  37              		.cfi_offset 7, -4
  38 0002 87B0     		sub	sp, sp, #28
  39              	.LCFI1:
  40              		.cfi_def_cfa_offset 32
  41 0004 00AF     		add	r7, sp, #0
  42              	.LCFI2:
ARM GAS  C:\Users\TGSPOC~1\AppData\Local\Temp\ccVI6l15.s 			page 5


  43              		.cfi_def_cfa_register 7
  44 0006 F860     		str	r0, [r7, #12]
  45 0008 B960     		str	r1, [r7, #8]
  46 000a 7A60     		str	r2, [r7, #4]
 188:Drivers/STM32F4xx_HAL_Driver/Src/stm32f4xx_hal_rtc_ex.c ****   uint32_t tmpreg = 0U;
  47              		.loc 1 188 12
  48 000c 0023     		movs	r3, #0
  49 000e 7B61     		str	r3, [r7, #20]
 189:Drivers/STM32F4xx_HAL_Driver/Src/stm32f4xx_hal_rtc_ex.c **** 
 190:Drivers/STM32F4xx_HAL_Driver/Src/stm32f4xx_hal_rtc_ex.c ****   /* Check the parameters */
 191:Drivers/STM32F4xx_HAL_Driver/Src/stm32f4xx_hal_rtc_ex.c ****   assert_param(IS_TIMESTAMP_EDGE(RTC_TimeStampEdge));
 192:Drivers/STM32F4xx_HAL_Driver/Src/stm32f4xx_hal_rtc_ex.c ****   assert_param(IS_RTC_TIMESTAMP_PIN(RTC_TimeStampPin));
 193:Drivers/STM32F4xx_HAL_Driver/Src/stm32f4xx_hal_rtc_ex.c **** 
 194:Drivers/STM32F4xx_HAL_Driver/Src/stm32f4xx_hal_rtc_ex.c ****   /* Process Locked */
 195:Drivers/STM32F4xx_HAL_Driver/Src/stm32f4xx_hal_rtc_ex.c ****   __HAL_LOCK(hrtc);
  50              		.loc 1 195 3
  51 0010 FB68     		ldr	r3, [r7, #12]
  52 0012 1B7F     		ldrb	r3, [r3, #28]	@ zero_extendqisi2
  53 0014 012B     		cmp	r3, #1
  54 0016 01D1     		bne	.L2
  55              		.loc 1 195 3 is_stmt 0 discriminator 1
  56 0018 0223     		movs	r3, #2
  57              		.loc 1 195 3
  58 001a 52E0     		b	.L3
  59              	.L2:
  60              		.loc 1 195 3 discriminator 2
  61 001c FB68     		ldr	r3, [r7, #12]
  62 001e 0122     		movs	r2, #1
  63 0020 1A77     		strb	r2, [r3, #28]
 196:Drivers/STM32F4xx_HAL_Driver/Src/stm32f4xx_hal_rtc_ex.c **** 
 197:Drivers/STM32F4xx_HAL_Driver/Src/stm32f4xx_hal_rtc_ex.c ****   /* Change RTC state to BUSY */
 198:Drivers/STM32F4xx_HAL_Driver/Src/stm32f4xx_hal_rtc_ex.c ****   hrtc->State = HAL_RTC_STATE_BUSY;
  64              		.loc 1 198 15 is_stmt 1
  65 0022 FB68     		ldr	r3, [r7, #12]
  66 0024 0222     		movs	r2, #2
  67 0026 5A77     		strb	r2, [r3, #29]
 199:Drivers/STM32F4xx_HAL_Driver/Src/stm32f4xx_hal_rtc_ex.c **** 
 200:Drivers/STM32F4xx_HAL_Driver/Src/stm32f4xx_hal_rtc_ex.c ****   hrtc->Instance->TAFCR &= (uint32_t)~RTC_TAFCR_TSINSEL;
  68              		.loc 1 200 7
  69 0028 FB68     		ldr	r3, [r7, #12]
  70 002a 1B68     		ldr	r3, [r3]
  71              		.loc 1 200 17
  72 002c 1A6C     		ldr	r2, [r3, #64]
  73              		.loc 1 200 7
  74 002e FB68     		ldr	r3, [r7, #12]
  75 0030 1B68     		ldr	r3, [r3]
  76              		.loc 1 200 25
  77 0032 22F40032 		bic	r2, r2, #131072
  78 0036 1A64     		str	r2, [r3, #64]
 201:Drivers/STM32F4xx_HAL_Driver/Src/stm32f4xx_hal_rtc_ex.c ****   hrtc->Instance->TAFCR |= (uint32_t)(RTC_TimeStampPin);
  79              		.loc 1 201 7
  80 0038 FB68     		ldr	r3, [r7, #12]
  81 003a 1B68     		ldr	r3, [r3]
  82              		.loc 1 201 17
  83 003c 196C     		ldr	r1, [r3, #64]
  84              		.loc 1 201 7
  85 003e FB68     		ldr	r3, [r7, #12]
ARM GAS  C:\Users\TGSPOC~1\AppData\Local\Temp\ccVI6l15.s 			page 6


  86 0040 1B68     		ldr	r3, [r3]
  87              		.loc 1 201 25
  88 0042 7A68     		ldr	r2, [r7, #4]
  89 0044 0A43     		orrs	r2, r2, r1
  90 0046 1A64     		str	r2, [r3, #64]
 202:Drivers/STM32F4xx_HAL_Driver/Src/stm32f4xx_hal_rtc_ex.c **** 
 203:Drivers/STM32F4xx_HAL_Driver/Src/stm32f4xx_hal_rtc_ex.c ****   /* Get the RTC_CR register and clear the bits to be configured */
 204:Drivers/STM32F4xx_HAL_Driver/Src/stm32f4xx_hal_rtc_ex.c ****   tmpreg = (uint32_t)(hrtc->Instance->CR & (uint32_t)~(RTC_CR_TSEDGE | RTC_CR_TSE));
  91              		.loc 1 204 27
  92 0048 FB68     		ldr	r3, [r7, #12]
  93 004a 1B68     		ldr	r3, [r3]
  94              		.loc 1 204 37
  95 004c 9B68     		ldr	r3, [r3, #8]
  96              		.loc 1 204 10
  97 004e 23F40063 		bic	r3, r3, #2048
  98 0052 23F00803 		bic	r3, r3, #8
  99 0056 7B61     		str	r3, [r7, #20]
 205:Drivers/STM32F4xx_HAL_Driver/Src/stm32f4xx_hal_rtc_ex.c **** 
 206:Drivers/STM32F4xx_HAL_Driver/Src/stm32f4xx_hal_rtc_ex.c ****   /* Configure the Timestamp TSEDGE bit */
 207:Drivers/STM32F4xx_HAL_Driver/Src/stm32f4xx_hal_rtc_ex.c ****   tmpreg |= RTC_TimeStampEdge;
 100              		.loc 1 207 10
 101 0058 7A69     		ldr	r2, [r7, #20]
 102 005a BB68     		ldr	r3, [r7, #8]
 103 005c 1343     		orrs	r3, r3, r2
 104 005e 7B61     		str	r3, [r7, #20]
 208:Drivers/STM32F4xx_HAL_Driver/Src/stm32f4xx_hal_rtc_ex.c **** 
 209:Drivers/STM32F4xx_HAL_Driver/Src/stm32f4xx_hal_rtc_ex.c ****   /* Disable the write protection for RTC registers */
 210:Drivers/STM32F4xx_HAL_Driver/Src/stm32f4xx_hal_rtc_ex.c ****   __HAL_RTC_WRITEPROTECTION_DISABLE(hrtc);
 105              		.loc 1 210 3
 106 0060 FB68     		ldr	r3, [r7, #12]
 107 0062 1B68     		ldr	r3, [r3]
 108 0064 CA22     		movs	r2, #202
 109 0066 5A62     		str	r2, [r3, #36]
 110 0068 FB68     		ldr	r3, [r7, #12]
 111 006a 1B68     		ldr	r3, [r3]
 112 006c 5322     		movs	r2, #83
 113 006e 5A62     		str	r2, [r3, #36]
 211:Drivers/STM32F4xx_HAL_Driver/Src/stm32f4xx_hal_rtc_ex.c **** 
 212:Drivers/STM32F4xx_HAL_Driver/Src/stm32f4xx_hal_rtc_ex.c ****   /* Copy the desired configuration into the CR register */
 213:Drivers/STM32F4xx_HAL_Driver/Src/stm32f4xx_hal_rtc_ex.c ****   hrtc->Instance->CR = (uint32_t)tmpreg;
 114              		.loc 1 213 7
 115 0070 FB68     		ldr	r3, [r7, #12]
 116 0072 1B68     		ldr	r3, [r3]
 117              		.loc 1 213 22
 118 0074 7A69     		ldr	r2, [r7, #20]
 119 0076 9A60     		str	r2, [r3, #8]
 214:Drivers/STM32F4xx_HAL_Driver/Src/stm32f4xx_hal_rtc_ex.c **** 
 215:Drivers/STM32F4xx_HAL_Driver/Src/stm32f4xx_hal_rtc_ex.c ****   /* Clear RTC Timestamp flag */
 216:Drivers/STM32F4xx_HAL_Driver/Src/stm32f4xx_hal_rtc_ex.c ****   __HAL_RTC_TIMESTAMP_CLEAR_FLAG(hrtc, RTC_FLAG_TSF);
 120              		.loc 1 216 3
 121 0078 FB68     		ldr	r3, [r7, #12]
 122 007a 1B68     		ldr	r3, [r3]
 123 007c DB68     		ldr	r3, [r3, #12]
 124 007e DAB2     		uxtb	r2, r3
 125 0080 FB68     		ldr	r3, [r7, #12]
 126 0082 1B68     		ldr	r3, [r3]
 127 0084 62F40862 		orn	r2, r2, #2176
ARM GAS  C:\Users\TGSPOC~1\AppData\Local\Temp\ccVI6l15.s 			page 7


 128 0088 DA60     		str	r2, [r3, #12]
 217:Drivers/STM32F4xx_HAL_Driver/Src/stm32f4xx_hal_rtc_ex.c **** 
 218:Drivers/STM32F4xx_HAL_Driver/Src/stm32f4xx_hal_rtc_ex.c ****   /* Clear RTC Timestamp overrun Flag */
 219:Drivers/STM32F4xx_HAL_Driver/Src/stm32f4xx_hal_rtc_ex.c ****   __HAL_RTC_TIMESTAMP_CLEAR_FLAG(hrtc, RTC_FLAG_TSOVF);
 129              		.loc 1 219 3
 130 008a FB68     		ldr	r3, [r7, #12]
 131 008c 1B68     		ldr	r3, [r3]
 132 008e DB68     		ldr	r3, [r3, #12]
 133 0090 DAB2     		uxtb	r2, r3
 134 0092 FB68     		ldr	r3, [r7, #12]
 135 0094 1B68     		ldr	r3, [r3]
 136 0096 62F48452 		orn	r2, r2, #4224
 137 009a DA60     		str	r2, [r3, #12]
 220:Drivers/STM32F4xx_HAL_Driver/Src/stm32f4xx_hal_rtc_ex.c **** 
 221:Drivers/STM32F4xx_HAL_Driver/Src/stm32f4xx_hal_rtc_ex.c ****   /* Enable the Timestamp saving */
 222:Drivers/STM32F4xx_HAL_Driver/Src/stm32f4xx_hal_rtc_ex.c ****   __HAL_RTC_TIMESTAMP_ENABLE(hrtc);
 138              		.loc 1 222 3
 139 009c FB68     		ldr	r3, [r7, #12]
 140 009e 1B68     		ldr	r3, [r3]
 141 00a0 9A68     		ldr	r2, [r3, #8]
 142 00a2 FB68     		ldr	r3, [r7, #12]
 143 00a4 1B68     		ldr	r3, [r3]
 144 00a6 42F40062 		orr	r2, r2, #2048
 145 00aa 9A60     		str	r2, [r3, #8]
 223:Drivers/STM32F4xx_HAL_Driver/Src/stm32f4xx_hal_rtc_ex.c **** 
 224:Drivers/STM32F4xx_HAL_Driver/Src/stm32f4xx_hal_rtc_ex.c ****   /* Enable the write protection for RTC registers */
 225:Drivers/STM32F4xx_HAL_Driver/Src/stm32f4xx_hal_rtc_ex.c ****   __HAL_RTC_WRITEPROTECTION_ENABLE(hrtc);
 146              		.loc 1 225 3
 147 00ac FB68     		ldr	r3, [r7, #12]
 148 00ae 1B68     		ldr	r3, [r3]
 149 00b0 FF22     		movs	r2, #255
 150 00b2 5A62     		str	r2, [r3, #36]
 226:Drivers/STM32F4xx_HAL_Driver/Src/stm32f4xx_hal_rtc_ex.c **** 
 227:Drivers/STM32F4xx_HAL_Driver/Src/stm32f4xx_hal_rtc_ex.c ****   /* Change RTC state back to READY */
 228:Drivers/STM32F4xx_HAL_Driver/Src/stm32f4xx_hal_rtc_ex.c ****   hrtc->State = HAL_RTC_STATE_READY;
 151              		.loc 1 228 15
 152 00b4 FB68     		ldr	r3, [r7, #12]
 153 00b6 0122     		movs	r2, #1
 154 00b8 5A77     		strb	r2, [r3, #29]
 229:Drivers/STM32F4xx_HAL_Driver/Src/stm32f4xx_hal_rtc_ex.c **** 
 230:Drivers/STM32F4xx_HAL_Driver/Src/stm32f4xx_hal_rtc_ex.c ****   /* Process Unlocked */
 231:Drivers/STM32F4xx_HAL_Driver/Src/stm32f4xx_hal_rtc_ex.c ****   __HAL_UNLOCK(hrtc);
 155              		.loc 1 231 3
 156 00ba FB68     		ldr	r3, [r7, #12]
 157 00bc 0022     		movs	r2, #0
 158 00be 1A77     		strb	r2, [r3, #28]
 232:Drivers/STM32F4xx_HAL_Driver/Src/stm32f4xx_hal_rtc_ex.c **** 
 233:Drivers/STM32F4xx_HAL_Driver/Src/stm32f4xx_hal_rtc_ex.c ****   return HAL_OK;
 159              		.loc 1 233 10
 160 00c0 0023     		movs	r3, #0
 161              	.L3:
 234:Drivers/STM32F4xx_HAL_Driver/Src/stm32f4xx_hal_rtc_ex.c **** }
 162              		.loc 1 234 1
 163 00c2 1846     		mov	r0, r3
 164 00c4 1C37     		adds	r7, r7, #28
 165              	.LCFI3:
 166              		.cfi_def_cfa_offset 4
ARM GAS  C:\Users\TGSPOC~1\AppData\Local\Temp\ccVI6l15.s 			page 8


 167 00c6 BD46     		mov	sp, r7
 168              	.LCFI4:
 169              		.cfi_def_cfa_register 13
 170              		@ sp needed
 171 00c8 5DF8047B 		ldr	r7, [sp], #4
 172              	.LCFI5:
 173              		.cfi_restore 7
 174              		.cfi_def_cfa_offset 0
 175 00cc 7047     		bx	lr
 176              		.cfi_endproc
 177              	.LFE134:
 179              		.section	.text.HAL_RTCEx_SetTimeStamp_IT,"ax",%progbits
 180              		.align	1
 181              		.global	HAL_RTCEx_SetTimeStamp_IT
 182              		.syntax unified
 183              		.thumb
 184              		.thumb_func
 186              	HAL_RTCEx_SetTimeStamp_IT:
 187              	.LFB135:
 235:Drivers/STM32F4xx_HAL_Driver/Src/stm32f4xx_hal_rtc_ex.c **** 
 236:Drivers/STM32F4xx_HAL_Driver/Src/stm32f4xx_hal_rtc_ex.c **** /**
 237:Drivers/STM32F4xx_HAL_Driver/Src/stm32f4xx_hal_rtc_ex.c ****   * @brief  Sets Timestamp with Interrupt.
 238:Drivers/STM32F4xx_HAL_Driver/Src/stm32f4xx_hal_rtc_ex.c ****   * @param  hrtc pointer to a RTC_HandleTypeDef structure that contains
 239:Drivers/STM32F4xx_HAL_Driver/Src/stm32f4xx_hal_rtc_ex.c ****   *                the configuration information for RTC.
 240:Drivers/STM32F4xx_HAL_Driver/Src/stm32f4xx_hal_rtc_ex.c ****   * @note   This API must be called before enabling the Timestamp feature.
 241:Drivers/STM32F4xx_HAL_Driver/Src/stm32f4xx_hal_rtc_ex.c ****   * @param  RTC_TimeStampEdge Specifies the pin edge on which the Timestamp is
 242:Drivers/STM32F4xx_HAL_Driver/Src/stm32f4xx_hal_rtc_ex.c ****   *         activated.
 243:Drivers/STM32F4xx_HAL_Driver/Src/stm32f4xx_hal_rtc_ex.c ****   *          This parameter can be one of the following values:
 244:Drivers/STM32F4xx_HAL_Driver/Src/stm32f4xx_hal_rtc_ex.c ****   *             @arg RTC_TIMESTAMPEDGE_RISING: the Timestamp event occurs on
 245:Drivers/STM32F4xx_HAL_Driver/Src/stm32f4xx_hal_rtc_ex.c ****   *                                        the rising edge of the related pin.
 246:Drivers/STM32F4xx_HAL_Driver/Src/stm32f4xx_hal_rtc_ex.c ****   *             @arg RTC_TIMESTAMPEDGE_FALLING: the Timestamp event occurs on
 247:Drivers/STM32F4xx_HAL_Driver/Src/stm32f4xx_hal_rtc_ex.c ****   *                                        the falling edge of the related pin.
 248:Drivers/STM32F4xx_HAL_Driver/Src/stm32f4xx_hal_rtc_ex.c ****   * @param  RTC_TimeStampPin Specifies the RTC Timestamp Pin.
 249:Drivers/STM32F4xx_HAL_Driver/Src/stm32f4xx_hal_rtc_ex.c ****   *          This parameter can be one of the following values:
 250:Drivers/STM32F4xx_HAL_Driver/Src/stm32f4xx_hal_rtc_ex.c ****   *             @arg RTC_TIMESTAMPPIN_DEFAULT: PC13 is selected as RTC Timestamp Pin.
 251:Drivers/STM32F4xx_HAL_Driver/Src/stm32f4xx_hal_rtc_ex.c ****   *             @arg RTC_TIMESTAMPPIN_POS1: PI8 is selected as RTC Timestamp Pin.
 252:Drivers/STM32F4xx_HAL_Driver/Src/stm32f4xx_hal_rtc_ex.c ****   * @note RTC_TIMESTAMPPIN_POS1 corresponds to pin PA0 in the case of
 253:Drivers/STM32F4xx_HAL_Driver/Src/stm32f4xx_hal_rtc_ex.c ****   *       STM32F446xx devices.
 254:Drivers/STM32F4xx_HAL_Driver/Src/stm32f4xx_hal_rtc_ex.c ****   * @note RTC_TIMESTAMPPIN_POS1 is not applicable to the following list of devices:
 255:Drivers/STM32F4xx_HAL_Driver/Src/stm32f4xx_hal_rtc_ex.c ****   *       STM32F412xx, STM32F413xx and STM32F423xx.
 256:Drivers/STM32F4xx_HAL_Driver/Src/stm32f4xx_hal_rtc_ex.c ****   * @retval HAL status
 257:Drivers/STM32F4xx_HAL_Driver/Src/stm32f4xx_hal_rtc_ex.c ****   */
 258:Drivers/STM32F4xx_HAL_Driver/Src/stm32f4xx_hal_rtc_ex.c **** HAL_StatusTypeDef HAL_RTCEx_SetTimeStamp_IT(RTC_HandleTypeDef *hrtc, uint32_t RTC_TimeStampEdge, ui
 259:Drivers/STM32F4xx_HAL_Driver/Src/stm32f4xx_hal_rtc_ex.c **** {
 188              		.loc 1 259 1
 189              		.cfi_startproc
 190              		@ args = 0, pretend = 0, frame = 24
 191              		@ frame_needed = 1, uses_anonymous_args = 0
 192              		@ link register save eliminated.
 193 0000 80B4     		push	{r7}
 194              	.LCFI6:
 195              		.cfi_def_cfa_offset 4
 196              		.cfi_offset 7, -4
 197 0002 87B0     		sub	sp, sp, #28
 198              	.LCFI7:
 199              		.cfi_def_cfa_offset 32
 200 0004 00AF     		add	r7, sp, #0
ARM GAS  C:\Users\TGSPOC~1\AppData\Local\Temp\ccVI6l15.s 			page 9


 201              	.LCFI8:
 202              		.cfi_def_cfa_register 7
 203 0006 F860     		str	r0, [r7, #12]
 204 0008 B960     		str	r1, [r7, #8]
 205 000a 7A60     		str	r2, [r7, #4]
 260:Drivers/STM32F4xx_HAL_Driver/Src/stm32f4xx_hal_rtc_ex.c ****   uint32_t tmpreg = 0U;
 206              		.loc 1 260 12
 207 000c 0023     		movs	r3, #0
 208 000e 7B61     		str	r3, [r7, #20]
 261:Drivers/STM32F4xx_HAL_Driver/Src/stm32f4xx_hal_rtc_ex.c **** 
 262:Drivers/STM32F4xx_HAL_Driver/Src/stm32f4xx_hal_rtc_ex.c ****   /* Check the parameters */
 263:Drivers/STM32F4xx_HAL_Driver/Src/stm32f4xx_hal_rtc_ex.c ****   assert_param(IS_TIMESTAMP_EDGE(RTC_TimeStampEdge));
 264:Drivers/STM32F4xx_HAL_Driver/Src/stm32f4xx_hal_rtc_ex.c ****   assert_param(IS_RTC_TIMESTAMP_PIN(RTC_TimeStampPin));
 265:Drivers/STM32F4xx_HAL_Driver/Src/stm32f4xx_hal_rtc_ex.c **** 
 266:Drivers/STM32F4xx_HAL_Driver/Src/stm32f4xx_hal_rtc_ex.c ****   /* Process Locked */
 267:Drivers/STM32F4xx_HAL_Driver/Src/stm32f4xx_hal_rtc_ex.c ****   __HAL_LOCK(hrtc);
 209              		.loc 1 267 3
 210 0010 FB68     		ldr	r3, [r7, #12]
 211 0012 1B7F     		ldrb	r3, [r3, #28]	@ zero_extendqisi2
 212 0014 012B     		cmp	r3, #1
 213 0016 01D1     		bne	.L5
 214              		.loc 1 267 3 is_stmt 0 discriminator 1
 215 0018 0223     		movs	r3, #2
 216              		.loc 1 267 3
 217 001a 66E0     		b	.L6
 218              	.L5:
 219              		.loc 1 267 3 discriminator 2
 220 001c FB68     		ldr	r3, [r7, #12]
 221 001e 0122     		movs	r2, #1
 222 0020 1A77     		strb	r2, [r3, #28]
 268:Drivers/STM32F4xx_HAL_Driver/Src/stm32f4xx_hal_rtc_ex.c **** 
 269:Drivers/STM32F4xx_HAL_Driver/Src/stm32f4xx_hal_rtc_ex.c ****   /* Change RTC state to BUSY */
 270:Drivers/STM32F4xx_HAL_Driver/Src/stm32f4xx_hal_rtc_ex.c ****   hrtc->State = HAL_RTC_STATE_BUSY;
 223              		.loc 1 270 15 is_stmt 1
 224 0022 FB68     		ldr	r3, [r7, #12]
 225 0024 0222     		movs	r2, #2
 226 0026 5A77     		strb	r2, [r3, #29]
 271:Drivers/STM32F4xx_HAL_Driver/Src/stm32f4xx_hal_rtc_ex.c **** 
 272:Drivers/STM32F4xx_HAL_Driver/Src/stm32f4xx_hal_rtc_ex.c ****   hrtc->Instance->TAFCR &= (uint32_t)~RTC_TAFCR_TSINSEL;
 227              		.loc 1 272 7
 228 0028 FB68     		ldr	r3, [r7, #12]
 229 002a 1B68     		ldr	r3, [r3]
 230              		.loc 1 272 17
 231 002c 1A6C     		ldr	r2, [r3, #64]
 232              		.loc 1 272 7
 233 002e FB68     		ldr	r3, [r7, #12]
 234 0030 1B68     		ldr	r3, [r3]
 235              		.loc 1 272 25
 236 0032 22F40032 		bic	r2, r2, #131072
 237 0036 1A64     		str	r2, [r3, #64]
 273:Drivers/STM32F4xx_HAL_Driver/Src/stm32f4xx_hal_rtc_ex.c ****   hrtc->Instance->TAFCR |= (uint32_t)(RTC_TimeStampPin);
 238              		.loc 1 273 7
 239 0038 FB68     		ldr	r3, [r7, #12]
 240 003a 1B68     		ldr	r3, [r3]
 241              		.loc 1 273 17
 242 003c 196C     		ldr	r1, [r3, #64]
 243              		.loc 1 273 7
ARM GAS  C:\Users\TGSPOC~1\AppData\Local\Temp\ccVI6l15.s 			page 10


 244 003e FB68     		ldr	r3, [r7, #12]
 245 0040 1B68     		ldr	r3, [r3]
 246              		.loc 1 273 25
 247 0042 7A68     		ldr	r2, [r7, #4]
 248 0044 0A43     		orrs	r2, r2, r1
 249 0046 1A64     		str	r2, [r3, #64]
 274:Drivers/STM32F4xx_HAL_Driver/Src/stm32f4xx_hal_rtc_ex.c **** 
 275:Drivers/STM32F4xx_HAL_Driver/Src/stm32f4xx_hal_rtc_ex.c ****   /* Get the RTC_CR register and clear the bits to be configured */
 276:Drivers/STM32F4xx_HAL_Driver/Src/stm32f4xx_hal_rtc_ex.c ****   tmpreg = (uint32_t)(hrtc->Instance->CR & (uint32_t)~(RTC_CR_TSEDGE | RTC_CR_TSE));
 250              		.loc 1 276 27
 251 0048 FB68     		ldr	r3, [r7, #12]
 252 004a 1B68     		ldr	r3, [r3]
 253              		.loc 1 276 37
 254 004c 9B68     		ldr	r3, [r3, #8]
 255              		.loc 1 276 10
 256 004e 23F40063 		bic	r3, r3, #2048
 257 0052 23F00803 		bic	r3, r3, #8
 258 0056 7B61     		str	r3, [r7, #20]
 277:Drivers/STM32F4xx_HAL_Driver/Src/stm32f4xx_hal_rtc_ex.c **** 
 278:Drivers/STM32F4xx_HAL_Driver/Src/stm32f4xx_hal_rtc_ex.c ****   /* Configure the Timestamp TSEDGE bit */
 279:Drivers/STM32F4xx_HAL_Driver/Src/stm32f4xx_hal_rtc_ex.c ****   tmpreg |= RTC_TimeStampEdge;
 259              		.loc 1 279 10
 260 0058 7A69     		ldr	r2, [r7, #20]
 261 005a BB68     		ldr	r3, [r7, #8]
 262 005c 1343     		orrs	r3, r3, r2
 263 005e 7B61     		str	r3, [r7, #20]
 280:Drivers/STM32F4xx_HAL_Driver/Src/stm32f4xx_hal_rtc_ex.c **** 
 281:Drivers/STM32F4xx_HAL_Driver/Src/stm32f4xx_hal_rtc_ex.c ****   /* Disable the write protection for RTC registers */
 282:Drivers/STM32F4xx_HAL_Driver/Src/stm32f4xx_hal_rtc_ex.c ****   __HAL_RTC_WRITEPROTECTION_DISABLE(hrtc);
 264              		.loc 1 282 3
 265 0060 FB68     		ldr	r3, [r7, #12]
 266 0062 1B68     		ldr	r3, [r3]
 267 0064 CA22     		movs	r2, #202
 268 0066 5A62     		str	r2, [r3, #36]
 269 0068 FB68     		ldr	r3, [r7, #12]
 270 006a 1B68     		ldr	r3, [r3]
 271 006c 5322     		movs	r2, #83
 272 006e 5A62     		str	r2, [r3, #36]
 283:Drivers/STM32F4xx_HAL_Driver/Src/stm32f4xx_hal_rtc_ex.c **** 
 284:Drivers/STM32F4xx_HAL_Driver/Src/stm32f4xx_hal_rtc_ex.c ****   /* Copy the desired configuration into the CR register */
 285:Drivers/STM32F4xx_HAL_Driver/Src/stm32f4xx_hal_rtc_ex.c ****   hrtc->Instance->CR = (uint32_t)tmpreg;
 273              		.loc 1 285 7
 274 0070 FB68     		ldr	r3, [r7, #12]
 275 0072 1B68     		ldr	r3, [r3]
 276              		.loc 1 285 22
 277 0074 7A69     		ldr	r2, [r7, #20]
 278 0076 9A60     		str	r2, [r3, #8]
 286:Drivers/STM32F4xx_HAL_Driver/Src/stm32f4xx_hal_rtc_ex.c **** 
 287:Drivers/STM32F4xx_HAL_Driver/Src/stm32f4xx_hal_rtc_ex.c ****   /* Clear RTC Timestamp flag */
 288:Drivers/STM32F4xx_HAL_Driver/Src/stm32f4xx_hal_rtc_ex.c ****   __HAL_RTC_TIMESTAMP_CLEAR_FLAG(hrtc, RTC_FLAG_TSF);
 279              		.loc 1 288 3
 280 0078 FB68     		ldr	r3, [r7, #12]
 281 007a 1B68     		ldr	r3, [r3]
 282 007c DB68     		ldr	r3, [r3, #12]
 283 007e DAB2     		uxtb	r2, r3
 284 0080 FB68     		ldr	r3, [r7, #12]
 285 0082 1B68     		ldr	r3, [r3]
ARM GAS  C:\Users\TGSPOC~1\AppData\Local\Temp\ccVI6l15.s 			page 11


 286 0084 62F40862 		orn	r2, r2, #2176
 287 0088 DA60     		str	r2, [r3, #12]
 289:Drivers/STM32F4xx_HAL_Driver/Src/stm32f4xx_hal_rtc_ex.c **** 
 290:Drivers/STM32F4xx_HAL_Driver/Src/stm32f4xx_hal_rtc_ex.c ****   /* Clear RTC Timestamp overrun Flag */
 291:Drivers/STM32F4xx_HAL_Driver/Src/stm32f4xx_hal_rtc_ex.c ****   __HAL_RTC_TIMESTAMP_CLEAR_FLAG(hrtc, RTC_FLAG_TSOVF);
 288              		.loc 1 291 3
 289 008a FB68     		ldr	r3, [r7, #12]
 290 008c 1B68     		ldr	r3, [r3]
 291 008e DB68     		ldr	r3, [r3, #12]
 292 0090 DAB2     		uxtb	r2, r3
 293 0092 FB68     		ldr	r3, [r7, #12]
 294 0094 1B68     		ldr	r3, [r3]
 295 0096 62F48452 		orn	r2, r2, #4224
 296 009a DA60     		str	r2, [r3, #12]
 292:Drivers/STM32F4xx_HAL_Driver/Src/stm32f4xx_hal_rtc_ex.c **** 
 293:Drivers/STM32F4xx_HAL_Driver/Src/stm32f4xx_hal_rtc_ex.c ****   /* Enable the Timestamp saving */
 294:Drivers/STM32F4xx_HAL_Driver/Src/stm32f4xx_hal_rtc_ex.c ****   __HAL_RTC_TIMESTAMP_ENABLE(hrtc);
 297              		.loc 1 294 3
 298 009c FB68     		ldr	r3, [r7, #12]
 299 009e 1B68     		ldr	r3, [r3]
 300 00a0 9A68     		ldr	r2, [r3, #8]
 301 00a2 FB68     		ldr	r3, [r7, #12]
 302 00a4 1B68     		ldr	r3, [r3]
 303 00a6 42F40062 		orr	r2, r2, #2048
 304 00aa 9A60     		str	r2, [r3, #8]
 295:Drivers/STM32F4xx_HAL_Driver/Src/stm32f4xx_hal_rtc_ex.c **** 
 296:Drivers/STM32F4xx_HAL_Driver/Src/stm32f4xx_hal_rtc_ex.c ****   /* Enable IT Timestamp */
 297:Drivers/STM32F4xx_HAL_Driver/Src/stm32f4xx_hal_rtc_ex.c ****   __HAL_RTC_TIMESTAMP_ENABLE_IT(hrtc, RTC_IT_TS);
 305              		.loc 1 297 3
 306 00ac FB68     		ldr	r3, [r7, #12]
 307 00ae 1B68     		ldr	r3, [r3]
 308 00b0 9A68     		ldr	r2, [r3, #8]
 309 00b2 FB68     		ldr	r3, [r7, #12]
 310 00b4 1B68     		ldr	r3, [r3]
 311 00b6 42F40042 		orr	r2, r2, #32768
 312 00ba 9A60     		str	r2, [r3, #8]
 298:Drivers/STM32F4xx_HAL_Driver/Src/stm32f4xx_hal_rtc_ex.c **** 
 299:Drivers/STM32F4xx_HAL_Driver/Src/stm32f4xx_hal_rtc_ex.c ****   /* Enable the write protection for RTC registers */
 300:Drivers/STM32F4xx_HAL_Driver/Src/stm32f4xx_hal_rtc_ex.c ****   __HAL_RTC_WRITEPROTECTION_ENABLE(hrtc);
 313              		.loc 1 300 3
 314 00bc FB68     		ldr	r3, [r7, #12]
 315 00be 1B68     		ldr	r3, [r3]
 316 00c0 FF22     		movs	r2, #255
 317 00c2 5A62     		str	r2, [r3, #36]
 301:Drivers/STM32F4xx_HAL_Driver/Src/stm32f4xx_hal_rtc_ex.c **** 
 302:Drivers/STM32F4xx_HAL_Driver/Src/stm32f4xx_hal_rtc_ex.c ****   /* RTC Timestamp Interrupt Configuration: EXTI configuration */
 303:Drivers/STM32F4xx_HAL_Driver/Src/stm32f4xx_hal_rtc_ex.c ****   __HAL_RTC_TAMPER_TIMESTAMP_EXTI_ENABLE_IT();
 318              		.loc 1 303 3
 319 00c4 0C4B     		ldr	r3, .L7
 320 00c6 1B68     		ldr	r3, [r3]
 321 00c8 0B4A     		ldr	r2, .L7
 322 00ca 43F40013 		orr	r3, r3, #2097152
 323 00ce 1360     		str	r3, [r2]
 304:Drivers/STM32F4xx_HAL_Driver/Src/stm32f4xx_hal_rtc_ex.c ****   __HAL_RTC_TAMPER_TIMESTAMP_EXTI_ENABLE_RISING_EDGE();
 324              		.loc 1 304 3
 325 00d0 094B     		ldr	r3, .L7
 326 00d2 9B68     		ldr	r3, [r3, #8]
ARM GAS  C:\Users\TGSPOC~1\AppData\Local\Temp\ccVI6l15.s 			page 12


 327 00d4 084A     		ldr	r2, .L7
 328 00d6 43F40013 		orr	r3, r3, #2097152
 329 00da 9360     		str	r3, [r2, #8]
 305:Drivers/STM32F4xx_HAL_Driver/Src/stm32f4xx_hal_rtc_ex.c **** 
 306:Drivers/STM32F4xx_HAL_Driver/Src/stm32f4xx_hal_rtc_ex.c ****   /* Change RTC state back to READY */
 307:Drivers/STM32F4xx_HAL_Driver/Src/stm32f4xx_hal_rtc_ex.c ****   hrtc->State = HAL_RTC_STATE_READY;
 330              		.loc 1 307 15
 331 00dc FB68     		ldr	r3, [r7, #12]
 332 00de 0122     		movs	r2, #1
 333 00e0 5A77     		strb	r2, [r3, #29]
 308:Drivers/STM32F4xx_HAL_Driver/Src/stm32f4xx_hal_rtc_ex.c **** 
 309:Drivers/STM32F4xx_HAL_Driver/Src/stm32f4xx_hal_rtc_ex.c ****   /* Process Unlocked */
 310:Drivers/STM32F4xx_HAL_Driver/Src/stm32f4xx_hal_rtc_ex.c ****   __HAL_UNLOCK(hrtc);
 334              		.loc 1 310 3
 335 00e2 FB68     		ldr	r3, [r7, #12]
 336 00e4 0022     		movs	r2, #0
 337 00e6 1A77     		strb	r2, [r3, #28]
 311:Drivers/STM32F4xx_HAL_Driver/Src/stm32f4xx_hal_rtc_ex.c **** 
 312:Drivers/STM32F4xx_HAL_Driver/Src/stm32f4xx_hal_rtc_ex.c ****   return HAL_OK;
 338              		.loc 1 312 10
 339 00e8 0023     		movs	r3, #0
 340              	.L6:
 313:Drivers/STM32F4xx_HAL_Driver/Src/stm32f4xx_hal_rtc_ex.c **** }
 341              		.loc 1 313 1
 342 00ea 1846     		mov	r0, r3
 343 00ec 1C37     		adds	r7, r7, #28
 344              	.LCFI9:
 345              		.cfi_def_cfa_offset 4
 346 00ee BD46     		mov	sp, r7
 347              	.LCFI10:
 348              		.cfi_def_cfa_register 13
 349              		@ sp needed
 350 00f0 5DF8047B 		ldr	r7, [sp], #4
 351              	.LCFI11:
 352              		.cfi_restore 7
 353              		.cfi_def_cfa_offset 0
 354 00f4 7047     		bx	lr
 355              	.L8:
 356 00f6 00BF     		.align	2
 357              	.L7:
 358 00f8 003C0140 		.word	1073822720
 359              		.cfi_endproc
 360              	.LFE135:
 362              		.section	.text.HAL_RTCEx_DeactivateTimeStamp,"ax",%progbits
 363              		.align	1
 364              		.global	HAL_RTCEx_DeactivateTimeStamp
 365              		.syntax unified
 366              		.thumb
 367              		.thumb_func
 369              	HAL_RTCEx_DeactivateTimeStamp:
 370              	.LFB136:
 314:Drivers/STM32F4xx_HAL_Driver/Src/stm32f4xx_hal_rtc_ex.c **** 
 315:Drivers/STM32F4xx_HAL_Driver/Src/stm32f4xx_hal_rtc_ex.c **** /**
 316:Drivers/STM32F4xx_HAL_Driver/Src/stm32f4xx_hal_rtc_ex.c ****   * @brief  Deactivates Timestamp.
 317:Drivers/STM32F4xx_HAL_Driver/Src/stm32f4xx_hal_rtc_ex.c ****   * @param  hrtc pointer to a RTC_HandleTypeDef structure that contains
 318:Drivers/STM32F4xx_HAL_Driver/Src/stm32f4xx_hal_rtc_ex.c ****   *                the configuration information for RTC.
 319:Drivers/STM32F4xx_HAL_Driver/Src/stm32f4xx_hal_rtc_ex.c ****   * @retval HAL status
ARM GAS  C:\Users\TGSPOC~1\AppData\Local\Temp\ccVI6l15.s 			page 13


 320:Drivers/STM32F4xx_HAL_Driver/Src/stm32f4xx_hal_rtc_ex.c ****   */
 321:Drivers/STM32F4xx_HAL_Driver/Src/stm32f4xx_hal_rtc_ex.c **** HAL_StatusTypeDef HAL_RTCEx_DeactivateTimeStamp(RTC_HandleTypeDef *hrtc)
 322:Drivers/STM32F4xx_HAL_Driver/Src/stm32f4xx_hal_rtc_ex.c **** {
 371              		.loc 1 322 1
 372              		.cfi_startproc
 373              		@ args = 0, pretend = 0, frame = 16
 374              		@ frame_needed = 1, uses_anonymous_args = 0
 375              		@ link register save eliminated.
 376 0000 80B4     		push	{r7}
 377              	.LCFI12:
 378              		.cfi_def_cfa_offset 4
 379              		.cfi_offset 7, -4
 380 0002 85B0     		sub	sp, sp, #20
 381              	.LCFI13:
 382              		.cfi_def_cfa_offset 24
 383 0004 00AF     		add	r7, sp, #0
 384              	.LCFI14:
 385              		.cfi_def_cfa_register 7
 386 0006 7860     		str	r0, [r7, #4]
 323:Drivers/STM32F4xx_HAL_Driver/Src/stm32f4xx_hal_rtc_ex.c ****   uint32_t tmpreg = 0U;
 387              		.loc 1 323 12
 388 0008 0023     		movs	r3, #0
 389 000a FB60     		str	r3, [r7, #12]
 324:Drivers/STM32F4xx_HAL_Driver/Src/stm32f4xx_hal_rtc_ex.c **** 
 325:Drivers/STM32F4xx_HAL_Driver/Src/stm32f4xx_hal_rtc_ex.c ****   /* Process Locked */
 326:Drivers/STM32F4xx_HAL_Driver/Src/stm32f4xx_hal_rtc_ex.c ****   __HAL_LOCK(hrtc);
 390              		.loc 1 326 3
 391 000c 7B68     		ldr	r3, [r7, #4]
 392 000e 1B7F     		ldrb	r3, [r3, #28]	@ zero_extendqisi2
 393 0010 012B     		cmp	r3, #1
 394 0012 01D1     		bne	.L10
 395              		.loc 1 326 3 is_stmt 0 discriminator 1
 396 0014 0223     		movs	r3, #2
 397              		.loc 1 326 3
 398 0016 2CE0     		b	.L11
 399              	.L10:
 400              		.loc 1 326 3 discriminator 2
 401 0018 7B68     		ldr	r3, [r7, #4]
 402 001a 0122     		movs	r2, #1
 403 001c 1A77     		strb	r2, [r3, #28]
 327:Drivers/STM32F4xx_HAL_Driver/Src/stm32f4xx_hal_rtc_ex.c **** 
 328:Drivers/STM32F4xx_HAL_Driver/Src/stm32f4xx_hal_rtc_ex.c ****   hrtc->State = HAL_RTC_STATE_BUSY;
 404              		.loc 1 328 15 is_stmt 1
 405 001e 7B68     		ldr	r3, [r7, #4]
 406 0020 0222     		movs	r2, #2
 407 0022 5A77     		strb	r2, [r3, #29]
 329:Drivers/STM32F4xx_HAL_Driver/Src/stm32f4xx_hal_rtc_ex.c **** 
 330:Drivers/STM32F4xx_HAL_Driver/Src/stm32f4xx_hal_rtc_ex.c ****   /* Disable the write protection for RTC registers */
 331:Drivers/STM32F4xx_HAL_Driver/Src/stm32f4xx_hal_rtc_ex.c ****   __HAL_RTC_WRITEPROTECTION_DISABLE(hrtc);
 408              		.loc 1 331 3
 409 0024 7B68     		ldr	r3, [r7, #4]
 410 0026 1B68     		ldr	r3, [r3]
 411 0028 CA22     		movs	r2, #202
 412 002a 5A62     		str	r2, [r3, #36]
 413 002c 7B68     		ldr	r3, [r7, #4]
 414 002e 1B68     		ldr	r3, [r3]
 415 0030 5322     		movs	r2, #83
ARM GAS  C:\Users\TGSPOC~1\AppData\Local\Temp\ccVI6l15.s 			page 14


 416 0032 5A62     		str	r2, [r3, #36]
 332:Drivers/STM32F4xx_HAL_Driver/Src/stm32f4xx_hal_rtc_ex.c **** 
 333:Drivers/STM32F4xx_HAL_Driver/Src/stm32f4xx_hal_rtc_ex.c ****   /* In case of interrupt mode is used, the interrupt source must disabled */
 334:Drivers/STM32F4xx_HAL_Driver/Src/stm32f4xx_hal_rtc_ex.c ****   __HAL_RTC_TIMESTAMP_DISABLE_IT(hrtc, RTC_IT_TS);
 417              		.loc 1 334 3
 418 0034 7B68     		ldr	r3, [r7, #4]
 419 0036 1B68     		ldr	r3, [r3]
 420 0038 9A68     		ldr	r2, [r3, #8]
 421 003a 7B68     		ldr	r3, [r7, #4]
 422 003c 1B68     		ldr	r3, [r3]
 423 003e 22F40042 		bic	r2, r2, #32768
 424 0042 9A60     		str	r2, [r3, #8]
 335:Drivers/STM32F4xx_HAL_Driver/Src/stm32f4xx_hal_rtc_ex.c **** 
 336:Drivers/STM32F4xx_HAL_Driver/Src/stm32f4xx_hal_rtc_ex.c ****   /* Get the RTC_CR register and clear the bits to be configured */
 337:Drivers/STM32F4xx_HAL_Driver/Src/stm32f4xx_hal_rtc_ex.c ****   tmpreg = (uint32_t)(hrtc->Instance->CR & (uint32_t)~(RTC_CR_TSEDGE | RTC_CR_TSE));
 425              		.loc 1 337 27
 426 0044 7B68     		ldr	r3, [r7, #4]
 427 0046 1B68     		ldr	r3, [r3]
 428              		.loc 1 337 37
 429 0048 9B68     		ldr	r3, [r3, #8]
 430              		.loc 1 337 10
 431 004a 23F40063 		bic	r3, r3, #2048
 432 004e 23F00803 		bic	r3, r3, #8
 433 0052 FB60     		str	r3, [r7, #12]
 338:Drivers/STM32F4xx_HAL_Driver/Src/stm32f4xx_hal_rtc_ex.c **** 
 339:Drivers/STM32F4xx_HAL_Driver/Src/stm32f4xx_hal_rtc_ex.c ****   /* Configure the Timestamp TSEDGE and Enable bits */
 340:Drivers/STM32F4xx_HAL_Driver/Src/stm32f4xx_hal_rtc_ex.c ****   hrtc->Instance->CR = (uint32_t)tmpreg;
 434              		.loc 1 340 7
 435 0054 7B68     		ldr	r3, [r7, #4]
 436 0056 1B68     		ldr	r3, [r3]
 437              		.loc 1 340 22
 438 0058 FA68     		ldr	r2, [r7, #12]
 439 005a 9A60     		str	r2, [r3, #8]
 341:Drivers/STM32F4xx_HAL_Driver/Src/stm32f4xx_hal_rtc_ex.c **** 
 342:Drivers/STM32F4xx_HAL_Driver/Src/stm32f4xx_hal_rtc_ex.c ****   /* Enable the write protection for RTC registers */
 343:Drivers/STM32F4xx_HAL_Driver/Src/stm32f4xx_hal_rtc_ex.c ****   __HAL_RTC_WRITEPROTECTION_ENABLE(hrtc);
 440              		.loc 1 343 3
 441 005c 7B68     		ldr	r3, [r7, #4]
 442 005e 1B68     		ldr	r3, [r3]
 443 0060 FF22     		movs	r2, #255
 444 0062 5A62     		str	r2, [r3, #36]
 344:Drivers/STM32F4xx_HAL_Driver/Src/stm32f4xx_hal_rtc_ex.c **** 
 345:Drivers/STM32F4xx_HAL_Driver/Src/stm32f4xx_hal_rtc_ex.c ****   hrtc->State = HAL_RTC_STATE_READY;
 445              		.loc 1 345 15
 446 0064 7B68     		ldr	r3, [r7, #4]
 447 0066 0122     		movs	r2, #1
 448 0068 5A77     		strb	r2, [r3, #29]
 346:Drivers/STM32F4xx_HAL_Driver/Src/stm32f4xx_hal_rtc_ex.c **** 
 347:Drivers/STM32F4xx_HAL_Driver/Src/stm32f4xx_hal_rtc_ex.c ****   /* Process Unlocked */
 348:Drivers/STM32F4xx_HAL_Driver/Src/stm32f4xx_hal_rtc_ex.c ****   __HAL_UNLOCK(hrtc);
 449              		.loc 1 348 3
 450 006a 7B68     		ldr	r3, [r7, #4]
 451 006c 0022     		movs	r2, #0
 452 006e 1A77     		strb	r2, [r3, #28]
 349:Drivers/STM32F4xx_HAL_Driver/Src/stm32f4xx_hal_rtc_ex.c **** 
 350:Drivers/STM32F4xx_HAL_Driver/Src/stm32f4xx_hal_rtc_ex.c ****   return HAL_OK;
 453              		.loc 1 350 10
ARM GAS  C:\Users\TGSPOC~1\AppData\Local\Temp\ccVI6l15.s 			page 15


 454 0070 0023     		movs	r3, #0
 455              	.L11:
 351:Drivers/STM32F4xx_HAL_Driver/Src/stm32f4xx_hal_rtc_ex.c **** }
 456              		.loc 1 351 1
 457 0072 1846     		mov	r0, r3
 458 0074 1437     		adds	r7, r7, #20
 459              	.LCFI15:
 460              		.cfi_def_cfa_offset 4
 461 0076 BD46     		mov	sp, r7
 462              	.LCFI16:
 463              		.cfi_def_cfa_register 13
 464              		@ sp needed
 465 0078 5DF8047B 		ldr	r7, [sp], #4
 466              	.LCFI17:
 467              		.cfi_restore 7
 468              		.cfi_def_cfa_offset 0
 469 007c 7047     		bx	lr
 470              		.cfi_endproc
 471              	.LFE136:
 473              		.section	.text.HAL_RTCEx_GetTimeStamp,"ax",%progbits
 474              		.align	1
 475              		.global	HAL_RTCEx_GetTimeStamp
 476              		.syntax unified
 477              		.thumb
 478              		.thumb_func
 480              	HAL_RTCEx_GetTimeStamp:
 481              	.LFB137:
 352:Drivers/STM32F4xx_HAL_Driver/Src/stm32f4xx_hal_rtc_ex.c **** 
 353:Drivers/STM32F4xx_HAL_Driver/Src/stm32f4xx_hal_rtc_ex.c **** /**
 354:Drivers/STM32F4xx_HAL_Driver/Src/stm32f4xx_hal_rtc_ex.c ****   * @brief  Gets the RTC Timestamp value.
 355:Drivers/STM32F4xx_HAL_Driver/Src/stm32f4xx_hal_rtc_ex.c ****   * @param  hrtc pointer to a RTC_HandleTypeDef structure that contains
 356:Drivers/STM32F4xx_HAL_Driver/Src/stm32f4xx_hal_rtc_ex.c ****   *                the configuration information for RTC.
 357:Drivers/STM32F4xx_HAL_Driver/Src/stm32f4xx_hal_rtc_ex.c ****   * @param  sTimeStamp Pointer to Time structure
 358:Drivers/STM32F4xx_HAL_Driver/Src/stm32f4xx_hal_rtc_ex.c ****   * @param  sTimeStampDate Pointer to Date structure
 359:Drivers/STM32F4xx_HAL_Driver/Src/stm32f4xx_hal_rtc_ex.c ****   * @param  Format specifies the format of the entered parameters.
 360:Drivers/STM32F4xx_HAL_Driver/Src/stm32f4xx_hal_rtc_ex.c ****   *          This parameter can be one of the following values:
 361:Drivers/STM32F4xx_HAL_Driver/Src/stm32f4xx_hal_rtc_ex.c ****   *             @arg RTC_FORMAT_BIN: Binary data format
 362:Drivers/STM32F4xx_HAL_Driver/Src/stm32f4xx_hal_rtc_ex.c ****   *             @arg RTC_FORMAT_BCD: BCD data format
 363:Drivers/STM32F4xx_HAL_Driver/Src/stm32f4xx_hal_rtc_ex.c ****   * @retval HAL status
 364:Drivers/STM32F4xx_HAL_Driver/Src/stm32f4xx_hal_rtc_ex.c ****   */
 365:Drivers/STM32F4xx_HAL_Driver/Src/stm32f4xx_hal_rtc_ex.c **** HAL_StatusTypeDef HAL_RTCEx_GetTimeStamp(RTC_HandleTypeDef *hrtc, RTC_TimeTypeDef *sTimeStamp, RTC_
 366:Drivers/STM32F4xx_HAL_Driver/Src/stm32f4xx_hal_rtc_ex.c **** {
 482              		.loc 1 366 1
 483              		.cfi_startproc
 484              		@ args = 0, pretend = 0, frame = 24
 485              		@ frame_needed = 1, uses_anonymous_args = 0
 486 0000 80B5     		push	{r7, lr}
 487              	.LCFI18:
 488              		.cfi_def_cfa_offset 8
 489              		.cfi_offset 7, -8
 490              		.cfi_offset 14, -4
 491 0002 86B0     		sub	sp, sp, #24
 492              	.LCFI19:
 493              		.cfi_def_cfa_offset 32
 494 0004 00AF     		add	r7, sp, #0
 495              	.LCFI20:
 496              		.cfi_def_cfa_register 7
ARM GAS  C:\Users\TGSPOC~1\AppData\Local\Temp\ccVI6l15.s 			page 16


 497 0006 F860     		str	r0, [r7, #12]
 498 0008 B960     		str	r1, [r7, #8]
 499 000a 7A60     		str	r2, [r7, #4]
 500 000c 3B60     		str	r3, [r7]
 367:Drivers/STM32F4xx_HAL_Driver/Src/stm32f4xx_hal_rtc_ex.c ****   uint32_t tmptime = 0U;
 501              		.loc 1 367 12
 502 000e 0023     		movs	r3, #0
 503 0010 7B61     		str	r3, [r7, #20]
 368:Drivers/STM32F4xx_HAL_Driver/Src/stm32f4xx_hal_rtc_ex.c ****   uint32_t tmpdate = 0U;
 504              		.loc 1 368 12
 505 0012 0023     		movs	r3, #0
 506 0014 3B61     		str	r3, [r7, #16]
 369:Drivers/STM32F4xx_HAL_Driver/Src/stm32f4xx_hal_rtc_ex.c **** 
 370:Drivers/STM32F4xx_HAL_Driver/Src/stm32f4xx_hal_rtc_ex.c ****   /* Check the parameters */
 371:Drivers/STM32F4xx_HAL_Driver/Src/stm32f4xx_hal_rtc_ex.c ****   assert_param(IS_RTC_FORMAT(Format));
 372:Drivers/STM32F4xx_HAL_Driver/Src/stm32f4xx_hal_rtc_ex.c **** 
 373:Drivers/STM32F4xx_HAL_Driver/Src/stm32f4xx_hal_rtc_ex.c ****   /* Get the Timestamp time and date registers values */
 374:Drivers/STM32F4xx_HAL_Driver/Src/stm32f4xx_hal_rtc_ex.c ****   tmptime = (uint32_t)(hrtc->Instance->TSTR & RTC_TR_RESERVED_MASK);
 507              		.loc 1 374 28
 508 0016 FB68     		ldr	r3, [r7, #12]
 509 0018 1B68     		ldr	r3, [r3]
 510              		.loc 1 374 38
 511 001a 1B6B     		ldr	r3, [r3, #48]
 512              		.loc 1 374 11
 513 001c 03F07F33 		and	r3, r3, #2139062143
 514 0020 23F0FE43 		bic	r3, r3, #2130706432
 515 0024 7B61     		str	r3, [r7, #20]
 375:Drivers/STM32F4xx_HAL_Driver/Src/stm32f4xx_hal_rtc_ex.c ****   tmpdate = (uint32_t)(hrtc->Instance->TSDR & RTC_DR_RESERVED_MASK);
 516              		.loc 1 375 28
 517 0026 FB68     		ldr	r3, [r7, #12]
 518 0028 1B68     		ldr	r3, [r3]
 519              		.loc 1 375 38
 520 002a 5B6B     		ldr	r3, [r3, #52]
 521              		.loc 1 375 11
 522 002c 23F07F43 		bic	r3, r3, #-16777216
 523 0030 23F0C003 		bic	r3, r3, #192
 524 0034 3B61     		str	r3, [r7, #16]
 376:Drivers/STM32F4xx_HAL_Driver/Src/stm32f4xx_hal_rtc_ex.c **** 
 377:Drivers/STM32F4xx_HAL_Driver/Src/stm32f4xx_hal_rtc_ex.c ****   /* Fill the Time structure fields with the read parameters */
 378:Drivers/STM32F4xx_HAL_Driver/Src/stm32f4xx_hal_rtc_ex.c ****   sTimeStamp->Hours      = (uint8_t)((tmptime & (RTC_TSTR_HT  | RTC_TSTR_HU))  >> RTC_TSTR_HU_Pos);
 525              		.loc 1 378 80
 526 0036 7B69     		ldr	r3, [r7, #20]
 527 0038 1B0C     		lsrs	r3, r3, #16
 528              		.loc 1 378 28
 529 003a DBB2     		uxtb	r3, r3
 530 003c 03F03F03 		and	r3, r3, #63
 531 0040 DAB2     		uxtb	r2, r3
 532              		.loc 1 378 26
 533 0042 BB68     		ldr	r3, [r7, #8]
 534 0044 1A70     		strb	r2, [r3]
 379:Drivers/STM32F4xx_HAL_Driver/Src/stm32f4xx_hal_rtc_ex.c ****   sTimeStamp->Minutes    = (uint8_t)((tmptime & (RTC_TSTR_MNT | RTC_TSTR_MNU)) >> RTC_TSTR_MNU_Pos)
 535              		.loc 1 379 80
 536 0046 7B69     		ldr	r3, [r7, #20]
 537 0048 1B0A     		lsrs	r3, r3, #8
 538              		.loc 1 379 28
 539 004a DBB2     		uxtb	r3, r3
 540 004c 03F07F03 		and	r3, r3, #127
ARM GAS  C:\Users\TGSPOC~1\AppData\Local\Temp\ccVI6l15.s 			page 17


 541 0050 DAB2     		uxtb	r2, r3
 542              		.loc 1 379 26
 543 0052 BB68     		ldr	r3, [r7, #8]
 544 0054 5A70     		strb	r2, [r3, #1]
 380:Drivers/STM32F4xx_HAL_Driver/Src/stm32f4xx_hal_rtc_ex.c ****   sTimeStamp->Seconds    = (uint8_t)((tmptime & (RTC_TSTR_ST  | RTC_TSTR_SU))  >> RTC_TSTR_SU_Pos);
 545              		.loc 1 380 28
 546 0056 7B69     		ldr	r3, [r7, #20]
 547 0058 DBB2     		uxtb	r3, r3
 548 005a 03F07F03 		and	r3, r3, #127
 549 005e DAB2     		uxtb	r2, r3
 550              		.loc 1 380 26
 551 0060 BB68     		ldr	r3, [r7, #8]
 552 0062 9A70     		strb	r2, [r3, #2]
 381:Drivers/STM32F4xx_HAL_Driver/Src/stm32f4xx_hal_rtc_ex.c ****   sTimeStamp->TimeFormat = (uint8_t)((tmptime & (RTC_TSTR_PM))                 >> RTC_TSTR_PM_Pos);
 553              		.loc 1 381 80
 554 0064 7B69     		ldr	r3, [r7, #20]
 555 0066 9B0D     		lsrs	r3, r3, #22
 556              		.loc 1 381 28
 557 0068 DBB2     		uxtb	r3, r3
 558 006a 03F00103 		and	r3, r3, #1
 559 006e DAB2     		uxtb	r2, r3
 560              		.loc 1 381 26
 561 0070 BB68     		ldr	r3, [r7, #8]
 562 0072 DA70     		strb	r2, [r3, #3]
 382:Drivers/STM32F4xx_HAL_Driver/Src/stm32f4xx_hal_rtc_ex.c ****   sTimeStamp->SubSeconds = (uint32_t) hrtc->Instance->TSSSR;
 563              		.loc 1 382 43
 564 0074 FB68     		ldr	r3, [r7, #12]
 565 0076 1B68     		ldr	r3, [r3]
 566              		.loc 1 382 53
 567 0078 9A6B     		ldr	r2, [r3, #56]
 568              		.loc 1 382 26
 569 007a BB68     		ldr	r3, [r7, #8]
 570 007c 5A60     		str	r2, [r3, #4]
 383:Drivers/STM32F4xx_HAL_Driver/Src/stm32f4xx_hal_rtc_ex.c **** 
 384:Drivers/STM32F4xx_HAL_Driver/Src/stm32f4xx_hal_rtc_ex.c ****   /* Fill the Date structure fields with the read parameters */
 385:Drivers/STM32F4xx_HAL_Driver/Src/stm32f4xx_hal_rtc_ex.c ****   sTimeStampDate->Year    = 0U;
 571              		.loc 1 385 27
 572 007e 7B68     		ldr	r3, [r7, #4]
 573 0080 0022     		movs	r2, #0
 574 0082 DA70     		strb	r2, [r3, #3]
 386:Drivers/STM32F4xx_HAL_Driver/Src/stm32f4xx_hal_rtc_ex.c ****   sTimeStampDate->Month   = (uint8_t)((tmpdate & (RTC_TSDR_MT | RTC_TSDR_MU)) >> RTC_TSDR_MU_Pos);
 575              		.loc 1 386 79
 576 0084 3B69     		ldr	r3, [r7, #16]
 577 0086 1B0A     		lsrs	r3, r3, #8
 578              		.loc 1 386 29
 579 0088 DBB2     		uxtb	r3, r3
 580 008a 03F01F03 		and	r3, r3, #31
 581 008e DAB2     		uxtb	r2, r3
 582              		.loc 1 386 27
 583 0090 7B68     		ldr	r3, [r7, #4]
 584 0092 5A70     		strb	r2, [r3, #1]
 387:Drivers/STM32F4xx_HAL_Driver/Src/stm32f4xx_hal_rtc_ex.c ****   sTimeStampDate->Date    = (uint8_t)((tmpdate & (RTC_TSDR_DT | RTC_TSDR_DU)) >> RTC_TSDR_DU_Pos);
 585              		.loc 1 387 29
 586 0094 3B69     		ldr	r3, [r7, #16]
 587 0096 DBB2     		uxtb	r3, r3
 588 0098 03F03F03 		and	r3, r3, #63
 589 009c DAB2     		uxtb	r2, r3
ARM GAS  C:\Users\TGSPOC~1\AppData\Local\Temp\ccVI6l15.s 			page 18


 590              		.loc 1 387 27
 591 009e 7B68     		ldr	r3, [r7, #4]
 592 00a0 9A70     		strb	r2, [r3, #2]
 388:Drivers/STM32F4xx_HAL_Driver/Src/stm32f4xx_hal_rtc_ex.c ****   sTimeStampDate->WeekDay = (uint8_t)((tmpdate & (RTC_TSDR_WDU))              >> RTC_TSDR_WDU_Pos);
 593              		.loc 1 388 79
 594 00a2 3B69     		ldr	r3, [r7, #16]
 595 00a4 5B0B     		lsrs	r3, r3, #13
 596              		.loc 1 388 29
 597 00a6 DBB2     		uxtb	r3, r3
 598 00a8 03F00703 		and	r3, r3, #7
 599 00ac DAB2     		uxtb	r2, r3
 600              		.loc 1 388 27
 601 00ae 7B68     		ldr	r3, [r7, #4]
 602 00b0 1A70     		strb	r2, [r3]
 389:Drivers/STM32F4xx_HAL_Driver/Src/stm32f4xx_hal_rtc_ex.c **** 
 390:Drivers/STM32F4xx_HAL_Driver/Src/stm32f4xx_hal_rtc_ex.c ****   /* Check the input parameters format */
 391:Drivers/STM32F4xx_HAL_Driver/Src/stm32f4xx_hal_rtc_ex.c ****   if (Format == RTC_FORMAT_BIN)
 603              		.loc 1 391 6
 604 00b2 3B68     		ldr	r3, [r7]
 605 00b4 002B     		cmp	r3, #0
 606 00b6 35D1     		bne	.L13
 392:Drivers/STM32F4xx_HAL_Driver/Src/stm32f4xx_hal_rtc_ex.c ****   {
 393:Drivers/STM32F4xx_HAL_Driver/Src/stm32f4xx_hal_rtc_ex.c ****     /* Convert the Timestamp structure parameters to Binary format */
 394:Drivers/STM32F4xx_HAL_Driver/Src/stm32f4xx_hal_rtc_ex.c ****     sTimeStamp->Hours   = (uint8_t)RTC_Bcd2ToByte(sTimeStamp->Hours);
 607              		.loc 1 394 36
 608 00b8 BB68     		ldr	r3, [r7, #8]
 609 00ba 1B78     		ldrb	r3, [r3]	@ zero_extendqisi2
 610 00bc 1846     		mov	r0, r3
 611 00be FFF7FEFF 		bl	RTC_Bcd2ToByte
 612 00c2 0346     		mov	r3, r0
 613 00c4 1A46     		mov	r2, r3
 614              		.loc 1 394 25 discriminator 1
 615 00c6 BB68     		ldr	r3, [r7, #8]
 616 00c8 1A70     		strb	r2, [r3]
 395:Drivers/STM32F4xx_HAL_Driver/Src/stm32f4xx_hal_rtc_ex.c ****     sTimeStamp->Minutes = (uint8_t)RTC_Bcd2ToByte(sTimeStamp->Minutes);
 617              		.loc 1 395 36
 618 00ca BB68     		ldr	r3, [r7, #8]
 619 00cc 5B78     		ldrb	r3, [r3, #1]	@ zero_extendqisi2
 620 00ce 1846     		mov	r0, r3
 621 00d0 FFF7FEFF 		bl	RTC_Bcd2ToByte
 622 00d4 0346     		mov	r3, r0
 623 00d6 1A46     		mov	r2, r3
 624              		.loc 1 395 25 discriminator 1
 625 00d8 BB68     		ldr	r3, [r7, #8]
 626 00da 5A70     		strb	r2, [r3, #1]
 396:Drivers/STM32F4xx_HAL_Driver/Src/stm32f4xx_hal_rtc_ex.c ****     sTimeStamp->Seconds = (uint8_t)RTC_Bcd2ToByte(sTimeStamp->Seconds);
 627              		.loc 1 396 36
 628 00dc BB68     		ldr	r3, [r7, #8]
 629 00de 9B78     		ldrb	r3, [r3, #2]	@ zero_extendqisi2
 630 00e0 1846     		mov	r0, r3
 631 00e2 FFF7FEFF 		bl	RTC_Bcd2ToByte
 632 00e6 0346     		mov	r3, r0
 633 00e8 1A46     		mov	r2, r3
 634              		.loc 1 396 25 discriminator 1
 635 00ea BB68     		ldr	r3, [r7, #8]
 636 00ec 9A70     		strb	r2, [r3, #2]
 397:Drivers/STM32F4xx_HAL_Driver/Src/stm32f4xx_hal_rtc_ex.c **** 
ARM GAS  C:\Users\TGSPOC~1\AppData\Local\Temp\ccVI6l15.s 			page 19


 398:Drivers/STM32F4xx_HAL_Driver/Src/stm32f4xx_hal_rtc_ex.c ****     /* Convert the DateTimeStamp structure parameters to Binary format */
 399:Drivers/STM32F4xx_HAL_Driver/Src/stm32f4xx_hal_rtc_ex.c ****     sTimeStampDate->Month   = (uint8_t)RTC_Bcd2ToByte(sTimeStampDate->Month);
 637              		.loc 1 399 40
 638 00ee 7B68     		ldr	r3, [r7, #4]
 639 00f0 5B78     		ldrb	r3, [r3, #1]	@ zero_extendqisi2
 640 00f2 1846     		mov	r0, r3
 641 00f4 FFF7FEFF 		bl	RTC_Bcd2ToByte
 642 00f8 0346     		mov	r3, r0
 643 00fa 1A46     		mov	r2, r3
 644              		.loc 1 399 29 discriminator 1
 645 00fc 7B68     		ldr	r3, [r7, #4]
 646 00fe 5A70     		strb	r2, [r3, #1]
 400:Drivers/STM32F4xx_HAL_Driver/Src/stm32f4xx_hal_rtc_ex.c ****     sTimeStampDate->Date    = (uint8_t)RTC_Bcd2ToByte(sTimeStampDate->Date);
 647              		.loc 1 400 40
 648 0100 7B68     		ldr	r3, [r7, #4]
 649 0102 9B78     		ldrb	r3, [r3, #2]	@ zero_extendqisi2
 650 0104 1846     		mov	r0, r3
 651 0106 FFF7FEFF 		bl	RTC_Bcd2ToByte
 652 010a 0346     		mov	r3, r0
 653 010c 1A46     		mov	r2, r3
 654              		.loc 1 400 29 discriminator 1
 655 010e 7B68     		ldr	r3, [r7, #4]
 656 0110 9A70     		strb	r2, [r3, #2]
 401:Drivers/STM32F4xx_HAL_Driver/Src/stm32f4xx_hal_rtc_ex.c ****     sTimeStampDate->WeekDay = (uint8_t)RTC_Bcd2ToByte(sTimeStampDate->WeekDay);
 657              		.loc 1 401 40
 658 0112 7B68     		ldr	r3, [r7, #4]
 659 0114 1B78     		ldrb	r3, [r3]	@ zero_extendqisi2
 660 0116 1846     		mov	r0, r3
 661 0118 FFF7FEFF 		bl	RTC_Bcd2ToByte
 662 011c 0346     		mov	r3, r0
 663 011e 1A46     		mov	r2, r3
 664              		.loc 1 401 29 discriminator 1
 665 0120 7B68     		ldr	r3, [r7, #4]
 666 0122 1A70     		strb	r2, [r3]
 667              	.L13:
 402:Drivers/STM32F4xx_HAL_Driver/Src/stm32f4xx_hal_rtc_ex.c ****   }
 403:Drivers/STM32F4xx_HAL_Driver/Src/stm32f4xx_hal_rtc_ex.c **** 
 404:Drivers/STM32F4xx_HAL_Driver/Src/stm32f4xx_hal_rtc_ex.c ****   /* Clear the Timestamp Flag */
 405:Drivers/STM32F4xx_HAL_Driver/Src/stm32f4xx_hal_rtc_ex.c ****   __HAL_RTC_TIMESTAMP_CLEAR_FLAG(hrtc, RTC_FLAG_TSF);
 668              		.loc 1 405 3
 669 0124 FB68     		ldr	r3, [r7, #12]
 670 0126 1B68     		ldr	r3, [r3]
 671 0128 DB68     		ldr	r3, [r3, #12]
 672 012a DAB2     		uxtb	r2, r3
 673 012c FB68     		ldr	r3, [r7, #12]
 674 012e 1B68     		ldr	r3, [r3]
 675 0130 62F40862 		orn	r2, r2, #2176
 676 0134 DA60     		str	r2, [r3, #12]
 406:Drivers/STM32F4xx_HAL_Driver/Src/stm32f4xx_hal_rtc_ex.c **** 
 407:Drivers/STM32F4xx_HAL_Driver/Src/stm32f4xx_hal_rtc_ex.c ****   return HAL_OK;
 677              		.loc 1 407 10
 678 0136 0023     		movs	r3, #0
 408:Drivers/STM32F4xx_HAL_Driver/Src/stm32f4xx_hal_rtc_ex.c **** }
 679              		.loc 1 408 1
 680 0138 1846     		mov	r0, r3
 681 013a 1837     		adds	r7, r7, #24
 682              	.LCFI21:
ARM GAS  C:\Users\TGSPOC~1\AppData\Local\Temp\ccVI6l15.s 			page 20


 683              		.cfi_def_cfa_offset 8
 684 013c BD46     		mov	sp, r7
 685              	.LCFI22:
 686              		.cfi_def_cfa_register 13
 687              		@ sp needed
 688 013e 80BD     		pop	{r7, pc}
 689              		.cfi_endproc
 690              	.LFE137:
 692              		.section	.text.HAL_RTCEx_SetTamper,"ax",%progbits
 693              		.align	1
 694              		.global	HAL_RTCEx_SetTamper
 695              		.syntax unified
 696              		.thumb
 697              		.thumb_func
 699              	HAL_RTCEx_SetTamper:
 700              	.LFB138:
 409:Drivers/STM32F4xx_HAL_Driver/Src/stm32f4xx_hal_rtc_ex.c **** 
 410:Drivers/STM32F4xx_HAL_Driver/Src/stm32f4xx_hal_rtc_ex.c **** /**
 411:Drivers/STM32F4xx_HAL_Driver/Src/stm32f4xx_hal_rtc_ex.c ****   * @brief  Sets Tamper.
 412:Drivers/STM32F4xx_HAL_Driver/Src/stm32f4xx_hal_rtc_ex.c ****   * @note   By calling this API the tamper global interrupt will be disabled.
 413:Drivers/STM32F4xx_HAL_Driver/Src/stm32f4xx_hal_rtc_ex.c ****   * @param  hrtc pointer to a RTC_HandleTypeDef structure that contains
 414:Drivers/STM32F4xx_HAL_Driver/Src/stm32f4xx_hal_rtc_ex.c ****   *                the configuration information for RTC.
 415:Drivers/STM32F4xx_HAL_Driver/Src/stm32f4xx_hal_rtc_ex.c ****   * @param  sTamper Pointer to Tamper Structure.
 416:Drivers/STM32F4xx_HAL_Driver/Src/stm32f4xx_hal_rtc_ex.c ****   * @retval HAL status
 417:Drivers/STM32F4xx_HAL_Driver/Src/stm32f4xx_hal_rtc_ex.c ****   */
 418:Drivers/STM32F4xx_HAL_Driver/Src/stm32f4xx_hal_rtc_ex.c **** HAL_StatusTypeDef HAL_RTCEx_SetTamper(RTC_HandleTypeDef *hrtc, RTC_TamperTypeDef *sTamper)
 419:Drivers/STM32F4xx_HAL_Driver/Src/stm32f4xx_hal_rtc_ex.c **** {
 701              		.loc 1 419 1
 702              		.cfi_startproc
 703              		@ args = 0, pretend = 0, frame = 16
 704              		@ frame_needed = 1, uses_anonymous_args = 0
 705              		@ link register save eliminated.
 706 0000 80B4     		push	{r7}
 707              	.LCFI23:
 708              		.cfi_def_cfa_offset 4
 709              		.cfi_offset 7, -4
 710 0002 85B0     		sub	sp, sp, #20
 711              	.LCFI24:
 712              		.cfi_def_cfa_offset 24
 713 0004 00AF     		add	r7, sp, #0
 714              	.LCFI25:
 715              		.cfi_def_cfa_register 7
 716 0006 7860     		str	r0, [r7, #4]
 717 0008 3960     		str	r1, [r7]
 420:Drivers/STM32F4xx_HAL_Driver/Src/stm32f4xx_hal_rtc_ex.c ****   uint32_t tmpreg = 0U;
 718              		.loc 1 420 12
 719 000a 0023     		movs	r3, #0
 720 000c FB60     		str	r3, [r7, #12]
 421:Drivers/STM32F4xx_HAL_Driver/Src/stm32f4xx_hal_rtc_ex.c **** 
 422:Drivers/STM32F4xx_HAL_Driver/Src/stm32f4xx_hal_rtc_ex.c ****   /* Check the parameters */
 423:Drivers/STM32F4xx_HAL_Driver/Src/stm32f4xx_hal_rtc_ex.c ****   assert_param(IS_RTC_TAMPER(sTamper->Tamper));
 424:Drivers/STM32F4xx_HAL_Driver/Src/stm32f4xx_hal_rtc_ex.c ****   assert_param(IS_RTC_TAMPER_PIN(sTamper->PinSelection));
 425:Drivers/STM32F4xx_HAL_Driver/Src/stm32f4xx_hal_rtc_ex.c ****   assert_param(IS_RTC_TAMPER_TRIGGER(sTamper->Trigger));
 426:Drivers/STM32F4xx_HAL_Driver/Src/stm32f4xx_hal_rtc_ex.c ****   assert_param(IS_RTC_TAMPER_FILTER(sTamper->Filter));
 427:Drivers/STM32F4xx_HAL_Driver/Src/stm32f4xx_hal_rtc_ex.c ****   assert_param(IS_RTC_TAMPER_FILTER_CONFIG_CORRECT(sTamper->Filter, sTamper->Trigger));
 428:Drivers/STM32F4xx_HAL_Driver/Src/stm32f4xx_hal_rtc_ex.c ****   assert_param(IS_RTC_TAMPER_SAMPLING_FREQ(sTamper->SamplingFrequency));
 429:Drivers/STM32F4xx_HAL_Driver/Src/stm32f4xx_hal_rtc_ex.c ****   assert_param(IS_RTC_TAMPER_PRECHARGE_DURATION(sTamper->PrechargeDuration));
ARM GAS  C:\Users\TGSPOC~1\AppData\Local\Temp\ccVI6l15.s 			page 21


 430:Drivers/STM32F4xx_HAL_Driver/Src/stm32f4xx_hal_rtc_ex.c ****   assert_param(IS_RTC_TAMPER_PULLUP_STATE(sTamper->TamperPullUp));
 431:Drivers/STM32F4xx_HAL_Driver/Src/stm32f4xx_hal_rtc_ex.c ****   assert_param(IS_RTC_TAMPER_TIMESTAMPONTAMPER_DETECTION(sTamper->TimeStampOnTamperDetection));
 432:Drivers/STM32F4xx_HAL_Driver/Src/stm32f4xx_hal_rtc_ex.c **** 
 433:Drivers/STM32F4xx_HAL_Driver/Src/stm32f4xx_hal_rtc_ex.c ****   /* Process Locked */
 434:Drivers/STM32F4xx_HAL_Driver/Src/stm32f4xx_hal_rtc_ex.c ****   __HAL_LOCK(hrtc);
 721              		.loc 1 434 3
 722 000e 7B68     		ldr	r3, [r7, #4]
 723 0010 1B7F     		ldrb	r3, [r3, #28]	@ zero_extendqisi2
 724 0012 012B     		cmp	r3, #1
 725 0014 01D1     		bne	.L16
 726              		.loc 1 434 3 is_stmt 0 discriminator 1
 727 0016 0223     		movs	r3, #2
 728              		.loc 1 434 3
 729 0018 49E0     		b	.L17
 730              	.L16:
 731              		.loc 1 434 3 discriminator 2
 732 001a 7B68     		ldr	r3, [r7, #4]
 733 001c 0122     		movs	r2, #1
 734 001e 1A77     		strb	r2, [r3, #28]
 435:Drivers/STM32F4xx_HAL_Driver/Src/stm32f4xx_hal_rtc_ex.c **** 
 436:Drivers/STM32F4xx_HAL_Driver/Src/stm32f4xx_hal_rtc_ex.c ****   hrtc->State = HAL_RTC_STATE_BUSY;
 735              		.loc 1 436 15 is_stmt 1
 736 0020 7B68     		ldr	r3, [r7, #4]
 737 0022 0222     		movs	r2, #2
 738 0024 5A77     		strb	r2, [r3, #29]
 437:Drivers/STM32F4xx_HAL_Driver/Src/stm32f4xx_hal_rtc_ex.c **** 
 438:Drivers/STM32F4xx_HAL_Driver/Src/stm32f4xx_hal_rtc_ex.c ****   /* Copy control register into temporary variable */
 439:Drivers/STM32F4xx_HAL_Driver/Src/stm32f4xx_hal_rtc_ex.c ****   tmpreg = hrtc->Instance->TAFCR;
 739              		.loc 1 439 16
 740 0026 7B68     		ldr	r3, [r7, #4]
 741 0028 1B68     		ldr	r3, [r3]
 742              		.loc 1 439 10
 743 002a 1B6C     		ldr	r3, [r3, #64]
 744 002c FB60     		str	r3, [r7, #12]
 440:Drivers/STM32F4xx_HAL_Driver/Src/stm32f4xx_hal_rtc_ex.c **** 
 441:Drivers/STM32F4xx_HAL_Driver/Src/stm32f4xx_hal_rtc_ex.c ****   /* Enable selected tamper */
 442:Drivers/STM32F4xx_HAL_Driver/Src/stm32f4xx_hal_rtc_ex.c ****   tmpreg |= (sTamper->Tamper);
 745              		.loc 1 442 21
 746 002e 3B68     		ldr	r3, [r7]
 747 0030 1B68     		ldr	r3, [r3]
 748              		.loc 1 442 10
 749 0032 FA68     		ldr	r2, [r7, #12]
 750 0034 1343     		orrs	r3, r3, r2
 751 0036 FB60     		str	r3, [r7, #12]
 443:Drivers/STM32F4xx_HAL_Driver/Src/stm32f4xx_hal_rtc_ex.c **** 
 444:Drivers/STM32F4xx_HAL_Driver/Src/stm32f4xx_hal_rtc_ex.c ****   /* Configure the tamper trigger bit (this bit is just on the right of the
 445:Drivers/STM32F4xx_HAL_Driver/Src/stm32f4xx_hal_rtc_ex.c ****        tamper enable bit, hence the one-time right shift before updating it) */
 446:Drivers/STM32F4xx_HAL_Driver/Src/stm32f4xx_hal_rtc_ex.c ****   if (sTamper->Trigger == RTC_TAMPERTRIGGER_FALLINGEDGE)
 752              		.loc 1 446 14
 753 0038 3B68     		ldr	r3, [r7]
 754 003a 9B68     		ldr	r3, [r3, #8]
 755              		.loc 1 446 6
 756 003c 022B     		cmp	r3, #2
 757 003e 06D1     		bne	.L18
 447:Drivers/STM32F4xx_HAL_Driver/Src/stm32f4xx_hal_rtc_ex.c ****   {
 448:Drivers/STM32F4xx_HAL_Driver/Src/stm32f4xx_hal_rtc_ex.c ****     /* Set the tamper trigger bit (case of falling edge or high level) */
 449:Drivers/STM32F4xx_HAL_Driver/Src/stm32f4xx_hal_rtc_ex.c ****     tmpreg |= (uint32_t)(sTamper->Tamper << 1U);
ARM GAS  C:\Users\TGSPOC~1\AppData\Local\Temp\ccVI6l15.s 			page 22


 758              		.loc 1 449 33
 759 0040 3B68     		ldr	r3, [r7]
 760 0042 1B68     		ldr	r3, [r3]
 761              		.loc 1 449 15
 762 0044 5B00     		lsls	r3, r3, #1
 763              		.loc 1 449 12
 764 0046 FA68     		ldr	r2, [r7, #12]
 765 0048 1343     		orrs	r3, r3, r2
 766 004a FB60     		str	r3, [r7, #12]
 767 004c 06E0     		b	.L19
 768              	.L18:
 450:Drivers/STM32F4xx_HAL_Driver/Src/stm32f4xx_hal_rtc_ex.c ****   }
 451:Drivers/STM32F4xx_HAL_Driver/Src/stm32f4xx_hal_rtc_ex.c ****   else
 452:Drivers/STM32F4xx_HAL_Driver/Src/stm32f4xx_hal_rtc_ex.c ****   {
 453:Drivers/STM32F4xx_HAL_Driver/Src/stm32f4xx_hal_rtc_ex.c ****     /* Clear the tamper trigger bit (case of rising edge or low level) */
 454:Drivers/STM32F4xx_HAL_Driver/Src/stm32f4xx_hal_rtc_ex.c ****     tmpreg &= (uint32_t)~(sTamper->Tamper << 1U);
 769              		.loc 1 454 34
 770 004e 3B68     		ldr	r3, [r7]
 771 0050 1B68     		ldr	r3, [r3]
 772              		.loc 1 454 43
 773 0052 5B00     		lsls	r3, r3, #1
 774              		.loc 1 454 25
 775 0054 DB43     		mvns	r3, r3
 776              		.loc 1 454 12
 777 0056 FA68     		ldr	r2, [r7, #12]
 778 0058 1340     		ands	r3, r3, r2
 779 005a FB60     		str	r3, [r7, #12]
 780              	.L19:
 455:Drivers/STM32F4xx_HAL_Driver/Src/stm32f4xx_hal_rtc_ex.c ****   }
 456:Drivers/STM32F4xx_HAL_Driver/Src/stm32f4xx_hal_rtc_ex.c **** 
 457:Drivers/STM32F4xx_HAL_Driver/Src/stm32f4xx_hal_rtc_ex.c ****   /* Clear remaining fields before setting them */
 458:Drivers/STM32F4xx_HAL_Driver/Src/stm32f4xx_hal_rtc_ex.c ****   tmpreg &= ~(RTC_TAMPERFILTER_MASK              | \
 781              		.loc 1 458 10
 782 005c FB68     		ldr	r3, [r7, #12]
 783 005e 23F4FF33 		bic	r3, r3, #130560
 784 0062 23F4C073 		bic	r3, r3, #384
 785 0066 FB60     		str	r3, [r7, #12]
 459:Drivers/STM32F4xx_HAL_Driver/Src/stm32f4xx_hal_rtc_ex.c ****               RTC_TAMPERSAMPLINGFREQ_RTCCLK_MASK | \
 460:Drivers/STM32F4xx_HAL_Driver/Src/stm32f4xx_hal_rtc_ex.c ****               RTC_TAMPERPRECHARGEDURATION_MASK   | \
 461:Drivers/STM32F4xx_HAL_Driver/Src/stm32f4xx_hal_rtc_ex.c ****               RTC_TAMPER_PULLUP_MASK             | \
 462:Drivers/STM32F4xx_HAL_Driver/Src/stm32f4xx_hal_rtc_ex.c ****               RTC_TAFCR_TAMP1INSEL               | \
 463:Drivers/STM32F4xx_HAL_Driver/Src/stm32f4xx_hal_rtc_ex.c ****               RTC_TIMESTAMPONTAMPERDETECTION_MASK);
 464:Drivers/STM32F4xx_HAL_Driver/Src/stm32f4xx_hal_rtc_ex.c **** 
 465:Drivers/STM32F4xx_HAL_Driver/Src/stm32f4xx_hal_rtc_ex.c ****   /* Set remaining parameters of desired configuration into temporary variable */
 466:Drivers/STM32F4xx_HAL_Driver/Src/stm32f4xx_hal_rtc_ex.c ****   tmpreg |= ((uint32_t)sTamper->Filter            | \
 786              		.loc 1 466 31
 787 0068 3B68     		ldr	r3, [r7]
 788 006a DA68     		ldr	r2, [r3, #12]
 467:Drivers/STM32F4xx_HAL_Driver/Src/stm32f4xx_hal_rtc_ex.c ****              (uint32_t)sTamper->SamplingFrequency | \
 789              		.loc 1 467 31
 790 006c 3B68     		ldr	r3, [r7]
 791 006e 1B69     		ldr	r3, [r3, #16]
 466:Drivers/STM32F4xx_HAL_Driver/Src/stm32f4xx_hal_rtc_ex.c ****              (uint32_t)sTamper->SamplingFrequency | \
 792              		.loc 1 466 51
 793 0070 1A43     		orrs	r2, r2, r3
 468:Drivers/STM32F4xx_HAL_Driver/Src/stm32f4xx_hal_rtc_ex.c ****              (uint32_t)sTamper->PrechargeDuration | \
 794              		.loc 1 468 31
ARM GAS  C:\Users\TGSPOC~1\AppData\Local\Temp\ccVI6l15.s 			page 23


 795 0072 3B68     		ldr	r3, [r7]
 796 0074 5B69     		ldr	r3, [r3, #20]
 467:Drivers/STM32F4xx_HAL_Driver/Src/stm32f4xx_hal_rtc_ex.c ****              (uint32_t)sTamper->SamplingFrequency | \
 797              		.loc 1 467 51
 798 0076 1A43     		orrs	r2, r2, r3
 469:Drivers/STM32F4xx_HAL_Driver/Src/stm32f4xx_hal_rtc_ex.c ****              (uint32_t)sTamper->TamperPullUp      | \
 799              		.loc 1 469 31
 800 0078 3B68     		ldr	r3, [r7]
 801 007a 9B69     		ldr	r3, [r3, #24]
 468:Drivers/STM32F4xx_HAL_Driver/Src/stm32f4xx_hal_rtc_ex.c ****              (uint32_t)sTamper->PrechargeDuration | \
 802              		.loc 1 468 51
 803 007c 1A43     		orrs	r2, r2, r3
 470:Drivers/STM32F4xx_HAL_Driver/Src/stm32f4xx_hal_rtc_ex.c ****              (uint32_t)sTamper->PinSelection      | \
 804              		.loc 1 470 31
 805 007e 3B68     		ldr	r3, [r7]
 806 0080 5B68     		ldr	r3, [r3, #4]
 469:Drivers/STM32F4xx_HAL_Driver/Src/stm32f4xx_hal_rtc_ex.c ****              (uint32_t)sTamper->TamperPullUp      | \
 807              		.loc 1 469 51
 808 0082 1A43     		orrs	r2, r2, r3
 471:Drivers/STM32F4xx_HAL_Driver/Src/stm32f4xx_hal_rtc_ex.c ****              (uint32_t)sTamper->TimeStampOnTamperDetection);
 809              		.loc 1 471 31
 810 0084 3B68     		ldr	r3, [r7]
 811 0086 DB69     		ldr	r3, [r3, #28]
 470:Drivers/STM32F4xx_HAL_Driver/Src/stm32f4xx_hal_rtc_ex.c ****              (uint32_t)sTamper->PinSelection      | \
 812              		.loc 1 470 51
 813 0088 1343     		orrs	r3, r3, r2
 466:Drivers/STM32F4xx_HAL_Driver/Src/stm32f4xx_hal_rtc_ex.c ****              (uint32_t)sTamper->SamplingFrequency | \
 814              		.loc 1 466 10
 815 008a FA68     		ldr	r2, [r7, #12]
 816 008c 1343     		orrs	r3, r3, r2
 817 008e FB60     		str	r3, [r7, #12]
 472:Drivers/STM32F4xx_HAL_Driver/Src/stm32f4xx_hal_rtc_ex.c **** 
 473:Drivers/STM32F4xx_HAL_Driver/Src/stm32f4xx_hal_rtc_ex.c ****   /* Disable tamper global interrupt in case it is enabled */
 474:Drivers/STM32F4xx_HAL_Driver/Src/stm32f4xx_hal_rtc_ex.c ****   tmpreg &= (uint32_t)~RTC_TAFCR_TAMPIE;
 818              		.loc 1 474 10
 819 0090 FB68     		ldr	r3, [r7, #12]
 820 0092 23F00403 		bic	r3, r3, #4
 821 0096 FB60     		str	r3, [r7, #12]
 475:Drivers/STM32F4xx_HAL_Driver/Src/stm32f4xx_hal_rtc_ex.c **** 
 476:Drivers/STM32F4xx_HAL_Driver/Src/stm32f4xx_hal_rtc_ex.c ****   /* Copy desired configuration into configuration register */
 477:Drivers/STM32F4xx_HAL_Driver/Src/stm32f4xx_hal_rtc_ex.c ****   hrtc->Instance->TAFCR = tmpreg;
 822              		.loc 1 477 7
 823 0098 7B68     		ldr	r3, [r7, #4]
 824 009a 1B68     		ldr	r3, [r3]
 825              		.loc 1 477 25
 826 009c FA68     		ldr	r2, [r7, #12]
 827 009e 1A64     		str	r2, [r3, #64]
 478:Drivers/STM32F4xx_HAL_Driver/Src/stm32f4xx_hal_rtc_ex.c **** 
 479:Drivers/STM32F4xx_HAL_Driver/Src/stm32f4xx_hal_rtc_ex.c ****   hrtc->State = HAL_RTC_STATE_READY;
 828              		.loc 1 479 15
 829 00a0 7B68     		ldr	r3, [r7, #4]
 830 00a2 0122     		movs	r2, #1
 831 00a4 5A77     		strb	r2, [r3, #29]
 480:Drivers/STM32F4xx_HAL_Driver/Src/stm32f4xx_hal_rtc_ex.c **** 
 481:Drivers/STM32F4xx_HAL_Driver/Src/stm32f4xx_hal_rtc_ex.c ****   /* Process Unlocked */
 482:Drivers/STM32F4xx_HAL_Driver/Src/stm32f4xx_hal_rtc_ex.c ****   __HAL_UNLOCK(hrtc);
 832              		.loc 1 482 3
ARM GAS  C:\Users\TGSPOC~1\AppData\Local\Temp\ccVI6l15.s 			page 24


 833 00a6 7B68     		ldr	r3, [r7, #4]
 834 00a8 0022     		movs	r2, #0
 835 00aa 1A77     		strb	r2, [r3, #28]
 483:Drivers/STM32F4xx_HAL_Driver/Src/stm32f4xx_hal_rtc_ex.c **** 
 484:Drivers/STM32F4xx_HAL_Driver/Src/stm32f4xx_hal_rtc_ex.c ****   return HAL_OK;
 836              		.loc 1 484 10
 837 00ac 0023     		movs	r3, #0
 838              	.L17:
 485:Drivers/STM32F4xx_HAL_Driver/Src/stm32f4xx_hal_rtc_ex.c **** }
 839              		.loc 1 485 1
 840 00ae 1846     		mov	r0, r3
 841 00b0 1437     		adds	r7, r7, #20
 842              	.LCFI26:
 843              		.cfi_def_cfa_offset 4
 844 00b2 BD46     		mov	sp, r7
 845              	.LCFI27:
 846              		.cfi_def_cfa_register 13
 847              		@ sp needed
 848 00b4 5DF8047B 		ldr	r7, [sp], #4
 849              	.LCFI28:
 850              		.cfi_restore 7
 851              		.cfi_def_cfa_offset 0
 852 00b8 7047     		bx	lr
 853              		.cfi_endproc
 854              	.LFE138:
 856              		.section	.text.HAL_RTCEx_SetTamper_IT,"ax",%progbits
 857              		.align	1
 858              		.global	HAL_RTCEx_SetTamper_IT
 859              		.syntax unified
 860              		.thumb
 861              		.thumb_func
 863              	HAL_RTCEx_SetTamper_IT:
 864              	.LFB139:
 486:Drivers/STM32F4xx_HAL_Driver/Src/stm32f4xx_hal_rtc_ex.c **** 
 487:Drivers/STM32F4xx_HAL_Driver/Src/stm32f4xx_hal_rtc_ex.c **** /**
 488:Drivers/STM32F4xx_HAL_Driver/Src/stm32f4xx_hal_rtc_ex.c ****   * @brief  Sets Tamper with interrupt.
 489:Drivers/STM32F4xx_HAL_Driver/Src/stm32f4xx_hal_rtc_ex.c ****   * @note   By calling this API the tamper global interrupt will be enabled.
 490:Drivers/STM32F4xx_HAL_Driver/Src/stm32f4xx_hal_rtc_ex.c ****   * @param  hrtc pointer to a RTC_HandleTypeDef structure that contains
 491:Drivers/STM32F4xx_HAL_Driver/Src/stm32f4xx_hal_rtc_ex.c ****   *                the configuration information for RTC.
 492:Drivers/STM32F4xx_HAL_Driver/Src/stm32f4xx_hal_rtc_ex.c ****   * @param  sTamper Pointer to RTC Tamper.
 493:Drivers/STM32F4xx_HAL_Driver/Src/stm32f4xx_hal_rtc_ex.c ****   * @retval HAL status
 494:Drivers/STM32F4xx_HAL_Driver/Src/stm32f4xx_hal_rtc_ex.c ****   */
 495:Drivers/STM32F4xx_HAL_Driver/Src/stm32f4xx_hal_rtc_ex.c **** HAL_StatusTypeDef HAL_RTCEx_SetTamper_IT(RTC_HandleTypeDef *hrtc, RTC_TamperTypeDef *sTamper)
 496:Drivers/STM32F4xx_HAL_Driver/Src/stm32f4xx_hal_rtc_ex.c **** {
 865              		.loc 1 496 1
 866              		.cfi_startproc
 867              		@ args = 0, pretend = 0, frame = 16
 868              		@ frame_needed = 1, uses_anonymous_args = 0
 869              		@ link register save eliminated.
 870 0000 80B4     		push	{r7}
 871              	.LCFI29:
 872              		.cfi_def_cfa_offset 4
 873              		.cfi_offset 7, -4
 874 0002 85B0     		sub	sp, sp, #20
 875              	.LCFI30:
 876              		.cfi_def_cfa_offset 24
 877 0004 00AF     		add	r7, sp, #0
ARM GAS  C:\Users\TGSPOC~1\AppData\Local\Temp\ccVI6l15.s 			page 25


 878              	.LCFI31:
 879              		.cfi_def_cfa_register 7
 880 0006 7860     		str	r0, [r7, #4]
 881 0008 3960     		str	r1, [r7]
 497:Drivers/STM32F4xx_HAL_Driver/Src/stm32f4xx_hal_rtc_ex.c ****   uint32_t tmpreg = 0U;
 882              		.loc 1 497 12
 883 000a 0023     		movs	r3, #0
 884 000c FB60     		str	r3, [r7, #12]
 498:Drivers/STM32F4xx_HAL_Driver/Src/stm32f4xx_hal_rtc_ex.c **** 
 499:Drivers/STM32F4xx_HAL_Driver/Src/stm32f4xx_hal_rtc_ex.c ****   /* Check the parameters */
 500:Drivers/STM32F4xx_HAL_Driver/Src/stm32f4xx_hal_rtc_ex.c ****   assert_param(IS_RTC_TAMPER(sTamper->Tamper));
 501:Drivers/STM32F4xx_HAL_Driver/Src/stm32f4xx_hal_rtc_ex.c ****   assert_param(IS_RTC_TAMPER_PIN(sTamper->PinSelection));
 502:Drivers/STM32F4xx_HAL_Driver/Src/stm32f4xx_hal_rtc_ex.c ****   assert_param(IS_RTC_TAMPER_TRIGGER(sTamper->Trigger));
 503:Drivers/STM32F4xx_HAL_Driver/Src/stm32f4xx_hal_rtc_ex.c ****   assert_param(IS_RTC_TAMPER_FILTER(sTamper->Filter));
 504:Drivers/STM32F4xx_HAL_Driver/Src/stm32f4xx_hal_rtc_ex.c ****   assert_param(IS_RTC_TAMPER_FILTER_CONFIG_CORRECT(sTamper->Filter, sTamper->Trigger));
 505:Drivers/STM32F4xx_HAL_Driver/Src/stm32f4xx_hal_rtc_ex.c ****   assert_param(IS_RTC_TAMPER_SAMPLING_FREQ(sTamper->SamplingFrequency));
 506:Drivers/STM32F4xx_HAL_Driver/Src/stm32f4xx_hal_rtc_ex.c ****   assert_param(IS_RTC_TAMPER_PRECHARGE_DURATION(sTamper->PrechargeDuration));
 507:Drivers/STM32F4xx_HAL_Driver/Src/stm32f4xx_hal_rtc_ex.c ****   assert_param(IS_RTC_TAMPER_PULLUP_STATE(sTamper->TamperPullUp));
 508:Drivers/STM32F4xx_HAL_Driver/Src/stm32f4xx_hal_rtc_ex.c ****   assert_param(IS_RTC_TAMPER_TIMESTAMPONTAMPER_DETECTION(sTamper->TimeStampOnTamperDetection));
 509:Drivers/STM32F4xx_HAL_Driver/Src/stm32f4xx_hal_rtc_ex.c **** 
 510:Drivers/STM32F4xx_HAL_Driver/Src/stm32f4xx_hal_rtc_ex.c ****   /* Process Locked */
 511:Drivers/STM32F4xx_HAL_Driver/Src/stm32f4xx_hal_rtc_ex.c ****   __HAL_LOCK(hrtc);
 885              		.loc 1 511 3
 886 000e 7B68     		ldr	r3, [r7, #4]
 887 0010 1B7F     		ldrb	r3, [r3, #28]	@ zero_extendqisi2
 888 0012 012B     		cmp	r3, #1
 889 0014 01D1     		bne	.L21
 890              		.loc 1 511 3 is_stmt 0 discriminator 1
 891 0016 0223     		movs	r3, #2
 892              		.loc 1 511 3
 893 0018 55E0     		b	.L22
 894              	.L21:
 895              		.loc 1 511 3 discriminator 2
 896 001a 7B68     		ldr	r3, [r7, #4]
 897 001c 0122     		movs	r2, #1
 898 001e 1A77     		strb	r2, [r3, #28]
 512:Drivers/STM32F4xx_HAL_Driver/Src/stm32f4xx_hal_rtc_ex.c **** 
 513:Drivers/STM32F4xx_HAL_Driver/Src/stm32f4xx_hal_rtc_ex.c ****   hrtc->State = HAL_RTC_STATE_BUSY;
 899              		.loc 1 513 15 is_stmt 1
 900 0020 7B68     		ldr	r3, [r7, #4]
 901 0022 0222     		movs	r2, #2
 902 0024 5A77     		strb	r2, [r3, #29]
 514:Drivers/STM32F4xx_HAL_Driver/Src/stm32f4xx_hal_rtc_ex.c **** 
 515:Drivers/STM32F4xx_HAL_Driver/Src/stm32f4xx_hal_rtc_ex.c ****   /* Copy control register into temporary variable */
 516:Drivers/STM32F4xx_HAL_Driver/Src/stm32f4xx_hal_rtc_ex.c ****   tmpreg = hrtc->Instance->TAFCR;
 903              		.loc 1 516 16
 904 0026 7B68     		ldr	r3, [r7, #4]
 905 0028 1B68     		ldr	r3, [r3]
 906              		.loc 1 516 10
 907 002a 1B6C     		ldr	r3, [r3, #64]
 908 002c FB60     		str	r3, [r7, #12]
 517:Drivers/STM32F4xx_HAL_Driver/Src/stm32f4xx_hal_rtc_ex.c **** 
 518:Drivers/STM32F4xx_HAL_Driver/Src/stm32f4xx_hal_rtc_ex.c ****   /* Enable selected tamper */
 519:Drivers/STM32F4xx_HAL_Driver/Src/stm32f4xx_hal_rtc_ex.c ****   tmpreg |= (sTamper->Tamper);
 909              		.loc 1 519 21
 910 002e 3B68     		ldr	r3, [r7]
 911 0030 1B68     		ldr	r3, [r3]
ARM GAS  C:\Users\TGSPOC~1\AppData\Local\Temp\ccVI6l15.s 			page 26


 912              		.loc 1 519 10
 913 0032 FA68     		ldr	r2, [r7, #12]
 914 0034 1343     		orrs	r3, r3, r2
 915 0036 FB60     		str	r3, [r7, #12]
 520:Drivers/STM32F4xx_HAL_Driver/Src/stm32f4xx_hal_rtc_ex.c **** 
 521:Drivers/STM32F4xx_HAL_Driver/Src/stm32f4xx_hal_rtc_ex.c ****   /* Configure the tamper trigger bit (this bit is just on the right of the
 522:Drivers/STM32F4xx_HAL_Driver/Src/stm32f4xx_hal_rtc_ex.c ****        tamper enable bit, hence the one-time right shift before updating it) */
 523:Drivers/STM32F4xx_HAL_Driver/Src/stm32f4xx_hal_rtc_ex.c ****   if (sTamper->Trigger == RTC_TAMPERTRIGGER_FALLINGEDGE)
 916              		.loc 1 523 14
 917 0038 3B68     		ldr	r3, [r7]
 918 003a 9B68     		ldr	r3, [r3, #8]
 919              		.loc 1 523 6
 920 003c 022B     		cmp	r3, #2
 921 003e 06D1     		bne	.L23
 524:Drivers/STM32F4xx_HAL_Driver/Src/stm32f4xx_hal_rtc_ex.c ****   {
 525:Drivers/STM32F4xx_HAL_Driver/Src/stm32f4xx_hal_rtc_ex.c ****     /* Set the tamper trigger bit (case of falling edge or high level) */
 526:Drivers/STM32F4xx_HAL_Driver/Src/stm32f4xx_hal_rtc_ex.c ****     tmpreg |= (uint32_t)(sTamper->Tamper << 1U);
 922              		.loc 1 526 33
 923 0040 3B68     		ldr	r3, [r7]
 924 0042 1B68     		ldr	r3, [r3]
 925              		.loc 1 526 15
 926 0044 5B00     		lsls	r3, r3, #1
 927              		.loc 1 526 12
 928 0046 FA68     		ldr	r2, [r7, #12]
 929 0048 1343     		orrs	r3, r3, r2
 930 004a FB60     		str	r3, [r7, #12]
 931 004c 06E0     		b	.L24
 932              	.L23:
 527:Drivers/STM32F4xx_HAL_Driver/Src/stm32f4xx_hal_rtc_ex.c ****   }
 528:Drivers/STM32F4xx_HAL_Driver/Src/stm32f4xx_hal_rtc_ex.c ****   else
 529:Drivers/STM32F4xx_HAL_Driver/Src/stm32f4xx_hal_rtc_ex.c ****   {
 530:Drivers/STM32F4xx_HAL_Driver/Src/stm32f4xx_hal_rtc_ex.c ****     /* Clear the tamper trigger bit (case of rising edge or low level) */
 531:Drivers/STM32F4xx_HAL_Driver/Src/stm32f4xx_hal_rtc_ex.c ****     tmpreg &= (uint32_t)~(sTamper->Tamper << 1U);
 933              		.loc 1 531 34
 934 004e 3B68     		ldr	r3, [r7]
 935 0050 1B68     		ldr	r3, [r3]
 936              		.loc 1 531 43
 937 0052 5B00     		lsls	r3, r3, #1
 938              		.loc 1 531 25
 939 0054 DB43     		mvns	r3, r3
 940              		.loc 1 531 12
 941 0056 FA68     		ldr	r2, [r7, #12]
 942 0058 1340     		ands	r3, r3, r2
 943 005a FB60     		str	r3, [r7, #12]
 944              	.L24:
 532:Drivers/STM32F4xx_HAL_Driver/Src/stm32f4xx_hal_rtc_ex.c ****   }
 533:Drivers/STM32F4xx_HAL_Driver/Src/stm32f4xx_hal_rtc_ex.c **** 
 534:Drivers/STM32F4xx_HAL_Driver/Src/stm32f4xx_hal_rtc_ex.c ****   /* Clear remaining fields before setting them */
 535:Drivers/STM32F4xx_HAL_Driver/Src/stm32f4xx_hal_rtc_ex.c ****   tmpreg &= ~(RTC_TAMPERFILTER_MASK              | \
 945              		.loc 1 535 10
 946 005c FB68     		ldr	r3, [r7, #12]
 947 005e 23F4FF33 		bic	r3, r3, #130560
 948 0062 23F4C073 		bic	r3, r3, #384
 949 0066 FB60     		str	r3, [r7, #12]
 536:Drivers/STM32F4xx_HAL_Driver/Src/stm32f4xx_hal_rtc_ex.c ****               RTC_TAMPERSAMPLINGFREQ_RTCCLK_MASK | \
 537:Drivers/STM32F4xx_HAL_Driver/Src/stm32f4xx_hal_rtc_ex.c ****               RTC_TAMPERPRECHARGEDURATION_MASK   | \
 538:Drivers/STM32F4xx_HAL_Driver/Src/stm32f4xx_hal_rtc_ex.c ****               RTC_TAMPER_PULLUP_MASK             | \
ARM GAS  C:\Users\TGSPOC~1\AppData\Local\Temp\ccVI6l15.s 			page 27


 539:Drivers/STM32F4xx_HAL_Driver/Src/stm32f4xx_hal_rtc_ex.c ****               RTC_TAFCR_TAMP1INSEL               | \
 540:Drivers/STM32F4xx_HAL_Driver/Src/stm32f4xx_hal_rtc_ex.c ****               RTC_TIMESTAMPONTAMPERDETECTION_MASK);
 541:Drivers/STM32F4xx_HAL_Driver/Src/stm32f4xx_hal_rtc_ex.c **** 
 542:Drivers/STM32F4xx_HAL_Driver/Src/stm32f4xx_hal_rtc_ex.c ****   /* Set remaining parameters of desired configuration into temporary variable */
 543:Drivers/STM32F4xx_HAL_Driver/Src/stm32f4xx_hal_rtc_ex.c ****   tmpreg |= ((uint32_t)sTamper->Filter            | \
 950              		.loc 1 543 31
 951 0068 3B68     		ldr	r3, [r7]
 952 006a DA68     		ldr	r2, [r3, #12]
 544:Drivers/STM32F4xx_HAL_Driver/Src/stm32f4xx_hal_rtc_ex.c ****              (uint32_t)sTamper->SamplingFrequency | \
 953              		.loc 1 544 31
 954 006c 3B68     		ldr	r3, [r7]
 955 006e 1B69     		ldr	r3, [r3, #16]
 543:Drivers/STM32F4xx_HAL_Driver/Src/stm32f4xx_hal_rtc_ex.c ****              (uint32_t)sTamper->SamplingFrequency | \
 956              		.loc 1 543 51
 957 0070 1A43     		orrs	r2, r2, r3
 545:Drivers/STM32F4xx_HAL_Driver/Src/stm32f4xx_hal_rtc_ex.c ****              (uint32_t)sTamper->PrechargeDuration | \
 958              		.loc 1 545 31
 959 0072 3B68     		ldr	r3, [r7]
 960 0074 5B69     		ldr	r3, [r3, #20]
 544:Drivers/STM32F4xx_HAL_Driver/Src/stm32f4xx_hal_rtc_ex.c ****              (uint32_t)sTamper->SamplingFrequency | \
 961              		.loc 1 544 51
 962 0076 1A43     		orrs	r2, r2, r3
 546:Drivers/STM32F4xx_HAL_Driver/Src/stm32f4xx_hal_rtc_ex.c ****              (uint32_t)sTamper->TamperPullUp      | \
 963              		.loc 1 546 31
 964 0078 3B68     		ldr	r3, [r7]
 965 007a 9B69     		ldr	r3, [r3, #24]
 545:Drivers/STM32F4xx_HAL_Driver/Src/stm32f4xx_hal_rtc_ex.c ****              (uint32_t)sTamper->PrechargeDuration | \
 966              		.loc 1 545 51
 967 007c 1A43     		orrs	r2, r2, r3
 547:Drivers/STM32F4xx_HAL_Driver/Src/stm32f4xx_hal_rtc_ex.c ****              (uint32_t)sTamper->PinSelection      | \
 968              		.loc 1 547 31
 969 007e 3B68     		ldr	r3, [r7]
 970 0080 5B68     		ldr	r3, [r3, #4]
 546:Drivers/STM32F4xx_HAL_Driver/Src/stm32f4xx_hal_rtc_ex.c ****              (uint32_t)sTamper->TamperPullUp      | \
 971              		.loc 1 546 51
 972 0082 1A43     		orrs	r2, r2, r3
 548:Drivers/STM32F4xx_HAL_Driver/Src/stm32f4xx_hal_rtc_ex.c ****              (uint32_t)sTamper->TimeStampOnTamperDetection);
 973              		.loc 1 548 31
 974 0084 3B68     		ldr	r3, [r7]
 975 0086 DB69     		ldr	r3, [r3, #28]
 547:Drivers/STM32F4xx_HAL_Driver/Src/stm32f4xx_hal_rtc_ex.c ****              (uint32_t)sTamper->PinSelection      | \
 976              		.loc 1 547 51
 977 0088 1343     		orrs	r3, r3, r2
 543:Drivers/STM32F4xx_HAL_Driver/Src/stm32f4xx_hal_rtc_ex.c ****              (uint32_t)sTamper->SamplingFrequency | \
 978              		.loc 1 543 10
 979 008a FA68     		ldr	r2, [r7, #12]
 980 008c 1343     		orrs	r3, r3, r2
 981 008e FB60     		str	r3, [r7, #12]
 549:Drivers/STM32F4xx_HAL_Driver/Src/stm32f4xx_hal_rtc_ex.c **** 
 550:Drivers/STM32F4xx_HAL_Driver/Src/stm32f4xx_hal_rtc_ex.c ****   /* Enable global tamper interrupt */
 551:Drivers/STM32F4xx_HAL_Driver/Src/stm32f4xx_hal_rtc_ex.c ****   tmpreg |= (uint32_t)RTC_TAFCR_TAMPIE;
 982              		.loc 1 551 10
 983 0090 FB68     		ldr	r3, [r7, #12]
 984 0092 43F00403 		orr	r3, r3, #4
 985 0096 FB60     		str	r3, [r7, #12]
 552:Drivers/STM32F4xx_HAL_Driver/Src/stm32f4xx_hal_rtc_ex.c **** 
 553:Drivers/STM32F4xx_HAL_Driver/Src/stm32f4xx_hal_rtc_ex.c ****   /* Copy desired configuration into configuration register */
ARM GAS  C:\Users\TGSPOC~1\AppData\Local\Temp\ccVI6l15.s 			page 28


 554:Drivers/STM32F4xx_HAL_Driver/Src/stm32f4xx_hal_rtc_ex.c ****   hrtc->Instance->TAFCR = tmpreg;
 986              		.loc 1 554 7
 987 0098 7B68     		ldr	r3, [r7, #4]
 988 009a 1B68     		ldr	r3, [r3]
 989              		.loc 1 554 25
 990 009c FA68     		ldr	r2, [r7, #12]
 991 009e 1A64     		str	r2, [r3, #64]
 555:Drivers/STM32F4xx_HAL_Driver/Src/stm32f4xx_hal_rtc_ex.c **** 
 556:Drivers/STM32F4xx_HAL_Driver/Src/stm32f4xx_hal_rtc_ex.c ****   /* RTC Tamper Interrupt Configuration: EXTI configuration */
 557:Drivers/STM32F4xx_HAL_Driver/Src/stm32f4xx_hal_rtc_ex.c ****   __HAL_RTC_TAMPER_TIMESTAMP_EXTI_ENABLE_IT();
 992              		.loc 1 557 3
 993 00a0 0C4B     		ldr	r3, .L25
 994 00a2 1B68     		ldr	r3, [r3]
 995 00a4 0B4A     		ldr	r2, .L25
 996 00a6 43F40013 		orr	r3, r3, #2097152
 997 00aa 1360     		str	r3, [r2]
 558:Drivers/STM32F4xx_HAL_Driver/Src/stm32f4xx_hal_rtc_ex.c ****   __HAL_RTC_TAMPER_TIMESTAMP_EXTI_ENABLE_RISING_EDGE();
 998              		.loc 1 558 3
 999 00ac 094B     		ldr	r3, .L25
 1000 00ae 9B68     		ldr	r3, [r3, #8]
 1001 00b0 084A     		ldr	r2, .L25
 1002 00b2 43F40013 		orr	r3, r3, #2097152
 1003 00b6 9360     		str	r3, [r2, #8]
 559:Drivers/STM32F4xx_HAL_Driver/Src/stm32f4xx_hal_rtc_ex.c **** 
 560:Drivers/STM32F4xx_HAL_Driver/Src/stm32f4xx_hal_rtc_ex.c ****   hrtc->State = HAL_RTC_STATE_READY;
 1004              		.loc 1 560 15
 1005 00b8 7B68     		ldr	r3, [r7, #4]
 1006 00ba 0122     		movs	r2, #1
 1007 00bc 5A77     		strb	r2, [r3, #29]
 561:Drivers/STM32F4xx_HAL_Driver/Src/stm32f4xx_hal_rtc_ex.c **** 
 562:Drivers/STM32F4xx_HAL_Driver/Src/stm32f4xx_hal_rtc_ex.c ****   /* Process Unlocked */
 563:Drivers/STM32F4xx_HAL_Driver/Src/stm32f4xx_hal_rtc_ex.c ****   __HAL_UNLOCK(hrtc);
 1008              		.loc 1 563 3
 1009 00be 7B68     		ldr	r3, [r7, #4]
 1010 00c0 0022     		movs	r2, #0
 1011 00c2 1A77     		strb	r2, [r3, #28]
 564:Drivers/STM32F4xx_HAL_Driver/Src/stm32f4xx_hal_rtc_ex.c **** 
 565:Drivers/STM32F4xx_HAL_Driver/Src/stm32f4xx_hal_rtc_ex.c ****   return HAL_OK;
 1012              		.loc 1 565 10
 1013 00c4 0023     		movs	r3, #0
 1014              	.L22:
 566:Drivers/STM32F4xx_HAL_Driver/Src/stm32f4xx_hal_rtc_ex.c **** }
 1015              		.loc 1 566 1
 1016 00c6 1846     		mov	r0, r3
 1017 00c8 1437     		adds	r7, r7, #20
 1018              	.LCFI32:
 1019              		.cfi_def_cfa_offset 4
 1020 00ca BD46     		mov	sp, r7
 1021              	.LCFI33:
 1022              		.cfi_def_cfa_register 13
 1023              		@ sp needed
 1024 00cc 5DF8047B 		ldr	r7, [sp], #4
 1025              	.LCFI34:
 1026              		.cfi_restore 7
 1027              		.cfi_def_cfa_offset 0
 1028 00d0 7047     		bx	lr
 1029              	.L26:
ARM GAS  C:\Users\TGSPOC~1\AppData\Local\Temp\ccVI6l15.s 			page 29


 1030 00d2 00BF     		.align	2
 1031              	.L25:
 1032 00d4 003C0140 		.word	1073822720
 1033              		.cfi_endproc
 1034              	.LFE139:
 1036              		.section	.text.HAL_RTCEx_DeactivateTamper,"ax",%progbits
 1037              		.align	1
 1038              		.global	HAL_RTCEx_DeactivateTamper
 1039              		.syntax unified
 1040              		.thumb
 1041              		.thumb_func
 1043              	HAL_RTCEx_DeactivateTamper:
 1044              	.LFB140:
 567:Drivers/STM32F4xx_HAL_Driver/Src/stm32f4xx_hal_rtc_ex.c **** 
 568:Drivers/STM32F4xx_HAL_Driver/Src/stm32f4xx_hal_rtc_ex.c **** /**
 569:Drivers/STM32F4xx_HAL_Driver/Src/stm32f4xx_hal_rtc_ex.c ****   * @brief  Deactivates Tamper.
 570:Drivers/STM32F4xx_HAL_Driver/Src/stm32f4xx_hal_rtc_ex.c ****   * @note   The tamper global interrupt bit will remain unchanged.
 571:Drivers/STM32F4xx_HAL_Driver/Src/stm32f4xx_hal_rtc_ex.c ****   * @param  hrtc pointer to a RTC_HandleTypeDef structure that contains
 572:Drivers/STM32F4xx_HAL_Driver/Src/stm32f4xx_hal_rtc_ex.c ****   *                the configuration information for RTC.
 573:Drivers/STM32F4xx_HAL_Driver/Src/stm32f4xx_hal_rtc_ex.c ****   * @param  Tamper Selected tamper pin.
 574:Drivers/STM32F4xx_HAL_Driver/Src/stm32f4xx_hal_rtc_ex.c ****   *          This parameter can be any combination of the following values:
 575:Drivers/STM32F4xx_HAL_Driver/Src/stm32f4xx_hal_rtc_ex.c ****   *            @arg RTC_TAMPER_1:  Tamper 1
 576:Drivers/STM32F4xx_HAL_Driver/Src/stm32f4xx_hal_rtc_ex.c ****   *            @arg RTC_TAMPER_2:  Tamper 2
 577:Drivers/STM32F4xx_HAL_Driver/Src/stm32f4xx_hal_rtc_ex.c ****   * @note   RTC_TAMPER_2 is not applicable to all devices.
 578:Drivers/STM32F4xx_HAL_Driver/Src/stm32f4xx_hal_rtc_ex.c ****   * @retval HAL status
 579:Drivers/STM32F4xx_HAL_Driver/Src/stm32f4xx_hal_rtc_ex.c ****   */
 580:Drivers/STM32F4xx_HAL_Driver/Src/stm32f4xx_hal_rtc_ex.c **** HAL_StatusTypeDef HAL_RTCEx_DeactivateTamper(RTC_HandleTypeDef *hrtc, uint32_t Tamper)
 581:Drivers/STM32F4xx_HAL_Driver/Src/stm32f4xx_hal_rtc_ex.c **** {
 1045              		.loc 1 581 1
 1046              		.cfi_startproc
 1047              		@ args = 0, pretend = 0, frame = 8
 1048              		@ frame_needed = 1, uses_anonymous_args = 0
 1049              		@ link register save eliminated.
 1050 0000 80B4     		push	{r7}
 1051              	.LCFI35:
 1052              		.cfi_def_cfa_offset 4
 1053              		.cfi_offset 7, -4
 1054 0002 83B0     		sub	sp, sp, #12
 1055              	.LCFI36:
 1056              		.cfi_def_cfa_offset 16
 1057 0004 00AF     		add	r7, sp, #0
 1058              	.LCFI37:
 1059              		.cfi_def_cfa_register 7
 1060 0006 7860     		str	r0, [r7, #4]
 1061 0008 3960     		str	r1, [r7]
 582:Drivers/STM32F4xx_HAL_Driver/Src/stm32f4xx_hal_rtc_ex.c ****   assert_param(IS_RTC_TAMPER(Tamper));
 583:Drivers/STM32F4xx_HAL_Driver/Src/stm32f4xx_hal_rtc_ex.c **** 
 584:Drivers/STM32F4xx_HAL_Driver/Src/stm32f4xx_hal_rtc_ex.c ****   /* Process Locked */
 585:Drivers/STM32F4xx_HAL_Driver/Src/stm32f4xx_hal_rtc_ex.c ****   __HAL_LOCK(hrtc);
 1062              		.loc 1 585 3
 1063 000a 7B68     		ldr	r3, [r7, #4]
 1064 000c 1B7F     		ldrb	r3, [r3, #28]	@ zero_extendqisi2
 1065 000e 012B     		cmp	r3, #1
 1066 0010 01D1     		bne	.L28
 1067              		.loc 1 585 3 is_stmt 0 discriminator 1
 1068 0012 0223     		movs	r3, #2
 1069              		.loc 1 585 3
ARM GAS  C:\Users\TGSPOC~1\AppData\Local\Temp\ccVI6l15.s 			page 30


 1070 0014 15E0     		b	.L29
 1071              	.L28:
 1072              		.loc 1 585 3 discriminator 2
 1073 0016 7B68     		ldr	r3, [r7, #4]
 1074 0018 0122     		movs	r2, #1
 1075 001a 1A77     		strb	r2, [r3, #28]
 586:Drivers/STM32F4xx_HAL_Driver/Src/stm32f4xx_hal_rtc_ex.c **** 
 587:Drivers/STM32F4xx_HAL_Driver/Src/stm32f4xx_hal_rtc_ex.c ****   hrtc->State = HAL_RTC_STATE_BUSY;
 1076              		.loc 1 587 15 is_stmt 1
 1077 001c 7B68     		ldr	r3, [r7, #4]
 1078 001e 0222     		movs	r2, #2
 1079 0020 5A77     		strb	r2, [r3, #29]
 588:Drivers/STM32F4xx_HAL_Driver/Src/stm32f4xx_hal_rtc_ex.c **** 
 589:Drivers/STM32F4xx_HAL_Driver/Src/stm32f4xx_hal_rtc_ex.c ****   /* Disable the selected Tamper pin */
 590:Drivers/STM32F4xx_HAL_Driver/Src/stm32f4xx_hal_rtc_ex.c ****   hrtc->Instance->TAFCR &= (uint32_t)~Tamper;
 1080              		.loc 1 590 7
 1081 0022 7B68     		ldr	r3, [r7, #4]
 1082 0024 1B68     		ldr	r3, [r3]
 1083              		.loc 1 590 17
 1084 0026 196C     		ldr	r1, [r3, #64]
 1085              		.loc 1 590 38
 1086 0028 3B68     		ldr	r3, [r7]
 1087 002a DA43     		mvns	r2, r3
 1088              		.loc 1 590 7
 1089 002c 7B68     		ldr	r3, [r7, #4]
 1090 002e 1B68     		ldr	r3, [r3]
 1091              		.loc 1 590 25
 1092 0030 0A40     		ands	r2, r2, r1
 1093 0032 1A64     		str	r2, [r3, #64]
 591:Drivers/STM32F4xx_HAL_Driver/Src/stm32f4xx_hal_rtc_ex.c **** 
 592:Drivers/STM32F4xx_HAL_Driver/Src/stm32f4xx_hal_rtc_ex.c ****   hrtc->State = HAL_RTC_STATE_READY;
 1094              		.loc 1 592 15
 1095 0034 7B68     		ldr	r3, [r7, #4]
 1096 0036 0122     		movs	r2, #1
 1097 0038 5A77     		strb	r2, [r3, #29]
 593:Drivers/STM32F4xx_HAL_Driver/Src/stm32f4xx_hal_rtc_ex.c **** 
 594:Drivers/STM32F4xx_HAL_Driver/Src/stm32f4xx_hal_rtc_ex.c ****   /* Process Unlocked */
 595:Drivers/STM32F4xx_HAL_Driver/Src/stm32f4xx_hal_rtc_ex.c ****   __HAL_UNLOCK(hrtc);
 1098              		.loc 1 595 3
 1099 003a 7B68     		ldr	r3, [r7, #4]
 1100 003c 0022     		movs	r2, #0
 1101 003e 1A77     		strb	r2, [r3, #28]
 596:Drivers/STM32F4xx_HAL_Driver/Src/stm32f4xx_hal_rtc_ex.c **** 
 597:Drivers/STM32F4xx_HAL_Driver/Src/stm32f4xx_hal_rtc_ex.c ****   return HAL_OK;
 1102              		.loc 1 597 10
 1103 0040 0023     		movs	r3, #0
 1104              	.L29:
 598:Drivers/STM32F4xx_HAL_Driver/Src/stm32f4xx_hal_rtc_ex.c **** }
 1105              		.loc 1 598 1
 1106 0042 1846     		mov	r0, r3
 1107 0044 0C37     		adds	r7, r7, #12
 1108              	.LCFI38:
 1109              		.cfi_def_cfa_offset 4
 1110 0046 BD46     		mov	sp, r7
 1111              	.LCFI39:
 1112              		.cfi_def_cfa_register 13
 1113              		@ sp needed
ARM GAS  C:\Users\TGSPOC~1\AppData\Local\Temp\ccVI6l15.s 			page 31


 1114 0048 5DF8047B 		ldr	r7, [sp], #4
 1115              	.LCFI40:
 1116              		.cfi_restore 7
 1117              		.cfi_def_cfa_offset 0
 1118 004c 7047     		bx	lr
 1119              		.cfi_endproc
 1120              	.LFE140:
 1122              		.section	.text.HAL_RTCEx_TamperTimeStampIRQHandler,"ax",%progbits
 1123              		.align	1
 1124              		.global	HAL_RTCEx_TamperTimeStampIRQHandler
 1125              		.syntax unified
 1126              		.thumb
 1127              		.thumb_func
 1129              	HAL_RTCEx_TamperTimeStampIRQHandler:
 1130              	.LFB141:
 599:Drivers/STM32F4xx_HAL_Driver/Src/stm32f4xx_hal_rtc_ex.c **** 
 600:Drivers/STM32F4xx_HAL_Driver/Src/stm32f4xx_hal_rtc_ex.c **** /**
 601:Drivers/STM32F4xx_HAL_Driver/Src/stm32f4xx_hal_rtc_ex.c ****   * @brief  Handles Timestamp and Tamper interrupt request.
 602:Drivers/STM32F4xx_HAL_Driver/Src/stm32f4xx_hal_rtc_ex.c ****   * @param  hrtc pointer to a RTC_HandleTypeDef structure that contains
 603:Drivers/STM32F4xx_HAL_Driver/Src/stm32f4xx_hal_rtc_ex.c ****   *                the configuration information for RTC.
 604:Drivers/STM32F4xx_HAL_Driver/Src/stm32f4xx_hal_rtc_ex.c ****   * @retval None
 605:Drivers/STM32F4xx_HAL_Driver/Src/stm32f4xx_hal_rtc_ex.c ****   */
 606:Drivers/STM32F4xx_HAL_Driver/Src/stm32f4xx_hal_rtc_ex.c **** void HAL_RTCEx_TamperTimeStampIRQHandler(RTC_HandleTypeDef *hrtc)
 607:Drivers/STM32F4xx_HAL_Driver/Src/stm32f4xx_hal_rtc_ex.c **** {
 1131              		.loc 1 607 1
 1132              		.cfi_startproc
 1133              		@ args = 0, pretend = 0, frame = 8
 1134              		@ frame_needed = 1, uses_anonymous_args = 0
 1135 0000 80B5     		push	{r7, lr}
 1136              	.LCFI41:
 1137              		.cfi_def_cfa_offset 8
 1138              		.cfi_offset 7, -8
 1139              		.cfi_offset 14, -4
 1140 0002 82B0     		sub	sp, sp, #8
 1141              	.LCFI42:
 1142              		.cfi_def_cfa_offset 16
 1143 0004 00AF     		add	r7, sp, #0
 1144              	.LCFI43:
 1145              		.cfi_def_cfa_register 7
 1146 0006 7860     		str	r0, [r7, #4]
 608:Drivers/STM32F4xx_HAL_Driver/Src/stm32f4xx_hal_rtc_ex.c ****   /* Clear the EXTI's Flag for RTC Timestamp and Tamper */
 609:Drivers/STM32F4xx_HAL_Driver/Src/stm32f4xx_hal_rtc_ex.c ****   __HAL_RTC_TAMPER_TIMESTAMP_EXTI_CLEAR_FLAG();
 1147              		.loc 1 609 3
 1148 0008 1F4B     		ldr	r3, .L33
 1149 000a 4FF40012 		mov	r2, #2097152
 1150 000e 5A61     		str	r2, [r3, #20]
 610:Drivers/STM32F4xx_HAL_Driver/Src/stm32f4xx_hal_rtc_ex.c **** 
 611:Drivers/STM32F4xx_HAL_Driver/Src/stm32f4xx_hal_rtc_ex.c ****   /* Get the Timestamp interrupt source enable status */
 612:Drivers/STM32F4xx_HAL_Driver/Src/stm32f4xx_hal_rtc_ex.c ****   if (__HAL_RTC_TIMESTAMP_GET_IT_SOURCE(hrtc, RTC_IT_TS) != 0U)
 1151              		.loc 1 612 7
 1152 0010 7B68     		ldr	r3, [r7, #4]
 1153 0012 1B68     		ldr	r3, [r3]
 1154 0014 9B68     		ldr	r3, [r3, #8]
 1155 0016 03F40043 		and	r3, r3, #32768
 1156              		.loc 1 612 6
 1157 001a 002B     		cmp	r3, #0
 1158 001c 12D0     		beq	.L31
ARM GAS  C:\Users\TGSPOC~1\AppData\Local\Temp\ccVI6l15.s 			page 32


 613:Drivers/STM32F4xx_HAL_Driver/Src/stm32f4xx_hal_rtc_ex.c ****   {
 614:Drivers/STM32F4xx_HAL_Driver/Src/stm32f4xx_hal_rtc_ex.c ****     /* Get the pending status of the Timestamp Interrupt */
 615:Drivers/STM32F4xx_HAL_Driver/Src/stm32f4xx_hal_rtc_ex.c ****     if (__HAL_RTC_TIMESTAMP_GET_FLAG(hrtc, RTC_FLAG_TSF) != 0U)
 1159              		.loc 1 615 9
 1160 001e 7B68     		ldr	r3, [r7, #4]
 1161 0020 1B68     		ldr	r3, [r3]
 1162 0022 DB68     		ldr	r3, [r3, #12]
 1163 0024 03F40063 		and	r3, r3, #2048
 1164              		.loc 1 615 8
 1165 0028 002B     		cmp	r3, #0
 1166 002a 0BD0     		beq	.L31
 616:Drivers/STM32F4xx_HAL_Driver/Src/stm32f4xx_hal_rtc_ex.c ****     {
 617:Drivers/STM32F4xx_HAL_Driver/Src/stm32f4xx_hal_rtc_ex.c ****       /* Timestamp callback */
 618:Drivers/STM32F4xx_HAL_Driver/Src/stm32f4xx_hal_rtc_ex.c **** #if (USE_HAL_RTC_REGISTER_CALLBACKS == 1)
 619:Drivers/STM32F4xx_HAL_Driver/Src/stm32f4xx_hal_rtc_ex.c ****       hrtc->TimeStampEventCallback(hrtc);
 620:Drivers/STM32F4xx_HAL_Driver/Src/stm32f4xx_hal_rtc_ex.c **** #else
 621:Drivers/STM32F4xx_HAL_Driver/Src/stm32f4xx_hal_rtc_ex.c ****       HAL_RTCEx_TimeStampEventCallback(hrtc);
 1167              		.loc 1 621 7
 1168 002c 7868     		ldr	r0, [r7, #4]
 1169 002e FFF7FEFF 		bl	HAL_RTCEx_TimeStampEventCallback
 622:Drivers/STM32F4xx_HAL_Driver/Src/stm32f4xx_hal_rtc_ex.c **** #endif /* USE_HAL_RTC_REGISTER_CALLBACKS */
 623:Drivers/STM32F4xx_HAL_Driver/Src/stm32f4xx_hal_rtc_ex.c **** 
 624:Drivers/STM32F4xx_HAL_Driver/Src/stm32f4xx_hal_rtc_ex.c ****       /* Clear the Timestamp interrupt pending bit after returning from callback
 625:Drivers/STM32F4xx_HAL_Driver/Src/stm32f4xx_hal_rtc_ex.c ****          as RTC_TSTR and RTC_TSDR registers are cleared when TSF bit is reset */
 626:Drivers/STM32F4xx_HAL_Driver/Src/stm32f4xx_hal_rtc_ex.c ****       __HAL_RTC_TIMESTAMP_CLEAR_FLAG(hrtc, RTC_FLAG_TSF);
 1170              		.loc 1 626 7
 1171 0032 7B68     		ldr	r3, [r7, #4]
 1172 0034 1B68     		ldr	r3, [r3]
 1173 0036 DB68     		ldr	r3, [r3, #12]
 1174 0038 DAB2     		uxtb	r2, r3
 1175 003a 7B68     		ldr	r3, [r7, #4]
 1176 003c 1B68     		ldr	r3, [r3]
 1177 003e 62F40862 		orn	r2, r2, #2176
 1178 0042 DA60     		str	r2, [r3, #12]
 1179              	.L31:
 627:Drivers/STM32F4xx_HAL_Driver/Src/stm32f4xx_hal_rtc_ex.c ****     }
 628:Drivers/STM32F4xx_HAL_Driver/Src/stm32f4xx_hal_rtc_ex.c ****   }
 629:Drivers/STM32F4xx_HAL_Driver/Src/stm32f4xx_hal_rtc_ex.c **** 
 630:Drivers/STM32F4xx_HAL_Driver/Src/stm32f4xx_hal_rtc_ex.c ****   /* Get the Tamper 1 interrupt source enable status */
 631:Drivers/STM32F4xx_HAL_Driver/Src/stm32f4xx_hal_rtc_ex.c ****   if (__HAL_RTC_TAMPER_GET_IT_SOURCE(hrtc, RTC_IT_TAMP) != 0U)
 1180              		.loc 1 631 7
 1181 0044 7B68     		ldr	r3, [r7, #4]
 1182 0046 1B68     		ldr	r3, [r3]
 1183 0048 1B6C     		ldr	r3, [r3, #64]
 1184 004a 03F00403 		and	r3, r3, #4
 1185              		.loc 1 631 6
 1186 004e 002B     		cmp	r3, #0
 1187 0050 12D0     		beq	.L32
 632:Drivers/STM32F4xx_HAL_Driver/Src/stm32f4xx_hal_rtc_ex.c ****   {
 633:Drivers/STM32F4xx_HAL_Driver/Src/stm32f4xx_hal_rtc_ex.c ****     /* Get the pending status of the Tamper 1 Interrupt */
 634:Drivers/STM32F4xx_HAL_Driver/Src/stm32f4xx_hal_rtc_ex.c ****     if (__HAL_RTC_TAMPER_GET_FLAG(hrtc, RTC_FLAG_TAMP1F) != 0U)
 1188              		.loc 1 634 9
 1189 0052 7B68     		ldr	r3, [r7, #4]
 1190 0054 1B68     		ldr	r3, [r3]
 1191 0056 DB68     		ldr	r3, [r3, #12]
 1192 0058 03F40053 		and	r3, r3, #8192
 1193              		.loc 1 634 8
ARM GAS  C:\Users\TGSPOC~1\AppData\Local\Temp\ccVI6l15.s 			page 33


 1194 005c 002B     		cmp	r3, #0
 1195 005e 0BD0     		beq	.L32
 635:Drivers/STM32F4xx_HAL_Driver/Src/stm32f4xx_hal_rtc_ex.c ****     {
 636:Drivers/STM32F4xx_HAL_Driver/Src/stm32f4xx_hal_rtc_ex.c ****       /* Clear the Tamper interrupt pending bit */
 637:Drivers/STM32F4xx_HAL_Driver/Src/stm32f4xx_hal_rtc_ex.c ****       __HAL_RTC_TAMPER_CLEAR_FLAG(hrtc, RTC_FLAG_TAMP1F);
 1196              		.loc 1 637 7
 1197 0060 7B68     		ldr	r3, [r7, #4]
 1198 0062 1B68     		ldr	r3, [r3]
 1199 0064 DB68     		ldr	r3, [r3, #12]
 1200 0066 DAB2     		uxtb	r2, r3
 1201 0068 7B68     		ldr	r3, [r7, #4]
 1202 006a 1B68     		ldr	r3, [r3]
 1203 006c 62F40252 		orn	r2, r2, #8320
 1204 0070 DA60     		str	r2, [r3, #12]
 638:Drivers/STM32F4xx_HAL_Driver/Src/stm32f4xx_hal_rtc_ex.c **** 
 639:Drivers/STM32F4xx_HAL_Driver/Src/stm32f4xx_hal_rtc_ex.c ****       /* Tamper callback */
 640:Drivers/STM32F4xx_HAL_Driver/Src/stm32f4xx_hal_rtc_ex.c **** #if (USE_HAL_RTC_REGISTER_CALLBACKS == 1)
 641:Drivers/STM32F4xx_HAL_Driver/Src/stm32f4xx_hal_rtc_ex.c ****       hrtc->Tamper1EventCallback(hrtc);
 642:Drivers/STM32F4xx_HAL_Driver/Src/stm32f4xx_hal_rtc_ex.c **** #else
 643:Drivers/STM32F4xx_HAL_Driver/Src/stm32f4xx_hal_rtc_ex.c ****       HAL_RTCEx_Tamper1EventCallback(hrtc);
 1205              		.loc 1 643 7
 1206 0072 7868     		ldr	r0, [r7, #4]
 1207 0074 FFF7FEFF 		bl	HAL_RTCEx_Tamper1EventCallback
 1208              	.L32:
 644:Drivers/STM32F4xx_HAL_Driver/Src/stm32f4xx_hal_rtc_ex.c **** #endif /* USE_HAL_RTC_REGISTER_CALLBACKS */
 645:Drivers/STM32F4xx_HAL_Driver/Src/stm32f4xx_hal_rtc_ex.c ****     }
 646:Drivers/STM32F4xx_HAL_Driver/Src/stm32f4xx_hal_rtc_ex.c ****   }
 647:Drivers/STM32F4xx_HAL_Driver/Src/stm32f4xx_hal_rtc_ex.c **** 
 648:Drivers/STM32F4xx_HAL_Driver/Src/stm32f4xx_hal_rtc_ex.c **** #if defined(RTC_TAMPER2_SUPPORT)
 649:Drivers/STM32F4xx_HAL_Driver/Src/stm32f4xx_hal_rtc_ex.c ****   /* Get the Tamper 2 interrupt source enable status */
 650:Drivers/STM32F4xx_HAL_Driver/Src/stm32f4xx_hal_rtc_ex.c ****   if (__HAL_RTC_TAMPER_GET_IT_SOURCE(hrtc, RTC_IT_TAMP) != 0U)
 651:Drivers/STM32F4xx_HAL_Driver/Src/stm32f4xx_hal_rtc_ex.c ****   {
 652:Drivers/STM32F4xx_HAL_Driver/Src/stm32f4xx_hal_rtc_ex.c ****     /* Get the pending status of the Tamper 2 Interrupt */
 653:Drivers/STM32F4xx_HAL_Driver/Src/stm32f4xx_hal_rtc_ex.c ****     if (__HAL_RTC_TAMPER_GET_FLAG(hrtc, RTC_FLAG_TAMP2F) != 0U)
 654:Drivers/STM32F4xx_HAL_Driver/Src/stm32f4xx_hal_rtc_ex.c ****     {
 655:Drivers/STM32F4xx_HAL_Driver/Src/stm32f4xx_hal_rtc_ex.c ****       /* Clear the Tamper interrupt pending bit */
 656:Drivers/STM32F4xx_HAL_Driver/Src/stm32f4xx_hal_rtc_ex.c ****       __HAL_RTC_TAMPER_CLEAR_FLAG(hrtc, RTC_FLAG_TAMP2F);
 657:Drivers/STM32F4xx_HAL_Driver/Src/stm32f4xx_hal_rtc_ex.c **** 
 658:Drivers/STM32F4xx_HAL_Driver/Src/stm32f4xx_hal_rtc_ex.c ****       /* Tamper callback */
 659:Drivers/STM32F4xx_HAL_Driver/Src/stm32f4xx_hal_rtc_ex.c **** #if (USE_HAL_RTC_REGISTER_CALLBACKS == 1)
 660:Drivers/STM32F4xx_HAL_Driver/Src/stm32f4xx_hal_rtc_ex.c ****       hrtc->Tamper2EventCallback(hrtc);
 661:Drivers/STM32F4xx_HAL_Driver/Src/stm32f4xx_hal_rtc_ex.c **** #else
 662:Drivers/STM32F4xx_HAL_Driver/Src/stm32f4xx_hal_rtc_ex.c ****       HAL_RTCEx_Tamper2EventCallback(hrtc);
 663:Drivers/STM32F4xx_HAL_Driver/Src/stm32f4xx_hal_rtc_ex.c **** #endif /* USE_HAL_RTC_REGISTER_CALLBACKS */
 664:Drivers/STM32F4xx_HAL_Driver/Src/stm32f4xx_hal_rtc_ex.c ****     }
 665:Drivers/STM32F4xx_HAL_Driver/Src/stm32f4xx_hal_rtc_ex.c ****   }
 666:Drivers/STM32F4xx_HAL_Driver/Src/stm32f4xx_hal_rtc_ex.c **** #endif /* RTC_TAMPER2_SUPPORT */
 667:Drivers/STM32F4xx_HAL_Driver/Src/stm32f4xx_hal_rtc_ex.c **** 
 668:Drivers/STM32F4xx_HAL_Driver/Src/stm32f4xx_hal_rtc_ex.c ****   /* Change RTC state */
 669:Drivers/STM32F4xx_HAL_Driver/Src/stm32f4xx_hal_rtc_ex.c ****   hrtc->State = HAL_RTC_STATE_READY;
 1209              		.loc 1 669 15
 1210 0078 7B68     		ldr	r3, [r7, #4]
 1211 007a 0122     		movs	r2, #1
 1212 007c 5A77     		strb	r2, [r3, #29]
 670:Drivers/STM32F4xx_HAL_Driver/Src/stm32f4xx_hal_rtc_ex.c **** }
 1213              		.loc 1 670 1
 1214 007e 00BF     		nop
ARM GAS  C:\Users\TGSPOC~1\AppData\Local\Temp\ccVI6l15.s 			page 34


 1215 0080 0837     		adds	r7, r7, #8
 1216              	.LCFI44:
 1217              		.cfi_def_cfa_offset 8
 1218 0082 BD46     		mov	sp, r7
 1219              	.LCFI45:
 1220              		.cfi_def_cfa_register 13
 1221              		@ sp needed
 1222 0084 80BD     		pop	{r7, pc}
 1223              	.L34:
 1224 0086 00BF     		.align	2
 1225              	.L33:
 1226 0088 003C0140 		.word	1073822720
 1227              		.cfi_endproc
 1228              	.LFE141:
 1230              		.section	.text.HAL_RTCEx_TimeStampEventCallback,"ax",%progbits
 1231              		.align	1
 1232              		.weak	HAL_RTCEx_TimeStampEventCallback
 1233              		.syntax unified
 1234              		.thumb
 1235              		.thumb_func
 1237              	HAL_RTCEx_TimeStampEventCallback:
 1238              	.LFB142:
 671:Drivers/STM32F4xx_HAL_Driver/Src/stm32f4xx_hal_rtc_ex.c **** 
 672:Drivers/STM32F4xx_HAL_Driver/Src/stm32f4xx_hal_rtc_ex.c **** /**
 673:Drivers/STM32F4xx_HAL_Driver/Src/stm32f4xx_hal_rtc_ex.c ****   * @brief  Timestamp callback.
 674:Drivers/STM32F4xx_HAL_Driver/Src/stm32f4xx_hal_rtc_ex.c ****   * @param  hrtc pointer to a RTC_HandleTypeDef structure that contains
 675:Drivers/STM32F4xx_HAL_Driver/Src/stm32f4xx_hal_rtc_ex.c ****   *                the configuration information for RTC.
 676:Drivers/STM32F4xx_HAL_Driver/Src/stm32f4xx_hal_rtc_ex.c ****   * @retval None
 677:Drivers/STM32F4xx_HAL_Driver/Src/stm32f4xx_hal_rtc_ex.c ****   */
 678:Drivers/STM32F4xx_HAL_Driver/Src/stm32f4xx_hal_rtc_ex.c **** __weak void HAL_RTCEx_TimeStampEventCallback(RTC_HandleTypeDef *hrtc)
 679:Drivers/STM32F4xx_HAL_Driver/Src/stm32f4xx_hal_rtc_ex.c **** {
 1239              		.loc 1 679 1
 1240              		.cfi_startproc
 1241              		@ args = 0, pretend = 0, frame = 8
 1242              		@ frame_needed = 1, uses_anonymous_args = 0
 1243              		@ link register save eliminated.
 1244 0000 80B4     		push	{r7}
 1245              	.LCFI46:
 1246              		.cfi_def_cfa_offset 4
 1247              		.cfi_offset 7, -4
 1248 0002 83B0     		sub	sp, sp, #12
 1249              	.LCFI47:
 1250              		.cfi_def_cfa_offset 16
 1251 0004 00AF     		add	r7, sp, #0
 1252              	.LCFI48:
 1253              		.cfi_def_cfa_register 7
 1254 0006 7860     		str	r0, [r7, #4]
 680:Drivers/STM32F4xx_HAL_Driver/Src/stm32f4xx_hal_rtc_ex.c ****   /* Prevent unused argument(s) compilation warning */
 681:Drivers/STM32F4xx_HAL_Driver/Src/stm32f4xx_hal_rtc_ex.c ****   UNUSED(hrtc);
 682:Drivers/STM32F4xx_HAL_Driver/Src/stm32f4xx_hal_rtc_ex.c **** 
 683:Drivers/STM32F4xx_HAL_Driver/Src/stm32f4xx_hal_rtc_ex.c ****   /* NOTE: This function should not be modified, when the callback is needed,
 684:Drivers/STM32F4xx_HAL_Driver/Src/stm32f4xx_hal_rtc_ex.c ****            the HAL_RTCEx_TimeStampEventCallback could be implemented in the user file
 685:Drivers/STM32F4xx_HAL_Driver/Src/stm32f4xx_hal_rtc_ex.c ****   */
 686:Drivers/STM32F4xx_HAL_Driver/Src/stm32f4xx_hal_rtc_ex.c **** }
 1255              		.loc 1 686 1
 1256 0008 00BF     		nop
 1257 000a 0C37     		adds	r7, r7, #12
ARM GAS  C:\Users\TGSPOC~1\AppData\Local\Temp\ccVI6l15.s 			page 35


 1258              	.LCFI49:
 1259              		.cfi_def_cfa_offset 4
 1260 000c BD46     		mov	sp, r7
 1261              	.LCFI50:
 1262              		.cfi_def_cfa_register 13
 1263              		@ sp needed
 1264 000e 5DF8047B 		ldr	r7, [sp], #4
 1265              	.LCFI51:
 1266              		.cfi_restore 7
 1267              		.cfi_def_cfa_offset 0
 1268 0012 7047     		bx	lr
 1269              		.cfi_endproc
 1270              	.LFE142:
 1272              		.section	.text.HAL_RTCEx_Tamper1EventCallback,"ax",%progbits
 1273              		.align	1
 1274              		.weak	HAL_RTCEx_Tamper1EventCallback
 1275              		.syntax unified
 1276              		.thumb
 1277              		.thumb_func
 1279              	HAL_RTCEx_Tamper1EventCallback:
 1280              	.LFB143:
 687:Drivers/STM32F4xx_HAL_Driver/Src/stm32f4xx_hal_rtc_ex.c **** 
 688:Drivers/STM32F4xx_HAL_Driver/Src/stm32f4xx_hal_rtc_ex.c **** /**
 689:Drivers/STM32F4xx_HAL_Driver/Src/stm32f4xx_hal_rtc_ex.c ****   * @brief  Tamper 1 callback.
 690:Drivers/STM32F4xx_HAL_Driver/Src/stm32f4xx_hal_rtc_ex.c ****   * @param  hrtc pointer to a RTC_HandleTypeDef structure that contains
 691:Drivers/STM32F4xx_HAL_Driver/Src/stm32f4xx_hal_rtc_ex.c ****   *                the configuration information for RTC.
 692:Drivers/STM32F4xx_HAL_Driver/Src/stm32f4xx_hal_rtc_ex.c ****   * @retval None
 693:Drivers/STM32F4xx_HAL_Driver/Src/stm32f4xx_hal_rtc_ex.c ****   */
 694:Drivers/STM32F4xx_HAL_Driver/Src/stm32f4xx_hal_rtc_ex.c **** __weak void HAL_RTCEx_Tamper1EventCallback(RTC_HandleTypeDef *hrtc)
 695:Drivers/STM32F4xx_HAL_Driver/Src/stm32f4xx_hal_rtc_ex.c **** {
 1281              		.loc 1 695 1
 1282              		.cfi_startproc
 1283              		@ args = 0, pretend = 0, frame = 8
 1284              		@ frame_needed = 1, uses_anonymous_args = 0
 1285              		@ link register save eliminated.
 1286 0000 80B4     		push	{r7}
 1287              	.LCFI52:
 1288              		.cfi_def_cfa_offset 4
 1289              		.cfi_offset 7, -4
 1290 0002 83B0     		sub	sp, sp, #12
 1291              	.LCFI53:
 1292              		.cfi_def_cfa_offset 16
 1293 0004 00AF     		add	r7, sp, #0
 1294              	.LCFI54:
 1295              		.cfi_def_cfa_register 7
 1296 0006 7860     		str	r0, [r7, #4]
 696:Drivers/STM32F4xx_HAL_Driver/Src/stm32f4xx_hal_rtc_ex.c ****   /* Prevent unused argument(s) compilation warning */
 697:Drivers/STM32F4xx_HAL_Driver/Src/stm32f4xx_hal_rtc_ex.c ****   UNUSED(hrtc);
 698:Drivers/STM32F4xx_HAL_Driver/Src/stm32f4xx_hal_rtc_ex.c **** 
 699:Drivers/STM32F4xx_HAL_Driver/Src/stm32f4xx_hal_rtc_ex.c ****   /* NOTE: This function should not be modified, when the callback is needed,
 700:Drivers/STM32F4xx_HAL_Driver/Src/stm32f4xx_hal_rtc_ex.c ****            the HAL_RTCEx_Tamper1EventCallback could be implemented in the user file
 701:Drivers/STM32F4xx_HAL_Driver/Src/stm32f4xx_hal_rtc_ex.c ****    */
 702:Drivers/STM32F4xx_HAL_Driver/Src/stm32f4xx_hal_rtc_ex.c **** }
 1297              		.loc 1 702 1
 1298 0008 00BF     		nop
 1299 000a 0C37     		adds	r7, r7, #12
 1300              	.LCFI55:
ARM GAS  C:\Users\TGSPOC~1\AppData\Local\Temp\ccVI6l15.s 			page 36


 1301              		.cfi_def_cfa_offset 4
 1302 000c BD46     		mov	sp, r7
 1303              	.LCFI56:
 1304              		.cfi_def_cfa_register 13
 1305              		@ sp needed
 1306 000e 5DF8047B 		ldr	r7, [sp], #4
 1307              	.LCFI57:
 1308              		.cfi_restore 7
 1309              		.cfi_def_cfa_offset 0
 1310 0012 7047     		bx	lr
 1311              		.cfi_endproc
 1312              	.LFE143:
 1314              		.section	.text.HAL_RTCEx_PollForTimeStampEvent,"ax",%progbits
 1315              		.align	1
 1316              		.global	HAL_RTCEx_PollForTimeStampEvent
 1317              		.syntax unified
 1318              		.thumb
 1319              		.thumb_func
 1321              	HAL_RTCEx_PollForTimeStampEvent:
 1322              	.LFB144:
 703:Drivers/STM32F4xx_HAL_Driver/Src/stm32f4xx_hal_rtc_ex.c **** 
 704:Drivers/STM32F4xx_HAL_Driver/Src/stm32f4xx_hal_rtc_ex.c **** #if defined(RTC_TAMPER2_SUPPORT)
 705:Drivers/STM32F4xx_HAL_Driver/Src/stm32f4xx_hal_rtc_ex.c **** /**
 706:Drivers/STM32F4xx_HAL_Driver/Src/stm32f4xx_hal_rtc_ex.c ****   * @brief  Tamper 2 callback.
 707:Drivers/STM32F4xx_HAL_Driver/Src/stm32f4xx_hal_rtc_ex.c ****   * @param  hrtc pointer to a RTC_HandleTypeDef structure that contains
 708:Drivers/STM32F4xx_HAL_Driver/Src/stm32f4xx_hal_rtc_ex.c ****   *                the configuration information for RTC.
 709:Drivers/STM32F4xx_HAL_Driver/Src/stm32f4xx_hal_rtc_ex.c ****   * @retval None
 710:Drivers/STM32F4xx_HAL_Driver/Src/stm32f4xx_hal_rtc_ex.c ****   */
 711:Drivers/STM32F4xx_HAL_Driver/Src/stm32f4xx_hal_rtc_ex.c **** __weak void HAL_RTCEx_Tamper2EventCallback(RTC_HandleTypeDef *hrtc)
 712:Drivers/STM32F4xx_HAL_Driver/Src/stm32f4xx_hal_rtc_ex.c **** {
 713:Drivers/STM32F4xx_HAL_Driver/Src/stm32f4xx_hal_rtc_ex.c ****   /* Prevent unused argument(s) compilation warning */
 714:Drivers/STM32F4xx_HAL_Driver/Src/stm32f4xx_hal_rtc_ex.c ****   UNUSED(hrtc);
 715:Drivers/STM32F4xx_HAL_Driver/Src/stm32f4xx_hal_rtc_ex.c **** 
 716:Drivers/STM32F4xx_HAL_Driver/Src/stm32f4xx_hal_rtc_ex.c ****   /* NOTE: This function should not be modified, when the callback is needed,
 717:Drivers/STM32F4xx_HAL_Driver/Src/stm32f4xx_hal_rtc_ex.c ****            the HAL_RTCEx_Tamper2EventCallback could be implemented in the user file
 718:Drivers/STM32F4xx_HAL_Driver/Src/stm32f4xx_hal_rtc_ex.c ****    */
 719:Drivers/STM32F4xx_HAL_Driver/Src/stm32f4xx_hal_rtc_ex.c **** }
 720:Drivers/STM32F4xx_HAL_Driver/Src/stm32f4xx_hal_rtc_ex.c **** #endif /* RTC_TAMPER2_SUPPORT */
 721:Drivers/STM32F4xx_HAL_Driver/Src/stm32f4xx_hal_rtc_ex.c **** 
 722:Drivers/STM32F4xx_HAL_Driver/Src/stm32f4xx_hal_rtc_ex.c **** /**
 723:Drivers/STM32F4xx_HAL_Driver/Src/stm32f4xx_hal_rtc_ex.c ****   * @brief  Handles Timestamp polling request.
 724:Drivers/STM32F4xx_HAL_Driver/Src/stm32f4xx_hal_rtc_ex.c ****   * @param  hrtc pointer to a RTC_HandleTypeDef structure that contains
 725:Drivers/STM32F4xx_HAL_Driver/Src/stm32f4xx_hal_rtc_ex.c ****   *                the configuration information for RTC.
 726:Drivers/STM32F4xx_HAL_Driver/Src/stm32f4xx_hal_rtc_ex.c ****   * @param  Timeout Timeout duration
 727:Drivers/STM32F4xx_HAL_Driver/Src/stm32f4xx_hal_rtc_ex.c ****   * @retval HAL status
 728:Drivers/STM32F4xx_HAL_Driver/Src/stm32f4xx_hal_rtc_ex.c ****   */
 729:Drivers/STM32F4xx_HAL_Driver/Src/stm32f4xx_hal_rtc_ex.c **** HAL_StatusTypeDef HAL_RTCEx_PollForTimeStampEvent(RTC_HandleTypeDef *hrtc, uint32_t Timeout)
 730:Drivers/STM32F4xx_HAL_Driver/Src/stm32f4xx_hal_rtc_ex.c **** {
 1323              		.loc 1 730 1
 1324              		.cfi_startproc
 1325              		@ args = 0, pretend = 0, frame = 16
 1326              		@ frame_needed = 1, uses_anonymous_args = 0
 1327 0000 80B5     		push	{r7, lr}
 1328              	.LCFI58:
 1329              		.cfi_def_cfa_offset 8
 1330              		.cfi_offset 7, -8
 1331              		.cfi_offset 14, -4
ARM GAS  C:\Users\TGSPOC~1\AppData\Local\Temp\ccVI6l15.s 			page 37


 1332 0002 84B0     		sub	sp, sp, #16
 1333              	.LCFI59:
 1334              		.cfi_def_cfa_offset 24
 1335 0004 00AF     		add	r7, sp, #0
 1336              	.LCFI60:
 1337              		.cfi_def_cfa_register 7
 1338 0006 7860     		str	r0, [r7, #4]
 1339 0008 3960     		str	r1, [r7]
 731:Drivers/STM32F4xx_HAL_Driver/Src/stm32f4xx_hal_rtc_ex.c ****   uint32_t tickstart = 0U;
 1340              		.loc 1 731 12
 1341 000a 0023     		movs	r3, #0
 1342 000c FB60     		str	r3, [r7, #12]
 732:Drivers/STM32F4xx_HAL_Driver/Src/stm32f4xx_hal_rtc_ex.c **** 
 733:Drivers/STM32F4xx_HAL_Driver/Src/stm32f4xx_hal_rtc_ex.c ****   /* Get tick */
 734:Drivers/STM32F4xx_HAL_Driver/Src/stm32f4xx_hal_rtc_ex.c ****   tickstart = HAL_GetTick();
 1343              		.loc 1 734 15
 1344 000e FFF7FEFF 		bl	HAL_GetTick
 1345 0012 F860     		str	r0, [r7, #12]
 735:Drivers/STM32F4xx_HAL_Driver/Src/stm32f4xx_hal_rtc_ex.c **** 
 736:Drivers/STM32F4xx_HAL_Driver/Src/stm32f4xx_hal_rtc_ex.c ****   while (__HAL_RTC_TIMESTAMP_GET_FLAG(hrtc, RTC_FLAG_TSF) == 0U)
 1346              		.loc 1 736 9
 1347 0014 28E0     		b	.L38
 1348              	.L42:
 737:Drivers/STM32F4xx_HAL_Driver/Src/stm32f4xx_hal_rtc_ex.c ****   {
 738:Drivers/STM32F4xx_HAL_Driver/Src/stm32f4xx_hal_rtc_ex.c ****     if (Timeout != HAL_MAX_DELAY)
 1349              		.loc 1 738 8
 1350 0016 3B68     		ldr	r3, [r7]
 1351 0018 B3F1FF3F 		cmp	r3, #-1
 1352 001c 0FD0     		beq	.L39
 739:Drivers/STM32F4xx_HAL_Driver/Src/stm32f4xx_hal_rtc_ex.c ****     {
 740:Drivers/STM32F4xx_HAL_Driver/Src/stm32f4xx_hal_rtc_ex.c ****       if ((Timeout == 0U) || ((HAL_GetTick() - tickstart) > Timeout))
 1353              		.loc 1 740 10
 1354 001e 3B68     		ldr	r3, [r7]
 1355 0020 002B     		cmp	r3, #0
 1356 0022 07D0     		beq	.L40
 1357              		.loc 1 740 32 discriminator 1
 1358 0024 FFF7FEFF 		bl	HAL_GetTick
 1359 0028 0246     		mov	r2, r0
 1360              		.loc 1 740 46 discriminator 1
 1361 002a FB68     		ldr	r3, [r7, #12]
 1362 002c D31A     		subs	r3, r2, r3
 1363              		.loc 1 740 27 discriminator 1
 1364 002e 3A68     		ldr	r2, [r7]
 1365 0030 9A42     		cmp	r2, r3
 1366 0032 04D2     		bcs	.L39
 1367              	.L40:
 741:Drivers/STM32F4xx_HAL_Driver/Src/stm32f4xx_hal_rtc_ex.c ****       {
 742:Drivers/STM32F4xx_HAL_Driver/Src/stm32f4xx_hal_rtc_ex.c ****         hrtc->State = HAL_RTC_STATE_TIMEOUT;
 1368              		.loc 1 742 21
 1369 0034 7B68     		ldr	r3, [r7, #4]
 1370 0036 0322     		movs	r2, #3
 1371 0038 5A77     		strb	r2, [r3, #29]
 743:Drivers/STM32F4xx_HAL_Driver/Src/stm32f4xx_hal_rtc_ex.c ****         return HAL_TIMEOUT;
 1372              		.loc 1 743 16
 1373 003a 0323     		movs	r3, #3
 1374 003c 1FE0     		b	.L41
 1375              	.L39:
ARM GAS  C:\Users\TGSPOC~1\AppData\Local\Temp\ccVI6l15.s 			page 38


 744:Drivers/STM32F4xx_HAL_Driver/Src/stm32f4xx_hal_rtc_ex.c ****       }
 745:Drivers/STM32F4xx_HAL_Driver/Src/stm32f4xx_hal_rtc_ex.c ****     }
 746:Drivers/STM32F4xx_HAL_Driver/Src/stm32f4xx_hal_rtc_ex.c **** 
 747:Drivers/STM32F4xx_HAL_Driver/Src/stm32f4xx_hal_rtc_ex.c ****     if (__HAL_RTC_TIMESTAMP_GET_FLAG(hrtc, RTC_FLAG_TSOVF) != 0U)
 1376              		.loc 1 747 9
 1377 003e 7B68     		ldr	r3, [r7, #4]
 1378 0040 1B68     		ldr	r3, [r3]
 1379 0042 DB68     		ldr	r3, [r3, #12]
 1380 0044 03F48053 		and	r3, r3, #4096
 1381              		.loc 1 747 8
 1382 0048 002B     		cmp	r3, #0
 1383 004a 0DD0     		beq	.L38
 748:Drivers/STM32F4xx_HAL_Driver/Src/stm32f4xx_hal_rtc_ex.c ****     {
 749:Drivers/STM32F4xx_HAL_Driver/Src/stm32f4xx_hal_rtc_ex.c ****       /* Clear the Timestamp Overrun Flag */
 750:Drivers/STM32F4xx_HAL_Driver/Src/stm32f4xx_hal_rtc_ex.c ****       __HAL_RTC_TIMESTAMP_CLEAR_FLAG(hrtc, RTC_FLAG_TSOVF);
 1384              		.loc 1 750 7
 1385 004c 7B68     		ldr	r3, [r7, #4]
 1386 004e 1B68     		ldr	r3, [r3]
 1387 0050 DB68     		ldr	r3, [r3, #12]
 1388 0052 DAB2     		uxtb	r2, r3
 1389 0054 7B68     		ldr	r3, [r7, #4]
 1390 0056 1B68     		ldr	r3, [r3]
 1391 0058 62F48452 		orn	r2, r2, #4224
 1392 005c DA60     		str	r2, [r3, #12]
 751:Drivers/STM32F4xx_HAL_Driver/Src/stm32f4xx_hal_rtc_ex.c **** 
 752:Drivers/STM32F4xx_HAL_Driver/Src/stm32f4xx_hal_rtc_ex.c ****       /* Change Timestamp state */
 753:Drivers/STM32F4xx_HAL_Driver/Src/stm32f4xx_hal_rtc_ex.c ****       hrtc->State = HAL_RTC_STATE_ERROR;
 1393              		.loc 1 753 19
 1394 005e 7B68     		ldr	r3, [r7, #4]
 1395 0060 0422     		movs	r2, #4
 1396 0062 5A77     		strb	r2, [r3, #29]
 754:Drivers/STM32F4xx_HAL_Driver/Src/stm32f4xx_hal_rtc_ex.c **** 
 755:Drivers/STM32F4xx_HAL_Driver/Src/stm32f4xx_hal_rtc_ex.c ****       return HAL_ERROR;
 1397              		.loc 1 755 14
 1398 0064 0123     		movs	r3, #1
 1399 0066 0AE0     		b	.L41
 1400              	.L38:
 736:Drivers/STM32F4xx_HAL_Driver/Src/stm32f4xx_hal_rtc_ex.c ****   {
 1401              		.loc 1 736 10
 1402 0068 7B68     		ldr	r3, [r7, #4]
 1403 006a 1B68     		ldr	r3, [r3]
 1404 006c DB68     		ldr	r3, [r3, #12]
 1405 006e 03F40063 		and	r3, r3, #2048
 736:Drivers/STM32F4xx_HAL_Driver/Src/stm32f4xx_hal_rtc_ex.c ****   {
 1406              		.loc 1 736 59
 1407 0072 002B     		cmp	r3, #0
 1408 0074 CFD0     		beq	.L42
 756:Drivers/STM32F4xx_HAL_Driver/Src/stm32f4xx_hal_rtc_ex.c ****     }
 757:Drivers/STM32F4xx_HAL_Driver/Src/stm32f4xx_hal_rtc_ex.c ****   }
 758:Drivers/STM32F4xx_HAL_Driver/Src/stm32f4xx_hal_rtc_ex.c **** 
 759:Drivers/STM32F4xx_HAL_Driver/Src/stm32f4xx_hal_rtc_ex.c ****   /* Change RTC state */
 760:Drivers/STM32F4xx_HAL_Driver/Src/stm32f4xx_hal_rtc_ex.c ****   hrtc->State = HAL_RTC_STATE_READY;
 1409              		.loc 1 760 15
 1410 0076 7B68     		ldr	r3, [r7, #4]
 1411 0078 0122     		movs	r2, #1
 1412 007a 5A77     		strb	r2, [r3, #29]
 761:Drivers/STM32F4xx_HAL_Driver/Src/stm32f4xx_hal_rtc_ex.c **** 
ARM GAS  C:\Users\TGSPOC~1\AppData\Local\Temp\ccVI6l15.s 			page 39


 762:Drivers/STM32F4xx_HAL_Driver/Src/stm32f4xx_hal_rtc_ex.c ****   return HAL_OK;
 1413              		.loc 1 762 10
 1414 007c 0023     		movs	r3, #0
 1415              	.L41:
 763:Drivers/STM32F4xx_HAL_Driver/Src/stm32f4xx_hal_rtc_ex.c **** }
 1416              		.loc 1 763 1
 1417 007e 1846     		mov	r0, r3
 1418 0080 1037     		adds	r7, r7, #16
 1419              	.LCFI61:
 1420              		.cfi_def_cfa_offset 8
 1421 0082 BD46     		mov	sp, r7
 1422              	.LCFI62:
 1423              		.cfi_def_cfa_register 13
 1424              		@ sp needed
 1425 0084 80BD     		pop	{r7, pc}
 1426              		.cfi_endproc
 1427              	.LFE144:
 1429              		.section	.text.HAL_RTCEx_PollForTamper1Event,"ax",%progbits
 1430              		.align	1
 1431              		.global	HAL_RTCEx_PollForTamper1Event
 1432              		.syntax unified
 1433              		.thumb
 1434              		.thumb_func
 1436              	HAL_RTCEx_PollForTamper1Event:
 1437              	.LFB145:
 764:Drivers/STM32F4xx_HAL_Driver/Src/stm32f4xx_hal_rtc_ex.c **** 
 765:Drivers/STM32F4xx_HAL_Driver/Src/stm32f4xx_hal_rtc_ex.c **** /**
 766:Drivers/STM32F4xx_HAL_Driver/Src/stm32f4xx_hal_rtc_ex.c ****   * @brief  Handles Tamper 1 Polling.
 767:Drivers/STM32F4xx_HAL_Driver/Src/stm32f4xx_hal_rtc_ex.c ****   * @param  hrtc pointer to a RTC_HandleTypeDef structure that contains
 768:Drivers/STM32F4xx_HAL_Driver/Src/stm32f4xx_hal_rtc_ex.c ****   *                the configuration information for RTC.
 769:Drivers/STM32F4xx_HAL_Driver/Src/stm32f4xx_hal_rtc_ex.c ****   * @param  Timeout Timeout duration
 770:Drivers/STM32F4xx_HAL_Driver/Src/stm32f4xx_hal_rtc_ex.c ****   * @retval HAL status
 771:Drivers/STM32F4xx_HAL_Driver/Src/stm32f4xx_hal_rtc_ex.c ****   */
 772:Drivers/STM32F4xx_HAL_Driver/Src/stm32f4xx_hal_rtc_ex.c **** HAL_StatusTypeDef HAL_RTCEx_PollForTamper1Event(RTC_HandleTypeDef *hrtc, uint32_t Timeout)
 773:Drivers/STM32F4xx_HAL_Driver/Src/stm32f4xx_hal_rtc_ex.c **** {
 1438              		.loc 1 773 1
 1439              		.cfi_startproc
 1440              		@ args = 0, pretend = 0, frame = 16
 1441              		@ frame_needed = 1, uses_anonymous_args = 0
 1442 0000 80B5     		push	{r7, lr}
 1443              	.LCFI63:
 1444              		.cfi_def_cfa_offset 8
 1445              		.cfi_offset 7, -8
 1446              		.cfi_offset 14, -4
 1447 0002 84B0     		sub	sp, sp, #16
 1448              	.LCFI64:
 1449              		.cfi_def_cfa_offset 24
 1450 0004 00AF     		add	r7, sp, #0
 1451              	.LCFI65:
 1452              		.cfi_def_cfa_register 7
 1453 0006 7860     		str	r0, [r7, #4]
 1454 0008 3960     		str	r1, [r7]
 774:Drivers/STM32F4xx_HAL_Driver/Src/stm32f4xx_hal_rtc_ex.c ****   uint32_t tickstart = 0U;
 1455              		.loc 1 774 12
 1456 000a 0023     		movs	r3, #0
 1457 000c FB60     		str	r3, [r7, #12]
 775:Drivers/STM32F4xx_HAL_Driver/Src/stm32f4xx_hal_rtc_ex.c **** 
ARM GAS  C:\Users\TGSPOC~1\AppData\Local\Temp\ccVI6l15.s 			page 40


 776:Drivers/STM32F4xx_HAL_Driver/Src/stm32f4xx_hal_rtc_ex.c ****   /* Get tick */
 777:Drivers/STM32F4xx_HAL_Driver/Src/stm32f4xx_hal_rtc_ex.c ****   tickstart = HAL_GetTick();
 1458              		.loc 1 777 15
 1459 000e FFF7FEFF 		bl	HAL_GetTick
 1460 0012 F860     		str	r0, [r7, #12]
 778:Drivers/STM32F4xx_HAL_Driver/Src/stm32f4xx_hal_rtc_ex.c **** 
 779:Drivers/STM32F4xx_HAL_Driver/Src/stm32f4xx_hal_rtc_ex.c ****   /* Get the status of the Interrupt */
 780:Drivers/STM32F4xx_HAL_Driver/Src/stm32f4xx_hal_rtc_ex.c ****   while (__HAL_RTC_TAMPER_GET_FLAG(hrtc, RTC_FLAG_TAMP1F) == 0U)
 1461              		.loc 1 780 9
 1462 0014 13E0     		b	.L45
 1463              	.L48:
 781:Drivers/STM32F4xx_HAL_Driver/Src/stm32f4xx_hal_rtc_ex.c ****   {
 782:Drivers/STM32F4xx_HAL_Driver/Src/stm32f4xx_hal_rtc_ex.c ****     if (Timeout != HAL_MAX_DELAY)
 1464              		.loc 1 782 8
 1465 0016 3B68     		ldr	r3, [r7]
 1466 0018 B3F1FF3F 		cmp	r3, #-1
 1467 001c 0FD0     		beq	.L45
 783:Drivers/STM32F4xx_HAL_Driver/Src/stm32f4xx_hal_rtc_ex.c ****     {
 784:Drivers/STM32F4xx_HAL_Driver/Src/stm32f4xx_hal_rtc_ex.c ****       if ((Timeout == 0U) || ((HAL_GetTick() - tickstart) > Timeout))
 1468              		.loc 1 784 10
 1469 001e 3B68     		ldr	r3, [r7]
 1470 0020 002B     		cmp	r3, #0
 1471 0022 07D0     		beq	.L46
 1472              		.loc 1 784 32 discriminator 1
 1473 0024 FFF7FEFF 		bl	HAL_GetTick
 1474 0028 0246     		mov	r2, r0
 1475              		.loc 1 784 46 discriminator 1
 1476 002a FB68     		ldr	r3, [r7, #12]
 1477 002c D31A     		subs	r3, r2, r3
 1478              		.loc 1 784 27 discriminator 1
 1479 002e 3A68     		ldr	r2, [r7]
 1480 0030 9A42     		cmp	r2, r3
 1481 0032 04D2     		bcs	.L45
 1482              	.L46:
 785:Drivers/STM32F4xx_HAL_Driver/Src/stm32f4xx_hal_rtc_ex.c ****       {
 786:Drivers/STM32F4xx_HAL_Driver/Src/stm32f4xx_hal_rtc_ex.c ****         hrtc->State = HAL_RTC_STATE_TIMEOUT;
 1483              		.loc 1 786 21
 1484 0034 7B68     		ldr	r3, [r7, #4]
 1485 0036 0322     		movs	r2, #3
 1486 0038 5A77     		strb	r2, [r3, #29]
 787:Drivers/STM32F4xx_HAL_Driver/Src/stm32f4xx_hal_rtc_ex.c ****         return HAL_TIMEOUT;
 1487              		.loc 1 787 16
 1488 003a 0323     		movs	r3, #3
 1489 003c 13E0     		b	.L47
 1490              	.L45:
 780:Drivers/STM32F4xx_HAL_Driver/Src/stm32f4xx_hal_rtc_ex.c ****   {
 1491              		.loc 1 780 10
 1492 003e 7B68     		ldr	r3, [r7, #4]
 1493 0040 1B68     		ldr	r3, [r3]
 1494 0042 DB68     		ldr	r3, [r3, #12]
 1495 0044 03F40053 		and	r3, r3, #8192
 780:Drivers/STM32F4xx_HAL_Driver/Src/stm32f4xx_hal_rtc_ex.c ****   {
 1496              		.loc 1 780 59
 1497 0048 002B     		cmp	r3, #0
 1498 004a E4D0     		beq	.L48
 788:Drivers/STM32F4xx_HAL_Driver/Src/stm32f4xx_hal_rtc_ex.c ****       }
 789:Drivers/STM32F4xx_HAL_Driver/Src/stm32f4xx_hal_rtc_ex.c ****     }
ARM GAS  C:\Users\TGSPOC~1\AppData\Local\Temp\ccVI6l15.s 			page 41


 790:Drivers/STM32F4xx_HAL_Driver/Src/stm32f4xx_hal_rtc_ex.c ****   }
 791:Drivers/STM32F4xx_HAL_Driver/Src/stm32f4xx_hal_rtc_ex.c **** 
 792:Drivers/STM32F4xx_HAL_Driver/Src/stm32f4xx_hal_rtc_ex.c ****   /* Clear the Tamper Flag */
 793:Drivers/STM32F4xx_HAL_Driver/Src/stm32f4xx_hal_rtc_ex.c ****   __HAL_RTC_TAMPER_CLEAR_FLAG(hrtc, RTC_FLAG_TAMP1F);
 1499              		.loc 1 793 3
 1500 004c 7B68     		ldr	r3, [r7, #4]
 1501 004e 1B68     		ldr	r3, [r3]
 1502 0050 DB68     		ldr	r3, [r3, #12]
 1503 0052 DAB2     		uxtb	r2, r3
 1504 0054 7B68     		ldr	r3, [r7, #4]
 1505 0056 1B68     		ldr	r3, [r3]
 1506 0058 62F40252 		orn	r2, r2, #8320
 1507 005c DA60     		str	r2, [r3, #12]
 794:Drivers/STM32F4xx_HAL_Driver/Src/stm32f4xx_hal_rtc_ex.c **** 
 795:Drivers/STM32F4xx_HAL_Driver/Src/stm32f4xx_hal_rtc_ex.c ****   /* Change RTC state */
 796:Drivers/STM32F4xx_HAL_Driver/Src/stm32f4xx_hal_rtc_ex.c ****   hrtc->State = HAL_RTC_STATE_READY;
 1508              		.loc 1 796 15
 1509 005e 7B68     		ldr	r3, [r7, #4]
 1510 0060 0122     		movs	r2, #1
 1511 0062 5A77     		strb	r2, [r3, #29]
 797:Drivers/STM32F4xx_HAL_Driver/Src/stm32f4xx_hal_rtc_ex.c **** 
 798:Drivers/STM32F4xx_HAL_Driver/Src/stm32f4xx_hal_rtc_ex.c ****   return HAL_OK;
 1512              		.loc 1 798 10
 1513 0064 0023     		movs	r3, #0
 1514              	.L47:
 799:Drivers/STM32F4xx_HAL_Driver/Src/stm32f4xx_hal_rtc_ex.c **** }
 1515              		.loc 1 799 1
 1516 0066 1846     		mov	r0, r3
 1517 0068 1037     		adds	r7, r7, #16
 1518              	.LCFI66:
 1519              		.cfi_def_cfa_offset 8
 1520 006a BD46     		mov	sp, r7
 1521              	.LCFI67:
 1522              		.cfi_def_cfa_register 13
 1523              		@ sp needed
 1524 006c 80BD     		pop	{r7, pc}
 1525              		.cfi_endproc
 1526              	.LFE145:
 1528              		.section	.text.HAL_RTCEx_SetWakeUpTimer,"ax",%progbits
 1529              		.align	1
 1530              		.global	HAL_RTCEx_SetWakeUpTimer
 1531              		.syntax unified
 1532              		.thumb
 1533              		.thumb_func
 1535              	HAL_RTCEx_SetWakeUpTimer:
 1536              	.LFB146:
 800:Drivers/STM32F4xx_HAL_Driver/Src/stm32f4xx_hal_rtc_ex.c **** 
 801:Drivers/STM32F4xx_HAL_Driver/Src/stm32f4xx_hal_rtc_ex.c **** #if defined(RTC_TAMPER2_SUPPORT)
 802:Drivers/STM32F4xx_HAL_Driver/Src/stm32f4xx_hal_rtc_ex.c **** /**
 803:Drivers/STM32F4xx_HAL_Driver/Src/stm32f4xx_hal_rtc_ex.c ****   * @brief  Handles Tamper 2 Polling.
 804:Drivers/STM32F4xx_HAL_Driver/Src/stm32f4xx_hal_rtc_ex.c ****   * @param  hrtc pointer to a RTC_HandleTypeDef structure that contains
 805:Drivers/STM32F4xx_HAL_Driver/Src/stm32f4xx_hal_rtc_ex.c ****   *                the configuration information for RTC.
 806:Drivers/STM32F4xx_HAL_Driver/Src/stm32f4xx_hal_rtc_ex.c ****   * @param  Timeout Timeout duration
 807:Drivers/STM32F4xx_HAL_Driver/Src/stm32f4xx_hal_rtc_ex.c ****   * @retval HAL status
 808:Drivers/STM32F4xx_HAL_Driver/Src/stm32f4xx_hal_rtc_ex.c ****   */
 809:Drivers/STM32F4xx_HAL_Driver/Src/stm32f4xx_hal_rtc_ex.c **** HAL_StatusTypeDef HAL_RTCEx_PollForTamper2Event(RTC_HandleTypeDef *hrtc, uint32_t Timeout)
 810:Drivers/STM32F4xx_HAL_Driver/Src/stm32f4xx_hal_rtc_ex.c **** {
ARM GAS  C:\Users\TGSPOC~1\AppData\Local\Temp\ccVI6l15.s 			page 42


 811:Drivers/STM32F4xx_HAL_Driver/Src/stm32f4xx_hal_rtc_ex.c ****   uint32_t tickstart = 0U;
 812:Drivers/STM32F4xx_HAL_Driver/Src/stm32f4xx_hal_rtc_ex.c **** 
 813:Drivers/STM32F4xx_HAL_Driver/Src/stm32f4xx_hal_rtc_ex.c ****   /* Get tick */
 814:Drivers/STM32F4xx_HAL_Driver/Src/stm32f4xx_hal_rtc_ex.c ****   tickstart = HAL_GetTick();
 815:Drivers/STM32F4xx_HAL_Driver/Src/stm32f4xx_hal_rtc_ex.c **** 
 816:Drivers/STM32F4xx_HAL_Driver/Src/stm32f4xx_hal_rtc_ex.c ****   /* Get the status of the Interrupt */
 817:Drivers/STM32F4xx_HAL_Driver/Src/stm32f4xx_hal_rtc_ex.c ****   while (__HAL_RTC_TAMPER_GET_FLAG(hrtc, RTC_FLAG_TAMP2F) == 0U)
 818:Drivers/STM32F4xx_HAL_Driver/Src/stm32f4xx_hal_rtc_ex.c ****   {
 819:Drivers/STM32F4xx_HAL_Driver/Src/stm32f4xx_hal_rtc_ex.c ****     if (Timeout != HAL_MAX_DELAY)
 820:Drivers/STM32F4xx_HAL_Driver/Src/stm32f4xx_hal_rtc_ex.c ****     {
 821:Drivers/STM32F4xx_HAL_Driver/Src/stm32f4xx_hal_rtc_ex.c ****       if ((Timeout == 0U) || ((HAL_GetTick() - tickstart) > Timeout))
 822:Drivers/STM32F4xx_HAL_Driver/Src/stm32f4xx_hal_rtc_ex.c ****       {
 823:Drivers/STM32F4xx_HAL_Driver/Src/stm32f4xx_hal_rtc_ex.c ****         hrtc->State = HAL_RTC_STATE_TIMEOUT;
 824:Drivers/STM32F4xx_HAL_Driver/Src/stm32f4xx_hal_rtc_ex.c ****         return HAL_TIMEOUT;
 825:Drivers/STM32F4xx_HAL_Driver/Src/stm32f4xx_hal_rtc_ex.c ****       }
 826:Drivers/STM32F4xx_HAL_Driver/Src/stm32f4xx_hal_rtc_ex.c ****     }
 827:Drivers/STM32F4xx_HAL_Driver/Src/stm32f4xx_hal_rtc_ex.c ****   }
 828:Drivers/STM32F4xx_HAL_Driver/Src/stm32f4xx_hal_rtc_ex.c **** 
 829:Drivers/STM32F4xx_HAL_Driver/Src/stm32f4xx_hal_rtc_ex.c ****   /* Clear the Tamper Flag */
 830:Drivers/STM32F4xx_HAL_Driver/Src/stm32f4xx_hal_rtc_ex.c ****   __HAL_RTC_TAMPER_CLEAR_FLAG(hrtc, RTC_FLAG_TAMP2F);
 831:Drivers/STM32F4xx_HAL_Driver/Src/stm32f4xx_hal_rtc_ex.c **** 
 832:Drivers/STM32F4xx_HAL_Driver/Src/stm32f4xx_hal_rtc_ex.c ****   /* Change RTC state */
 833:Drivers/STM32F4xx_HAL_Driver/Src/stm32f4xx_hal_rtc_ex.c ****   hrtc->State = HAL_RTC_STATE_READY;
 834:Drivers/STM32F4xx_HAL_Driver/Src/stm32f4xx_hal_rtc_ex.c **** 
 835:Drivers/STM32F4xx_HAL_Driver/Src/stm32f4xx_hal_rtc_ex.c ****   return HAL_OK;
 836:Drivers/STM32F4xx_HAL_Driver/Src/stm32f4xx_hal_rtc_ex.c **** }
 837:Drivers/STM32F4xx_HAL_Driver/Src/stm32f4xx_hal_rtc_ex.c **** #endif /* RTC_TAMPER2_SUPPORT */
 838:Drivers/STM32F4xx_HAL_Driver/Src/stm32f4xx_hal_rtc_ex.c **** 
 839:Drivers/STM32F4xx_HAL_Driver/Src/stm32f4xx_hal_rtc_ex.c **** /**
 840:Drivers/STM32F4xx_HAL_Driver/Src/stm32f4xx_hal_rtc_ex.c ****   * @}
 841:Drivers/STM32F4xx_HAL_Driver/Src/stm32f4xx_hal_rtc_ex.c ****   */
 842:Drivers/STM32F4xx_HAL_Driver/Src/stm32f4xx_hal_rtc_ex.c **** 
 843:Drivers/STM32F4xx_HAL_Driver/Src/stm32f4xx_hal_rtc_ex.c **** /** @defgroup RTCEx_Exported_Functions_Group2 RTC Wakeup functions
 844:Drivers/STM32F4xx_HAL_Driver/Src/stm32f4xx_hal_rtc_ex.c ****   * @brief    RTC Wakeup functions
 845:Drivers/STM32F4xx_HAL_Driver/Src/stm32f4xx_hal_rtc_ex.c ****   *
 846:Drivers/STM32F4xx_HAL_Driver/Src/stm32f4xx_hal_rtc_ex.c **** @verbatim
 847:Drivers/STM32F4xx_HAL_Driver/Src/stm32f4xx_hal_rtc_ex.c ****  ===============================================================================
 848:Drivers/STM32F4xx_HAL_Driver/Src/stm32f4xx_hal_rtc_ex.c ****                         ##### RTC Wakeup functions #####
 849:Drivers/STM32F4xx_HAL_Driver/Src/stm32f4xx_hal_rtc_ex.c ****  ===============================================================================
 850:Drivers/STM32F4xx_HAL_Driver/Src/stm32f4xx_hal_rtc_ex.c **** 
 851:Drivers/STM32F4xx_HAL_Driver/Src/stm32f4xx_hal_rtc_ex.c ****  [..] This section provides functions allowing to configure Wakeup feature
 852:Drivers/STM32F4xx_HAL_Driver/Src/stm32f4xx_hal_rtc_ex.c **** 
 853:Drivers/STM32F4xx_HAL_Driver/Src/stm32f4xx_hal_rtc_ex.c **** @endverbatim
 854:Drivers/STM32F4xx_HAL_Driver/Src/stm32f4xx_hal_rtc_ex.c ****   * @{
 855:Drivers/STM32F4xx_HAL_Driver/Src/stm32f4xx_hal_rtc_ex.c ****   */
 856:Drivers/STM32F4xx_HAL_Driver/Src/stm32f4xx_hal_rtc_ex.c **** 
 857:Drivers/STM32F4xx_HAL_Driver/Src/stm32f4xx_hal_rtc_ex.c **** /**
 858:Drivers/STM32F4xx_HAL_Driver/Src/stm32f4xx_hal_rtc_ex.c ****   * @brief  Sets wakeup timer.
 859:Drivers/STM32F4xx_HAL_Driver/Src/stm32f4xx_hal_rtc_ex.c ****   * @param  hrtc pointer to a RTC_HandleTypeDef structure that contains
 860:Drivers/STM32F4xx_HAL_Driver/Src/stm32f4xx_hal_rtc_ex.c ****   *                the configuration information for RTC.
 861:Drivers/STM32F4xx_HAL_Driver/Src/stm32f4xx_hal_rtc_ex.c ****   * @param  WakeUpCounter Wakeup counter
 862:Drivers/STM32F4xx_HAL_Driver/Src/stm32f4xx_hal_rtc_ex.c ****   * @param  WakeUpClock Wakeup clock
 863:Drivers/STM32F4xx_HAL_Driver/Src/stm32f4xx_hal_rtc_ex.c ****   * @retval HAL status
 864:Drivers/STM32F4xx_HAL_Driver/Src/stm32f4xx_hal_rtc_ex.c ****   */
 865:Drivers/STM32F4xx_HAL_Driver/Src/stm32f4xx_hal_rtc_ex.c **** HAL_StatusTypeDef HAL_RTCEx_SetWakeUpTimer(RTC_HandleTypeDef *hrtc, uint32_t WakeUpCounter, uint32_
 866:Drivers/STM32F4xx_HAL_Driver/Src/stm32f4xx_hal_rtc_ex.c **** {
 1537              		.loc 1 866 1
ARM GAS  C:\Users\TGSPOC~1\AppData\Local\Temp\ccVI6l15.s 			page 43


 1538              		.cfi_startproc
 1539              		@ args = 0, pretend = 0, frame = 24
 1540              		@ frame_needed = 1, uses_anonymous_args = 0
 1541 0000 80B5     		push	{r7, lr}
 1542              	.LCFI68:
 1543              		.cfi_def_cfa_offset 8
 1544              		.cfi_offset 7, -8
 1545              		.cfi_offset 14, -4
 1546 0002 86B0     		sub	sp, sp, #24
 1547              	.LCFI69:
 1548              		.cfi_def_cfa_offset 32
 1549 0004 00AF     		add	r7, sp, #0
 1550              	.LCFI70:
 1551              		.cfi_def_cfa_register 7
 1552 0006 F860     		str	r0, [r7, #12]
 1553 0008 B960     		str	r1, [r7, #8]
 1554 000a 7A60     		str	r2, [r7, #4]
 867:Drivers/STM32F4xx_HAL_Driver/Src/stm32f4xx_hal_rtc_ex.c ****   uint32_t tickstart = 0U;
 1555              		.loc 1 867 12
 1556 000c 0023     		movs	r3, #0
 1557 000e 7B61     		str	r3, [r7, #20]
 868:Drivers/STM32F4xx_HAL_Driver/Src/stm32f4xx_hal_rtc_ex.c **** 
 869:Drivers/STM32F4xx_HAL_Driver/Src/stm32f4xx_hal_rtc_ex.c ****   /* Check the parameters */
 870:Drivers/STM32F4xx_HAL_Driver/Src/stm32f4xx_hal_rtc_ex.c ****   assert_param(IS_RTC_WAKEUP_CLOCK(WakeUpClock));
 871:Drivers/STM32F4xx_HAL_Driver/Src/stm32f4xx_hal_rtc_ex.c ****   assert_param(IS_RTC_WAKEUP_COUNTER(WakeUpCounter));
 872:Drivers/STM32F4xx_HAL_Driver/Src/stm32f4xx_hal_rtc_ex.c **** 
 873:Drivers/STM32F4xx_HAL_Driver/Src/stm32f4xx_hal_rtc_ex.c ****   /* Process Locked */
 874:Drivers/STM32F4xx_HAL_Driver/Src/stm32f4xx_hal_rtc_ex.c ****   __HAL_LOCK(hrtc);
 1558              		.loc 1 874 3
 1559 0010 FB68     		ldr	r3, [r7, #12]
 1560 0012 1B7F     		ldrb	r3, [r3, #28]	@ zero_extendqisi2
 1561 0014 012B     		cmp	r3, #1
 1562 0016 01D1     		bne	.L50
 1563              		.loc 1 874 3 is_stmt 0 discriminator 1
 1564 0018 0223     		movs	r3, #2
 1565              		.loc 1 874 3
 1566 001a 8AE0     		b	.L51
 1567              	.L50:
 1568              		.loc 1 874 3 discriminator 2
 1569 001c FB68     		ldr	r3, [r7, #12]
 1570 001e 0122     		movs	r2, #1
 1571 0020 1A77     		strb	r2, [r3, #28]
 875:Drivers/STM32F4xx_HAL_Driver/Src/stm32f4xx_hal_rtc_ex.c **** 
 876:Drivers/STM32F4xx_HAL_Driver/Src/stm32f4xx_hal_rtc_ex.c ****   hrtc->State = HAL_RTC_STATE_BUSY;
 1572              		.loc 1 876 15 is_stmt 1
 1573 0022 FB68     		ldr	r3, [r7, #12]
 1574 0024 0222     		movs	r2, #2
 1575 0026 5A77     		strb	r2, [r3, #29]
 877:Drivers/STM32F4xx_HAL_Driver/Src/stm32f4xx_hal_rtc_ex.c **** 
 878:Drivers/STM32F4xx_HAL_Driver/Src/stm32f4xx_hal_rtc_ex.c ****   /* Disable the write protection for RTC registers */
 879:Drivers/STM32F4xx_HAL_Driver/Src/stm32f4xx_hal_rtc_ex.c ****   __HAL_RTC_WRITEPROTECTION_DISABLE(hrtc);
 1576              		.loc 1 879 3
 1577 0028 FB68     		ldr	r3, [r7, #12]
 1578 002a 1B68     		ldr	r3, [r3]
 1579 002c CA22     		movs	r2, #202
 1580 002e 5A62     		str	r2, [r3, #36]
 1581 0030 FB68     		ldr	r3, [r7, #12]
ARM GAS  C:\Users\TGSPOC~1\AppData\Local\Temp\ccVI6l15.s 			page 44


 1582 0032 1B68     		ldr	r3, [r3]
 1583 0034 5322     		movs	r2, #83
 1584 0036 5A62     		str	r2, [r3, #36]
 880:Drivers/STM32F4xx_HAL_Driver/Src/stm32f4xx_hal_rtc_ex.c **** 
 881:Drivers/STM32F4xx_HAL_Driver/Src/stm32f4xx_hal_rtc_ex.c ****   /* Check RTC WUTWF flag is reset only when wakeup timer enabled*/
 882:Drivers/STM32F4xx_HAL_Driver/Src/stm32f4xx_hal_rtc_ex.c ****   if ((hrtc->Instance->CR & RTC_CR_WUTE) != 0U)
 1585              		.loc 1 882 12
 1586 0038 FB68     		ldr	r3, [r7, #12]
 1587 003a 1B68     		ldr	r3, [r3]
 1588              		.loc 1 882 22
 1589 003c 9B68     		ldr	r3, [r3, #8]
 1590              		.loc 1 882 27
 1591 003e 03F48063 		and	r3, r3, #1024
 1592              		.loc 1 882 6
 1593 0042 002B     		cmp	r3, #0
 1594 0044 1ED0     		beq	.L52
 883:Drivers/STM32F4xx_HAL_Driver/Src/stm32f4xx_hal_rtc_ex.c ****   {
 884:Drivers/STM32F4xx_HAL_Driver/Src/stm32f4xx_hal_rtc_ex.c ****     tickstart = HAL_GetTick();
 1595              		.loc 1 884 17
 1596 0046 FFF7FEFF 		bl	HAL_GetTick
 1597 004a 7861     		str	r0, [r7, #20]
 885:Drivers/STM32F4xx_HAL_Driver/Src/stm32f4xx_hal_rtc_ex.c **** 
 886:Drivers/STM32F4xx_HAL_Driver/Src/stm32f4xx_hal_rtc_ex.c ****     /* Wait till RTC WUTWF flag is reset and if timeout is reached exit */
 887:Drivers/STM32F4xx_HAL_Driver/Src/stm32f4xx_hal_rtc_ex.c ****     while (__HAL_RTC_WAKEUPTIMER_GET_FLAG(hrtc, RTC_FLAG_WUTWF) != 0U)
 1598              		.loc 1 887 11
 1599 004c 13E0     		b	.L53
 1600              	.L54:
 888:Drivers/STM32F4xx_HAL_Driver/Src/stm32f4xx_hal_rtc_ex.c ****     {
 889:Drivers/STM32F4xx_HAL_Driver/Src/stm32f4xx_hal_rtc_ex.c ****       if ((HAL_GetTick() - tickstart) > RTC_TIMEOUT_VALUE)
 1601              		.loc 1 889 12
 1602 004e FFF7FEFF 		bl	HAL_GetTick
 1603 0052 0246     		mov	r2, r0
 1604              		.loc 1 889 26 discriminator 1
 1605 0054 7B69     		ldr	r3, [r7, #20]
 1606 0056 D31A     		subs	r3, r2, r3
 1607              		.loc 1 889 10 discriminator 1
 1608 0058 B3F57A7F 		cmp	r3, #1000
 1609 005c 0BD9     		bls	.L53
 890:Drivers/STM32F4xx_HAL_Driver/Src/stm32f4xx_hal_rtc_ex.c ****       {
 891:Drivers/STM32F4xx_HAL_Driver/Src/stm32f4xx_hal_rtc_ex.c ****         /* Enable the write protection for RTC registers */
 892:Drivers/STM32F4xx_HAL_Driver/Src/stm32f4xx_hal_rtc_ex.c ****         __HAL_RTC_WRITEPROTECTION_ENABLE(hrtc);
 1610              		.loc 1 892 9
 1611 005e FB68     		ldr	r3, [r7, #12]
 1612 0060 1B68     		ldr	r3, [r3]
 1613 0062 FF22     		movs	r2, #255
 1614 0064 5A62     		str	r2, [r3, #36]
 893:Drivers/STM32F4xx_HAL_Driver/Src/stm32f4xx_hal_rtc_ex.c **** 
 894:Drivers/STM32F4xx_HAL_Driver/Src/stm32f4xx_hal_rtc_ex.c ****         hrtc->State = HAL_RTC_STATE_TIMEOUT;
 1615              		.loc 1 894 21
 1616 0066 FB68     		ldr	r3, [r7, #12]
 1617 0068 0322     		movs	r2, #3
 1618 006a 5A77     		strb	r2, [r3, #29]
 895:Drivers/STM32F4xx_HAL_Driver/Src/stm32f4xx_hal_rtc_ex.c **** 
 896:Drivers/STM32F4xx_HAL_Driver/Src/stm32f4xx_hal_rtc_ex.c ****         /* Process Unlocked */
 897:Drivers/STM32F4xx_HAL_Driver/Src/stm32f4xx_hal_rtc_ex.c ****         __HAL_UNLOCK(hrtc);
 1619              		.loc 1 897 9
 1620 006c FB68     		ldr	r3, [r7, #12]
ARM GAS  C:\Users\TGSPOC~1\AppData\Local\Temp\ccVI6l15.s 			page 45


 1621 006e 0022     		movs	r2, #0
 1622 0070 1A77     		strb	r2, [r3, #28]
 898:Drivers/STM32F4xx_HAL_Driver/Src/stm32f4xx_hal_rtc_ex.c **** 
 899:Drivers/STM32F4xx_HAL_Driver/Src/stm32f4xx_hal_rtc_ex.c ****         return HAL_TIMEOUT;
 1623              		.loc 1 899 16
 1624 0072 0323     		movs	r3, #3
 1625 0074 5DE0     		b	.L51
 1626              	.L53:
 887:Drivers/STM32F4xx_HAL_Driver/Src/stm32f4xx_hal_rtc_ex.c ****     {
 1627              		.loc 1 887 12
 1628 0076 FB68     		ldr	r3, [r7, #12]
 1629 0078 1B68     		ldr	r3, [r3]
 1630 007a DB68     		ldr	r3, [r3, #12]
 1631 007c 03F00403 		and	r3, r3, #4
 887:Drivers/STM32F4xx_HAL_Driver/Src/stm32f4xx_hal_rtc_ex.c ****     {
 1632              		.loc 1 887 65
 1633 0080 002B     		cmp	r3, #0
 1634 0082 E4D1     		bne	.L54
 1635              	.L52:
 900:Drivers/STM32F4xx_HAL_Driver/Src/stm32f4xx_hal_rtc_ex.c ****       }
 901:Drivers/STM32F4xx_HAL_Driver/Src/stm32f4xx_hal_rtc_ex.c ****     }
 902:Drivers/STM32F4xx_HAL_Driver/Src/stm32f4xx_hal_rtc_ex.c ****   }
 903:Drivers/STM32F4xx_HAL_Driver/Src/stm32f4xx_hal_rtc_ex.c **** 
 904:Drivers/STM32F4xx_HAL_Driver/Src/stm32f4xx_hal_rtc_ex.c ****   /* Disable the Wakeup timer */
 905:Drivers/STM32F4xx_HAL_Driver/Src/stm32f4xx_hal_rtc_ex.c ****   __HAL_RTC_WAKEUPTIMER_DISABLE(hrtc);
 1636              		.loc 1 905 3
 1637 0084 FB68     		ldr	r3, [r7, #12]
 1638 0086 1B68     		ldr	r3, [r3]
 1639 0088 9A68     		ldr	r2, [r3, #8]
 1640 008a FB68     		ldr	r3, [r7, #12]
 1641 008c 1B68     		ldr	r3, [r3]
 1642 008e 22F48062 		bic	r2, r2, #1024
 1643 0092 9A60     		str	r2, [r3, #8]
 906:Drivers/STM32F4xx_HAL_Driver/Src/stm32f4xx_hal_rtc_ex.c **** 
 907:Drivers/STM32F4xx_HAL_Driver/Src/stm32f4xx_hal_rtc_ex.c ****   /* Clear the Wakeup flag */
 908:Drivers/STM32F4xx_HAL_Driver/Src/stm32f4xx_hal_rtc_ex.c ****   __HAL_RTC_WAKEUPTIMER_CLEAR_FLAG(hrtc, RTC_FLAG_WUTF);
 1644              		.loc 1 908 3
 1645 0094 FB68     		ldr	r3, [r7, #12]
 1646 0096 1B68     		ldr	r3, [r3]
 1647 0098 DB68     		ldr	r3, [r3, #12]
 1648 009a DAB2     		uxtb	r2, r3
 1649 009c FB68     		ldr	r3, [r7, #12]
 1650 009e 1B68     		ldr	r3, [r3]
 1651 00a0 62F49062 		orn	r2, r2, #1152
 1652 00a4 DA60     		str	r2, [r3, #12]
 909:Drivers/STM32F4xx_HAL_Driver/Src/stm32f4xx_hal_rtc_ex.c **** 
 910:Drivers/STM32F4xx_HAL_Driver/Src/stm32f4xx_hal_rtc_ex.c ****   /* Get tick */
 911:Drivers/STM32F4xx_HAL_Driver/Src/stm32f4xx_hal_rtc_ex.c ****   tickstart = HAL_GetTick();
 1653              		.loc 1 911 15
 1654 00a6 FFF7FEFF 		bl	HAL_GetTick
 1655 00aa 7861     		str	r0, [r7, #20]
 912:Drivers/STM32F4xx_HAL_Driver/Src/stm32f4xx_hal_rtc_ex.c **** 
 913:Drivers/STM32F4xx_HAL_Driver/Src/stm32f4xx_hal_rtc_ex.c ****   /* Wait till RTC WUTWF flag is set and if timeout is reached exit */
 914:Drivers/STM32F4xx_HAL_Driver/Src/stm32f4xx_hal_rtc_ex.c ****   while (__HAL_RTC_WAKEUPTIMER_GET_FLAG(hrtc, RTC_FLAG_WUTWF) == 0U)
 1656              		.loc 1 914 9
 1657 00ac 13E0     		b	.L55
 1658              	.L56:
ARM GAS  C:\Users\TGSPOC~1\AppData\Local\Temp\ccVI6l15.s 			page 46


 915:Drivers/STM32F4xx_HAL_Driver/Src/stm32f4xx_hal_rtc_ex.c ****   {
 916:Drivers/STM32F4xx_HAL_Driver/Src/stm32f4xx_hal_rtc_ex.c ****     if ((HAL_GetTick() - tickstart) > RTC_TIMEOUT_VALUE)
 1659              		.loc 1 916 10
 1660 00ae FFF7FEFF 		bl	HAL_GetTick
 1661 00b2 0246     		mov	r2, r0
 1662              		.loc 1 916 24 discriminator 1
 1663 00b4 7B69     		ldr	r3, [r7, #20]
 1664 00b6 D31A     		subs	r3, r2, r3
 1665              		.loc 1 916 8 discriminator 1
 1666 00b8 B3F57A7F 		cmp	r3, #1000
 1667 00bc 0BD9     		bls	.L55
 917:Drivers/STM32F4xx_HAL_Driver/Src/stm32f4xx_hal_rtc_ex.c ****     {
 918:Drivers/STM32F4xx_HAL_Driver/Src/stm32f4xx_hal_rtc_ex.c ****       /* Enable the write protection for RTC registers */
 919:Drivers/STM32F4xx_HAL_Driver/Src/stm32f4xx_hal_rtc_ex.c ****       __HAL_RTC_WRITEPROTECTION_ENABLE(hrtc);
 1668              		.loc 1 919 7
 1669 00be FB68     		ldr	r3, [r7, #12]
 1670 00c0 1B68     		ldr	r3, [r3]
 1671 00c2 FF22     		movs	r2, #255
 1672 00c4 5A62     		str	r2, [r3, #36]
 920:Drivers/STM32F4xx_HAL_Driver/Src/stm32f4xx_hal_rtc_ex.c **** 
 921:Drivers/STM32F4xx_HAL_Driver/Src/stm32f4xx_hal_rtc_ex.c ****       hrtc->State = HAL_RTC_STATE_TIMEOUT;
 1673              		.loc 1 921 19
 1674 00c6 FB68     		ldr	r3, [r7, #12]
 1675 00c8 0322     		movs	r2, #3
 1676 00ca 5A77     		strb	r2, [r3, #29]
 922:Drivers/STM32F4xx_HAL_Driver/Src/stm32f4xx_hal_rtc_ex.c **** 
 923:Drivers/STM32F4xx_HAL_Driver/Src/stm32f4xx_hal_rtc_ex.c ****       /* Process Unlocked */
 924:Drivers/STM32F4xx_HAL_Driver/Src/stm32f4xx_hal_rtc_ex.c ****       __HAL_UNLOCK(hrtc);
 1677              		.loc 1 924 7
 1678 00cc FB68     		ldr	r3, [r7, #12]
 1679 00ce 0022     		movs	r2, #0
 1680 00d0 1A77     		strb	r2, [r3, #28]
 925:Drivers/STM32F4xx_HAL_Driver/Src/stm32f4xx_hal_rtc_ex.c **** 
 926:Drivers/STM32F4xx_HAL_Driver/Src/stm32f4xx_hal_rtc_ex.c ****       return HAL_TIMEOUT;
 1681              		.loc 1 926 14
 1682 00d2 0323     		movs	r3, #3
 1683 00d4 2DE0     		b	.L51
 1684              	.L55:
 914:Drivers/STM32F4xx_HAL_Driver/Src/stm32f4xx_hal_rtc_ex.c ****   {
 1685              		.loc 1 914 10
 1686 00d6 FB68     		ldr	r3, [r7, #12]
 1687 00d8 1B68     		ldr	r3, [r3]
 1688 00da DB68     		ldr	r3, [r3, #12]
 1689 00dc 03F00403 		and	r3, r3, #4
 914:Drivers/STM32F4xx_HAL_Driver/Src/stm32f4xx_hal_rtc_ex.c ****   {
 1690              		.loc 1 914 63
 1691 00e0 002B     		cmp	r3, #0
 1692 00e2 E4D0     		beq	.L56
 927:Drivers/STM32F4xx_HAL_Driver/Src/stm32f4xx_hal_rtc_ex.c ****     }
 928:Drivers/STM32F4xx_HAL_Driver/Src/stm32f4xx_hal_rtc_ex.c ****   }
 929:Drivers/STM32F4xx_HAL_Driver/Src/stm32f4xx_hal_rtc_ex.c **** 
 930:Drivers/STM32F4xx_HAL_Driver/Src/stm32f4xx_hal_rtc_ex.c ****   /* Clear the Wakeup Timer clock source bits in CR register */
 931:Drivers/STM32F4xx_HAL_Driver/Src/stm32f4xx_hal_rtc_ex.c ****   hrtc->Instance->CR &= (uint32_t)~RTC_CR_WUCKSEL;
 1693              		.loc 1 931 7
 1694 00e4 FB68     		ldr	r3, [r7, #12]
 1695 00e6 1B68     		ldr	r3, [r3]
 1696              		.loc 1 931 17
ARM GAS  C:\Users\TGSPOC~1\AppData\Local\Temp\ccVI6l15.s 			page 47


 1697 00e8 9A68     		ldr	r2, [r3, #8]
 1698              		.loc 1 931 7
 1699 00ea FB68     		ldr	r3, [r7, #12]
 1700 00ec 1B68     		ldr	r3, [r3]
 1701              		.loc 1 931 22
 1702 00ee 22F00702 		bic	r2, r2, #7
 1703 00f2 9A60     		str	r2, [r3, #8]
 932:Drivers/STM32F4xx_HAL_Driver/Src/stm32f4xx_hal_rtc_ex.c **** 
 933:Drivers/STM32F4xx_HAL_Driver/Src/stm32f4xx_hal_rtc_ex.c ****   /* Configure the clock source */
 934:Drivers/STM32F4xx_HAL_Driver/Src/stm32f4xx_hal_rtc_ex.c ****   hrtc->Instance->CR |= (uint32_t)WakeUpClock;
 1704              		.loc 1 934 7
 1705 00f4 FB68     		ldr	r3, [r7, #12]
 1706 00f6 1B68     		ldr	r3, [r3]
 1707              		.loc 1 934 17
 1708 00f8 9968     		ldr	r1, [r3, #8]
 1709              		.loc 1 934 7
 1710 00fa FB68     		ldr	r3, [r7, #12]
 1711 00fc 1B68     		ldr	r3, [r3]
 1712              		.loc 1 934 22
 1713 00fe 7A68     		ldr	r2, [r7, #4]
 1714 0100 0A43     		orrs	r2, r2, r1
 1715 0102 9A60     		str	r2, [r3, #8]
 935:Drivers/STM32F4xx_HAL_Driver/Src/stm32f4xx_hal_rtc_ex.c **** 
 936:Drivers/STM32F4xx_HAL_Driver/Src/stm32f4xx_hal_rtc_ex.c ****   /* Configure the Wakeup Timer counter */
 937:Drivers/STM32F4xx_HAL_Driver/Src/stm32f4xx_hal_rtc_ex.c ****   hrtc->Instance->WUTR = (uint32_t)WakeUpCounter;
 1716              		.loc 1 937 7
 1717 0104 FB68     		ldr	r3, [r7, #12]
 1718 0106 1B68     		ldr	r3, [r3]
 1719              		.loc 1 937 24
 1720 0108 BA68     		ldr	r2, [r7, #8]
 1721 010a 5A61     		str	r2, [r3, #20]
 938:Drivers/STM32F4xx_HAL_Driver/Src/stm32f4xx_hal_rtc_ex.c **** 
 939:Drivers/STM32F4xx_HAL_Driver/Src/stm32f4xx_hal_rtc_ex.c ****   /* Enable the Wakeup Timer */
 940:Drivers/STM32F4xx_HAL_Driver/Src/stm32f4xx_hal_rtc_ex.c ****   __HAL_RTC_WAKEUPTIMER_ENABLE(hrtc);
 1722              		.loc 1 940 3
 1723 010c FB68     		ldr	r3, [r7, #12]
 1724 010e 1B68     		ldr	r3, [r3]
 1725 0110 9A68     		ldr	r2, [r3, #8]
 1726 0112 FB68     		ldr	r3, [r7, #12]
 1727 0114 1B68     		ldr	r3, [r3]
 1728 0116 42F48062 		orr	r2, r2, #1024
 1729 011a 9A60     		str	r2, [r3, #8]
 941:Drivers/STM32F4xx_HAL_Driver/Src/stm32f4xx_hal_rtc_ex.c **** 
 942:Drivers/STM32F4xx_HAL_Driver/Src/stm32f4xx_hal_rtc_ex.c ****   /* Enable the write protection for RTC registers */
 943:Drivers/STM32F4xx_HAL_Driver/Src/stm32f4xx_hal_rtc_ex.c ****   __HAL_RTC_WRITEPROTECTION_ENABLE(hrtc);
 1730              		.loc 1 943 3
 1731 011c FB68     		ldr	r3, [r7, #12]
 1732 011e 1B68     		ldr	r3, [r3]
 1733 0120 FF22     		movs	r2, #255
 1734 0122 5A62     		str	r2, [r3, #36]
 944:Drivers/STM32F4xx_HAL_Driver/Src/stm32f4xx_hal_rtc_ex.c **** 
 945:Drivers/STM32F4xx_HAL_Driver/Src/stm32f4xx_hal_rtc_ex.c ****   hrtc->State = HAL_RTC_STATE_READY;
 1735              		.loc 1 945 15
 1736 0124 FB68     		ldr	r3, [r7, #12]
 1737 0126 0122     		movs	r2, #1
 1738 0128 5A77     		strb	r2, [r3, #29]
 946:Drivers/STM32F4xx_HAL_Driver/Src/stm32f4xx_hal_rtc_ex.c **** 
ARM GAS  C:\Users\TGSPOC~1\AppData\Local\Temp\ccVI6l15.s 			page 48


 947:Drivers/STM32F4xx_HAL_Driver/Src/stm32f4xx_hal_rtc_ex.c ****   /* Process Unlocked */
 948:Drivers/STM32F4xx_HAL_Driver/Src/stm32f4xx_hal_rtc_ex.c ****   __HAL_UNLOCK(hrtc);
 1739              		.loc 1 948 3
 1740 012a FB68     		ldr	r3, [r7, #12]
 1741 012c 0022     		movs	r2, #0
 1742 012e 1A77     		strb	r2, [r3, #28]
 949:Drivers/STM32F4xx_HAL_Driver/Src/stm32f4xx_hal_rtc_ex.c **** 
 950:Drivers/STM32F4xx_HAL_Driver/Src/stm32f4xx_hal_rtc_ex.c ****   return HAL_OK;
 1743              		.loc 1 950 10
 1744 0130 0023     		movs	r3, #0
 1745              	.L51:
 951:Drivers/STM32F4xx_HAL_Driver/Src/stm32f4xx_hal_rtc_ex.c **** }
 1746              		.loc 1 951 1
 1747 0132 1846     		mov	r0, r3
 1748 0134 1837     		adds	r7, r7, #24
 1749              	.LCFI71:
 1750              		.cfi_def_cfa_offset 8
 1751 0136 BD46     		mov	sp, r7
 1752              	.LCFI72:
 1753              		.cfi_def_cfa_register 13
 1754              		@ sp needed
 1755 0138 80BD     		pop	{r7, pc}
 1756              		.cfi_endproc
 1757              	.LFE146:
 1759              		.section	.text.HAL_RTCEx_SetWakeUpTimer_IT,"ax",%progbits
 1760              		.align	1
 1761              		.global	HAL_RTCEx_SetWakeUpTimer_IT
 1762              		.syntax unified
 1763              		.thumb
 1764              		.thumb_func
 1766              	HAL_RTCEx_SetWakeUpTimer_IT:
 1767              	.LFB147:
 952:Drivers/STM32F4xx_HAL_Driver/Src/stm32f4xx_hal_rtc_ex.c **** 
 953:Drivers/STM32F4xx_HAL_Driver/Src/stm32f4xx_hal_rtc_ex.c **** /**
 954:Drivers/STM32F4xx_HAL_Driver/Src/stm32f4xx_hal_rtc_ex.c ****   * @brief  Sets wakeup timer with interrupt.
 955:Drivers/STM32F4xx_HAL_Driver/Src/stm32f4xx_hal_rtc_ex.c ****   * @param  hrtc pointer to a RTC_HandleTypeDef structure that contains
 956:Drivers/STM32F4xx_HAL_Driver/Src/stm32f4xx_hal_rtc_ex.c ****   *                the configuration information for RTC.
 957:Drivers/STM32F4xx_HAL_Driver/Src/stm32f4xx_hal_rtc_ex.c ****   * @param  WakeUpCounter Wakeup counter
 958:Drivers/STM32F4xx_HAL_Driver/Src/stm32f4xx_hal_rtc_ex.c ****   * @param  WakeUpClock Wakeup clock
 959:Drivers/STM32F4xx_HAL_Driver/Src/stm32f4xx_hal_rtc_ex.c ****   * @retval HAL status
 960:Drivers/STM32F4xx_HAL_Driver/Src/stm32f4xx_hal_rtc_ex.c ****   */
 961:Drivers/STM32F4xx_HAL_Driver/Src/stm32f4xx_hal_rtc_ex.c **** HAL_StatusTypeDef HAL_RTCEx_SetWakeUpTimer_IT(RTC_HandleTypeDef *hrtc, uint32_t WakeUpCounter, uint
 962:Drivers/STM32F4xx_HAL_Driver/Src/stm32f4xx_hal_rtc_ex.c **** {
 1768              		.loc 1 962 1
 1769              		.cfi_startproc
 1770              		@ args = 0, pretend = 0, frame = 24
 1771              		@ frame_needed = 1, uses_anonymous_args = 0
 1772              		@ link register save eliminated.
 1773 0000 80B4     		push	{r7}
 1774              	.LCFI73:
 1775              		.cfi_def_cfa_offset 4
 1776              		.cfi_offset 7, -4
 1777 0002 87B0     		sub	sp, sp, #28
 1778              	.LCFI74:
 1779              		.cfi_def_cfa_offset 32
 1780 0004 00AF     		add	r7, sp, #0
 1781              	.LCFI75:
ARM GAS  C:\Users\TGSPOC~1\AppData\Local\Temp\ccVI6l15.s 			page 49


 1782              		.cfi_def_cfa_register 7
 1783 0006 F860     		str	r0, [r7, #12]
 1784 0008 B960     		str	r1, [r7, #8]
 1785 000a 7A60     		str	r2, [r7, #4]
 963:Drivers/STM32F4xx_HAL_Driver/Src/stm32f4xx_hal_rtc_ex.c ****   __IO uint32_t count  = RTC_TIMEOUT_VALUE * (SystemCoreClock / 32U / 1000U);
 1786              		.loc 1 963 69
 1787 000c 5A4B     		ldr	r3, .L65
 1788 000e 1B68     		ldr	r3, [r3]
 1789 0010 5A4A     		ldr	r2, .L65+4
 1790 0012 A2FB0323 		umull	r2, r3, r2, r3
 1791 0016 DB0A     		lsrs	r3, r3, #11
 1792              		.loc 1 963 44
 1793 0018 4FF47A72 		mov	r2, #1000
 1794 001c 02FB03F3 		mul	r3, r2, r3
 1795              		.loc 1 963 17
 1796 0020 7B61     		str	r3, [r7, #20]
 964:Drivers/STM32F4xx_HAL_Driver/Src/stm32f4xx_hal_rtc_ex.c **** 
 965:Drivers/STM32F4xx_HAL_Driver/Src/stm32f4xx_hal_rtc_ex.c ****   /* Check the parameters */
 966:Drivers/STM32F4xx_HAL_Driver/Src/stm32f4xx_hal_rtc_ex.c ****   assert_param(IS_RTC_WAKEUP_CLOCK(WakeUpClock));
 967:Drivers/STM32F4xx_HAL_Driver/Src/stm32f4xx_hal_rtc_ex.c ****   assert_param(IS_RTC_WAKEUP_COUNTER(WakeUpCounter));
 968:Drivers/STM32F4xx_HAL_Driver/Src/stm32f4xx_hal_rtc_ex.c **** 
 969:Drivers/STM32F4xx_HAL_Driver/Src/stm32f4xx_hal_rtc_ex.c ****   /* Process Locked */
 970:Drivers/STM32F4xx_HAL_Driver/Src/stm32f4xx_hal_rtc_ex.c ****   __HAL_LOCK(hrtc);
 1797              		.loc 1 970 3
 1798 0022 FB68     		ldr	r3, [r7, #12]
 1799 0024 1B7F     		ldrb	r3, [r3, #28]	@ zero_extendqisi2
 1800 0026 012B     		cmp	r3, #1
 1801 0028 01D1     		bne	.L58
 1802              		.loc 1 970 3 is_stmt 0 discriminator 1
 1803 002a 0223     		movs	r3, #2
 1804              		.loc 1 970 3
 1805 002c 9DE0     		b	.L59
 1806              	.L58:
 1807              		.loc 1 970 3 discriminator 2
 1808 002e FB68     		ldr	r3, [r7, #12]
 1809 0030 0122     		movs	r2, #1
 1810 0032 1A77     		strb	r2, [r3, #28]
 971:Drivers/STM32F4xx_HAL_Driver/Src/stm32f4xx_hal_rtc_ex.c **** 
 972:Drivers/STM32F4xx_HAL_Driver/Src/stm32f4xx_hal_rtc_ex.c ****   hrtc->State = HAL_RTC_STATE_BUSY;
 1811              		.loc 1 972 15 is_stmt 1
 1812 0034 FB68     		ldr	r3, [r7, #12]
 1813 0036 0222     		movs	r2, #2
 1814 0038 5A77     		strb	r2, [r3, #29]
 973:Drivers/STM32F4xx_HAL_Driver/Src/stm32f4xx_hal_rtc_ex.c **** 
 974:Drivers/STM32F4xx_HAL_Driver/Src/stm32f4xx_hal_rtc_ex.c ****   /* Disable the write protection for RTC registers */
 975:Drivers/STM32F4xx_HAL_Driver/Src/stm32f4xx_hal_rtc_ex.c ****   __HAL_RTC_WRITEPROTECTION_DISABLE(hrtc);
 1815              		.loc 1 975 3
 1816 003a FB68     		ldr	r3, [r7, #12]
 1817 003c 1B68     		ldr	r3, [r3]
 1818 003e CA22     		movs	r2, #202
 1819 0040 5A62     		str	r2, [r3, #36]
 1820 0042 FB68     		ldr	r3, [r7, #12]
 1821 0044 1B68     		ldr	r3, [r3]
 1822 0046 5322     		movs	r2, #83
 1823 0048 5A62     		str	r2, [r3, #36]
 976:Drivers/STM32F4xx_HAL_Driver/Src/stm32f4xx_hal_rtc_ex.c **** 
 977:Drivers/STM32F4xx_HAL_Driver/Src/stm32f4xx_hal_rtc_ex.c ****   /* Check RTC WUTWF flag is reset only when wakeup timer enabled */
ARM GAS  C:\Users\TGSPOC~1\AppData\Local\Temp\ccVI6l15.s 			page 50


 978:Drivers/STM32F4xx_HAL_Driver/Src/stm32f4xx_hal_rtc_ex.c ****   if ((hrtc->Instance->CR & RTC_CR_WUTE) != 0U)
 1824              		.loc 1 978 12
 1825 004a FB68     		ldr	r3, [r7, #12]
 1826 004c 1B68     		ldr	r3, [r3]
 1827              		.loc 1 978 22
 1828 004e 9B68     		ldr	r3, [r3, #8]
 1829              		.loc 1 978 27
 1830 0050 03F48063 		and	r3, r3, #1024
 1831              		.loc 1 978 6
 1832 0054 002B     		cmp	r3, #0
 1833 0056 18D0     		beq	.L60
 1834              	.L62:
 979:Drivers/STM32F4xx_HAL_Driver/Src/stm32f4xx_hal_rtc_ex.c ****   {
 980:Drivers/STM32F4xx_HAL_Driver/Src/stm32f4xx_hal_rtc_ex.c ****     /* Wait till RTC WUTWF flag is reset and if timeout is reached exit */
 981:Drivers/STM32F4xx_HAL_Driver/Src/stm32f4xx_hal_rtc_ex.c ****     do
 982:Drivers/STM32F4xx_HAL_Driver/Src/stm32f4xx_hal_rtc_ex.c ****     {
 983:Drivers/STM32F4xx_HAL_Driver/Src/stm32f4xx_hal_rtc_ex.c ****       count = count - 1U;
 1835              		.loc 1 983 21
 1836 0058 7B69     		ldr	r3, [r7, #20]
 1837 005a 013B     		subs	r3, r3, #1
 1838              		.loc 1 983 13
 1839 005c 7B61     		str	r3, [r7, #20]
 984:Drivers/STM32F4xx_HAL_Driver/Src/stm32f4xx_hal_rtc_ex.c ****       if (count == 0U)
 1840              		.loc 1 984 17
 1841 005e 7B69     		ldr	r3, [r7, #20]
 1842              		.loc 1 984 10
 1843 0060 002B     		cmp	r3, #0
 1844 0062 0BD1     		bne	.L61
 985:Drivers/STM32F4xx_HAL_Driver/Src/stm32f4xx_hal_rtc_ex.c ****       {
 986:Drivers/STM32F4xx_HAL_Driver/Src/stm32f4xx_hal_rtc_ex.c ****         /* Enable the write protection for RTC registers */
 987:Drivers/STM32F4xx_HAL_Driver/Src/stm32f4xx_hal_rtc_ex.c ****         __HAL_RTC_WRITEPROTECTION_ENABLE(hrtc);
 1845              		.loc 1 987 9
 1846 0064 FB68     		ldr	r3, [r7, #12]
 1847 0066 1B68     		ldr	r3, [r3]
 1848 0068 FF22     		movs	r2, #255
 1849 006a 5A62     		str	r2, [r3, #36]
 988:Drivers/STM32F4xx_HAL_Driver/Src/stm32f4xx_hal_rtc_ex.c **** 
 989:Drivers/STM32F4xx_HAL_Driver/Src/stm32f4xx_hal_rtc_ex.c ****         hrtc->State = HAL_RTC_STATE_TIMEOUT;
 1850              		.loc 1 989 21
 1851 006c FB68     		ldr	r3, [r7, #12]
 1852 006e 0322     		movs	r2, #3
 1853 0070 5A77     		strb	r2, [r3, #29]
 990:Drivers/STM32F4xx_HAL_Driver/Src/stm32f4xx_hal_rtc_ex.c **** 
 991:Drivers/STM32F4xx_HAL_Driver/Src/stm32f4xx_hal_rtc_ex.c ****         /* Process Unlocked */
 992:Drivers/STM32F4xx_HAL_Driver/Src/stm32f4xx_hal_rtc_ex.c ****         __HAL_UNLOCK(hrtc);
 1854              		.loc 1 992 9
 1855 0072 FB68     		ldr	r3, [r7, #12]
 1856 0074 0022     		movs	r2, #0
 1857 0076 1A77     		strb	r2, [r3, #28]
 993:Drivers/STM32F4xx_HAL_Driver/Src/stm32f4xx_hal_rtc_ex.c **** 
 994:Drivers/STM32F4xx_HAL_Driver/Src/stm32f4xx_hal_rtc_ex.c ****         return HAL_TIMEOUT;
 1858              		.loc 1 994 16
 1859 0078 0323     		movs	r3, #3
 1860 007a 76E0     		b	.L59
 1861              	.L61:
 995:Drivers/STM32F4xx_HAL_Driver/Src/stm32f4xx_hal_rtc_ex.c ****       }
 996:Drivers/STM32F4xx_HAL_Driver/Src/stm32f4xx_hal_rtc_ex.c ****     } while (__HAL_RTC_WAKEUPTIMER_GET_FLAG(hrtc, RTC_FLAG_WUTWF) != 0U);
ARM GAS  C:\Users\TGSPOC~1\AppData\Local\Temp\ccVI6l15.s 			page 51


 1862              		.loc 1 996 14
 1863 007c FB68     		ldr	r3, [r7, #12]
 1864 007e 1B68     		ldr	r3, [r3]
 1865 0080 DB68     		ldr	r3, [r3, #12]
 1866 0082 03F00403 		and	r3, r3, #4
 1867              		.loc 1 996 67
 1868 0086 002B     		cmp	r3, #0
 1869 0088 E6D1     		bne	.L62
 1870              	.L60:
 997:Drivers/STM32F4xx_HAL_Driver/Src/stm32f4xx_hal_rtc_ex.c ****   }
 998:Drivers/STM32F4xx_HAL_Driver/Src/stm32f4xx_hal_rtc_ex.c **** 
 999:Drivers/STM32F4xx_HAL_Driver/Src/stm32f4xx_hal_rtc_ex.c ****   /* Disable the Wakeup timer */
1000:Drivers/STM32F4xx_HAL_Driver/Src/stm32f4xx_hal_rtc_ex.c ****   __HAL_RTC_WAKEUPTIMER_DISABLE(hrtc);
 1871              		.loc 1 1000 3
 1872 008a FB68     		ldr	r3, [r7, #12]
 1873 008c 1B68     		ldr	r3, [r3]
 1874 008e 9A68     		ldr	r2, [r3, #8]
 1875 0090 FB68     		ldr	r3, [r7, #12]
 1876 0092 1B68     		ldr	r3, [r3]
 1877 0094 22F48062 		bic	r2, r2, #1024
 1878 0098 9A60     		str	r2, [r3, #8]
1001:Drivers/STM32F4xx_HAL_Driver/Src/stm32f4xx_hal_rtc_ex.c **** 
1002:Drivers/STM32F4xx_HAL_Driver/Src/stm32f4xx_hal_rtc_ex.c ****   /* Clear the Wakeup flag */
1003:Drivers/STM32F4xx_HAL_Driver/Src/stm32f4xx_hal_rtc_ex.c ****   __HAL_RTC_WAKEUPTIMER_CLEAR_FLAG(hrtc, RTC_FLAG_WUTF);
 1879              		.loc 1 1003 3
 1880 009a FB68     		ldr	r3, [r7, #12]
 1881 009c 1B68     		ldr	r3, [r3]
 1882 009e DB68     		ldr	r3, [r3, #12]
 1883 00a0 DAB2     		uxtb	r2, r3
 1884 00a2 FB68     		ldr	r3, [r7, #12]
 1885 00a4 1B68     		ldr	r3, [r3]
 1886 00a6 62F49062 		orn	r2, r2, #1152
 1887 00aa DA60     		str	r2, [r3, #12]
1004:Drivers/STM32F4xx_HAL_Driver/Src/stm32f4xx_hal_rtc_ex.c **** 
1005:Drivers/STM32F4xx_HAL_Driver/Src/stm32f4xx_hal_rtc_ex.c ****   /* Reload the counter */
1006:Drivers/STM32F4xx_HAL_Driver/Src/stm32f4xx_hal_rtc_ex.c ****   count = RTC_TIMEOUT_VALUE * (SystemCoreClock / 32U / 1000U);
 1888              		.loc 1 1006 54
 1889 00ac 324B     		ldr	r3, .L65
 1890 00ae 1B68     		ldr	r3, [r3]
 1891 00b0 324A     		ldr	r2, .L65+4
 1892 00b2 A2FB0323 		umull	r2, r3, r2, r3
 1893 00b6 DB0A     		lsrs	r3, r3, #11
 1894              		.loc 1 1006 29
 1895 00b8 4FF47A72 		mov	r2, #1000
 1896 00bc 02FB03F3 		mul	r3, r2, r3
 1897              		.loc 1 1006 9
 1898 00c0 7B61     		str	r3, [r7, #20]
 1899              	.L64:
1007:Drivers/STM32F4xx_HAL_Driver/Src/stm32f4xx_hal_rtc_ex.c **** 
1008:Drivers/STM32F4xx_HAL_Driver/Src/stm32f4xx_hal_rtc_ex.c ****   /* Wait till RTC WUTWF flag is set and if timeout is reached exit */
1009:Drivers/STM32F4xx_HAL_Driver/Src/stm32f4xx_hal_rtc_ex.c ****   do
1010:Drivers/STM32F4xx_HAL_Driver/Src/stm32f4xx_hal_rtc_ex.c ****   {
1011:Drivers/STM32F4xx_HAL_Driver/Src/stm32f4xx_hal_rtc_ex.c ****     count = count - 1U;
 1900              		.loc 1 1011 19
 1901 00c2 7B69     		ldr	r3, [r7, #20]
 1902 00c4 013B     		subs	r3, r3, #1
 1903              		.loc 1 1011 11
ARM GAS  C:\Users\TGSPOC~1\AppData\Local\Temp\ccVI6l15.s 			page 52


 1904 00c6 7B61     		str	r3, [r7, #20]
1012:Drivers/STM32F4xx_HAL_Driver/Src/stm32f4xx_hal_rtc_ex.c ****     if (count == 0U)
 1905              		.loc 1 1012 15
 1906 00c8 7B69     		ldr	r3, [r7, #20]
 1907              		.loc 1 1012 8
 1908 00ca 002B     		cmp	r3, #0
 1909 00cc 0BD1     		bne	.L63
1013:Drivers/STM32F4xx_HAL_Driver/Src/stm32f4xx_hal_rtc_ex.c ****     {
1014:Drivers/STM32F4xx_HAL_Driver/Src/stm32f4xx_hal_rtc_ex.c ****       /* Enable the write protection for RTC registers */
1015:Drivers/STM32F4xx_HAL_Driver/Src/stm32f4xx_hal_rtc_ex.c ****       __HAL_RTC_WRITEPROTECTION_ENABLE(hrtc);
 1910              		.loc 1 1015 7
 1911 00ce FB68     		ldr	r3, [r7, #12]
 1912 00d0 1B68     		ldr	r3, [r3]
 1913 00d2 FF22     		movs	r2, #255
 1914 00d4 5A62     		str	r2, [r3, #36]
1016:Drivers/STM32F4xx_HAL_Driver/Src/stm32f4xx_hal_rtc_ex.c **** 
1017:Drivers/STM32F4xx_HAL_Driver/Src/stm32f4xx_hal_rtc_ex.c ****       hrtc->State = HAL_RTC_STATE_TIMEOUT;
 1915              		.loc 1 1017 19
 1916 00d6 FB68     		ldr	r3, [r7, #12]
 1917 00d8 0322     		movs	r2, #3
 1918 00da 5A77     		strb	r2, [r3, #29]
1018:Drivers/STM32F4xx_HAL_Driver/Src/stm32f4xx_hal_rtc_ex.c **** 
1019:Drivers/STM32F4xx_HAL_Driver/Src/stm32f4xx_hal_rtc_ex.c ****       /* Process Unlocked */
1020:Drivers/STM32F4xx_HAL_Driver/Src/stm32f4xx_hal_rtc_ex.c ****       __HAL_UNLOCK(hrtc);
 1919              		.loc 1 1020 7
 1920 00dc FB68     		ldr	r3, [r7, #12]
 1921 00de 0022     		movs	r2, #0
 1922 00e0 1A77     		strb	r2, [r3, #28]
1021:Drivers/STM32F4xx_HAL_Driver/Src/stm32f4xx_hal_rtc_ex.c **** 
1022:Drivers/STM32F4xx_HAL_Driver/Src/stm32f4xx_hal_rtc_ex.c ****       return HAL_TIMEOUT;
 1923              		.loc 1 1022 14
 1924 00e2 0323     		movs	r3, #3
 1925 00e4 41E0     		b	.L59
 1926              	.L63:
1023:Drivers/STM32F4xx_HAL_Driver/Src/stm32f4xx_hal_rtc_ex.c ****     }
1024:Drivers/STM32F4xx_HAL_Driver/Src/stm32f4xx_hal_rtc_ex.c ****   } while (__HAL_RTC_WAKEUPTIMER_GET_FLAG(hrtc, RTC_FLAG_WUTWF) == 0U);
 1927              		.loc 1 1024 12
 1928 00e6 FB68     		ldr	r3, [r7, #12]
 1929 00e8 1B68     		ldr	r3, [r3]
 1930 00ea DB68     		ldr	r3, [r3, #12]
 1931 00ec 03F00403 		and	r3, r3, #4
 1932              		.loc 1 1024 65
 1933 00f0 002B     		cmp	r3, #0
 1934 00f2 E6D0     		beq	.L64
1025:Drivers/STM32F4xx_HAL_Driver/Src/stm32f4xx_hal_rtc_ex.c **** 
1026:Drivers/STM32F4xx_HAL_Driver/Src/stm32f4xx_hal_rtc_ex.c ****   /* Clear the Wakeup Timer clock source bits in CR register */
1027:Drivers/STM32F4xx_HAL_Driver/Src/stm32f4xx_hal_rtc_ex.c ****   hrtc->Instance->CR &= (uint32_t)~RTC_CR_WUCKSEL;
 1935              		.loc 1 1027 7
 1936 00f4 FB68     		ldr	r3, [r7, #12]
 1937 00f6 1B68     		ldr	r3, [r3]
 1938              		.loc 1 1027 17
 1939 00f8 9A68     		ldr	r2, [r3, #8]
 1940              		.loc 1 1027 7
 1941 00fa FB68     		ldr	r3, [r7, #12]
 1942 00fc 1B68     		ldr	r3, [r3]
 1943              		.loc 1 1027 22
 1944 00fe 22F00702 		bic	r2, r2, #7
ARM GAS  C:\Users\TGSPOC~1\AppData\Local\Temp\ccVI6l15.s 			page 53


 1945 0102 9A60     		str	r2, [r3, #8]
1028:Drivers/STM32F4xx_HAL_Driver/Src/stm32f4xx_hal_rtc_ex.c **** 
1029:Drivers/STM32F4xx_HAL_Driver/Src/stm32f4xx_hal_rtc_ex.c ****   /* Configure the clock source */
1030:Drivers/STM32F4xx_HAL_Driver/Src/stm32f4xx_hal_rtc_ex.c ****   hrtc->Instance->CR |= (uint32_t)WakeUpClock;
 1946              		.loc 1 1030 7
 1947 0104 FB68     		ldr	r3, [r7, #12]
 1948 0106 1B68     		ldr	r3, [r3]
 1949              		.loc 1 1030 17
 1950 0108 9968     		ldr	r1, [r3, #8]
 1951              		.loc 1 1030 7
 1952 010a FB68     		ldr	r3, [r7, #12]
 1953 010c 1B68     		ldr	r3, [r3]
 1954              		.loc 1 1030 22
 1955 010e 7A68     		ldr	r2, [r7, #4]
 1956 0110 0A43     		orrs	r2, r2, r1
 1957 0112 9A60     		str	r2, [r3, #8]
1031:Drivers/STM32F4xx_HAL_Driver/Src/stm32f4xx_hal_rtc_ex.c **** 
1032:Drivers/STM32F4xx_HAL_Driver/Src/stm32f4xx_hal_rtc_ex.c ****   /* Configure the Wakeup Timer counter */
1033:Drivers/STM32F4xx_HAL_Driver/Src/stm32f4xx_hal_rtc_ex.c ****   hrtc->Instance->WUTR = (uint32_t)WakeUpCounter;
 1958              		.loc 1 1033 7
 1959 0114 FB68     		ldr	r3, [r7, #12]
 1960 0116 1B68     		ldr	r3, [r3]
 1961              		.loc 1 1033 24
 1962 0118 BA68     		ldr	r2, [r7, #8]
 1963 011a 5A61     		str	r2, [r3, #20]
1034:Drivers/STM32F4xx_HAL_Driver/Src/stm32f4xx_hal_rtc_ex.c **** 
1035:Drivers/STM32F4xx_HAL_Driver/Src/stm32f4xx_hal_rtc_ex.c ****   /* RTC wakeup timer Interrupt Configuration: EXTI configuration */
1036:Drivers/STM32F4xx_HAL_Driver/Src/stm32f4xx_hal_rtc_ex.c ****   __HAL_RTC_WAKEUPTIMER_EXTI_ENABLE_IT();
 1964              		.loc 1 1036 3
 1965 011c 184B     		ldr	r3, .L65+8
 1966 011e 1B68     		ldr	r3, [r3]
 1967 0120 174A     		ldr	r2, .L65+8
 1968 0122 43F48003 		orr	r3, r3, #4194304
 1969 0126 1360     		str	r3, [r2]
1037:Drivers/STM32F4xx_HAL_Driver/Src/stm32f4xx_hal_rtc_ex.c ****   __HAL_RTC_WAKEUPTIMER_EXTI_ENABLE_RISING_EDGE();
 1970              		.loc 1 1037 3
 1971 0128 154B     		ldr	r3, .L65+8
 1972 012a 9B68     		ldr	r3, [r3, #8]
 1973 012c 144A     		ldr	r2, .L65+8
 1974 012e 43F48003 		orr	r3, r3, #4194304
 1975 0132 9360     		str	r3, [r2, #8]
1038:Drivers/STM32F4xx_HAL_Driver/Src/stm32f4xx_hal_rtc_ex.c **** 
1039:Drivers/STM32F4xx_HAL_Driver/Src/stm32f4xx_hal_rtc_ex.c ****   /* Configure the interrupt in the RTC_CR register */
1040:Drivers/STM32F4xx_HAL_Driver/Src/stm32f4xx_hal_rtc_ex.c ****   __HAL_RTC_WAKEUPTIMER_ENABLE_IT(hrtc, RTC_IT_WUT);
 1976              		.loc 1 1040 3
 1977 0134 FB68     		ldr	r3, [r7, #12]
 1978 0136 1B68     		ldr	r3, [r3]
 1979 0138 9A68     		ldr	r2, [r3, #8]
 1980 013a FB68     		ldr	r3, [r7, #12]
 1981 013c 1B68     		ldr	r3, [r3]
 1982 013e 42F48042 		orr	r2, r2, #16384
 1983 0142 9A60     		str	r2, [r3, #8]
1041:Drivers/STM32F4xx_HAL_Driver/Src/stm32f4xx_hal_rtc_ex.c **** 
1042:Drivers/STM32F4xx_HAL_Driver/Src/stm32f4xx_hal_rtc_ex.c ****   /* Enable the Wakeup Timer */
1043:Drivers/STM32F4xx_HAL_Driver/Src/stm32f4xx_hal_rtc_ex.c ****   __HAL_RTC_WAKEUPTIMER_ENABLE(hrtc);
 1984              		.loc 1 1043 3
 1985 0144 FB68     		ldr	r3, [r7, #12]
ARM GAS  C:\Users\TGSPOC~1\AppData\Local\Temp\ccVI6l15.s 			page 54


 1986 0146 1B68     		ldr	r3, [r3]
 1987 0148 9A68     		ldr	r2, [r3, #8]
 1988 014a FB68     		ldr	r3, [r7, #12]
 1989 014c 1B68     		ldr	r3, [r3]
 1990 014e 42F48062 		orr	r2, r2, #1024
 1991 0152 9A60     		str	r2, [r3, #8]
1044:Drivers/STM32F4xx_HAL_Driver/Src/stm32f4xx_hal_rtc_ex.c **** 
1045:Drivers/STM32F4xx_HAL_Driver/Src/stm32f4xx_hal_rtc_ex.c ****   /* Enable the write protection for RTC registers */
1046:Drivers/STM32F4xx_HAL_Driver/Src/stm32f4xx_hal_rtc_ex.c ****   __HAL_RTC_WRITEPROTECTION_ENABLE(hrtc);
 1992              		.loc 1 1046 3
 1993 0154 FB68     		ldr	r3, [r7, #12]
 1994 0156 1B68     		ldr	r3, [r3]
 1995 0158 FF22     		movs	r2, #255
 1996 015a 5A62     		str	r2, [r3, #36]
1047:Drivers/STM32F4xx_HAL_Driver/Src/stm32f4xx_hal_rtc_ex.c **** 
1048:Drivers/STM32F4xx_HAL_Driver/Src/stm32f4xx_hal_rtc_ex.c ****   hrtc->State = HAL_RTC_STATE_READY;
 1997              		.loc 1 1048 15
 1998 015c FB68     		ldr	r3, [r7, #12]
 1999 015e 0122     		movs	r2, #1
 2000 0160 5A77     		strb	r2, [r3, #29]
1049:Drivers/STM32F4xx_HAL_Driver/Src/stm32f4xx_hal_rtc_ex.c **** 
1050:Drivers/STM32F4xx_HAL_Driver/Src/stm32f4xx_hal_rtc_ex.c ****   /* Process Unlocked */
1051:Drivers/STM32F4xx_HAL_Driver/Src/stm32f4xx_hal_rtc_ex.c ****   __HAL_UNLOCK(hrtc);
 2001              		.loc 1 1051 3
 2002 0162 FB68     		ldr	r3, [r7, #12]
 2003 0164 0022     		movs	r2, #0
 2004 0166 1A77     		strb	r2, [r3, #28]
1052:Drivers/STM32F4xx_HAL_Driver/Src/stm32f4xx_hal_rtc_ex.c **** 
1053:Drivers/STM32F4xx_HAL_Driver/Src/stm32f4xx_hal_rtc_ex.c ****   return HAL_OK;
 2005              		.loc 1 1053 10
 2006 0168 0023     		movs	r3, #0
 2007              	.L59:
1054:Drivers/STM32F4xx_HAL_Driver/Src/stm32f4xx_hal_rtc_ex.c **** }
 2008              		.loc 1 1054 1
 2009 016a 1846     		mov	r0, r3
 2010 016c 1C37     		adds	r7, r7, #28
 2011              	.LCFI76:
 2012              		.cfi_def_cfa_offset 4
 2013 016e BD46     		mov	sp, r7
 2014              	.LCFI77:
 2015              		.cfi_def_cfa_register 13
 2016              		@ sp needed
 2017 0170 5DF8047B 		ldr	r7, [sp], #4
 2018              	.LCFI78:
 2019              		.cfi_restore 7
 2020              		.cfi_def_cfa_offset 0
 2021 0174 7047     		bx	lr
 2022              	.L66:
 2023 0176 00BF     		.align	2
 2024              	.L65:
 2025 0178 00000000 		.word	SystemCoreClock
 2026 017c D34D6210 		.word	274877907
 2027 0180 003C0140 		.word	1073822720
 2028              		.cfi_endproc
 2029              	.LFE147:
 2031              		.section	.text.HAL_RTCEx_DeactivateWakeUpTimer,"ax",%progbits
 2032              		.align	1
ARM GAS  C:\Users\TGSPOC~1\AppData\Local\Temp\ccVI6l15.s 			page 55


 2033              		.global	HAL_RTCEx_DeactivateWakeUpTimer
 2034              		.syntax unified
 2035              		.thumb
 2036              		.thumb_func
 2038              	HAL_RTCEx_DeactivateWakeUpTimer:
 2039              	.LFB148:
1055:Drivers/STM32F4xx_HAL_Driver/Src/stm32f4xx_hal_rtc_ex.c **** 
1056:Drivers/STM32F4xx_HAL_Driver/Src/stm32f4xx_hal_rtc_ex.c **** /**
1057:Drivers/STM32F4xx_HAL_Driver/Src/stm32f4xx_hal_rtc_ex.c ****   * @brief  Deactivates wakeup timer counter.
1058:Drivers/STM32F4xx_HAL_Driver/Src/stm32f4xx_hal_rtc_ex.c ****   * @param  hrtc pointer to a RTC_HandleTypeDef structure that contains
1059:Drivers/STM32F4xx_HAL_Driver/Src/stm32f4xx_hal_rtc_ex.c ****   *                the configuration information for RTC.
1060:Drivers/STM32F4xx_HAL_Driver/Src/stm32f4xx_hal_rtc_ex.c ****   * @retval HAL status
1061:Drivers/STM32F4xx_HAL_Driver/Src/stm32f4xx_hal_rtc_ex.c ****   */
1062:Drivers/STM32F4xx_HAL_Driver/Src/stm32f4xx_hal_rtc_ex.c **** HAL_StatusTypeDef HAL_RTCEx_DeactivateWakeUpTimer(RTC_HandleTypeDef *hrtc)
1063:Drivers/STM32F4xx_HAL_Driver/Src/stm32f4xx_hal_rtc_ex.c **** {
 2040              		.loc 1 1063 1
 2041              		.cfi_startproc
 2042              		@ args = 0, pretend = 0, frame = 16
 2043              		@ frame_needed = 1, uses_anonymous_args = 0
 2044 0000 80B5     		push	{r7, lr}
 2045              	.LCFI79:
 2046              		.cfi_def_cfa_offset 8
 2047              		.cfi_offset 7, -8
 2048              		.cfi_offset 14, -4
 2049 0002 84B0     		sub	sp, sp, #16
 2050              	.LCFI80:
 2051              		.cfi_def_cfa_offset 24
 2052 0004 00AF     		add	r7, sp, #0
 2053              	.LCFI81:
 2054              		.cfi_def_cfa_register 7
 2055 0006 7860     		str	r0, [r7, #4]
1064:Drivers/STM32F4xx_HAL_Driver/Src/stm32f4xx_hal_rtc_ex.c ****   uint32_t tickstart = 0U;
 2056              		.loc 1 1064 12
 2057 0008 0023     		movs	r3, #0
 2058 000a FB60     		str	r3, [r7, #12]
1065:Drivers/STM32F4xx_HAL_Driver/Src/stm32f4xx_hal_rtc_ex.c **** 
1066:Drivers/STM32F4xx_HAL_Driver/Src/stm32f4xx_hal_rtc_ex.c ****   /* Process Locked */
1067:Drivers/STM32F4xx_HAL_Driver/Src/stm32f4xx_hal_rtc_ex.c ****   __HAL_LOCK(hrtc);
 2059              		.loc 1 1067 3
 2060 000c 7B68     		ldr	r3, [r7, #4]
 2061 000e 1B7F     		ldrb	r3, [r3, #28]	@ zero_extendqisi2
 2062 0010 012B     		cmp	r3, #1
 2063 0012 01D1     		bne	.L68
 2064              		.loc 1 1067 3 is_stmt 0 discriminator 1
 2065 0014 0223     		movs	r3, #2
 2066              		.loc 1 1067 3
 2067 0016 47E0     		b	.L69
 2068              	.L68:
 2069              		.loc 1 1067 3 discriminator 2
 2070 0018 7B68     		ldr	r3, [r7, #4]
 2071 001a 0122     		movs	r2, #1
 2072 001c 1A77     		strb	r2, [r3, #28]
1068:Drivers/STM32F4xx_HAL_Driver/Src/stm32f4xx_hal_rtc_ex.c **** 
1069:Drivers/STM32F4xx_HAL_Driver/Src/stm32f4xx_hal_rtc_ex.c ****   hrtc->State = HAL_RTC_STATE_BUSY;
 2073              		.loc 1 1069 15 is_stmt 1
 2074 001e 7B68     		ldr	r3, [r7, #4]
 2075 0020 0222     		movs	r2, #2
ARM GAS  C:\Users\TGSPOC~1\AppData\Local\Temp\ccVI6l15.s 			page 56


 2076 0022 5A77     		strb	r2, [r3, #29]
1070:Drivers/STM32F4xx_HAL_Driver/Src/stm32f4xx_hal_rtc_ex.c **** 
1071:Drivers/STM32F4xx_HAL_Driver/Src/stm32f4xx_hal_rtc_ex.c ****   /* Disable the write protection for RTC registers */
1072:Drivers/STM32F4xx_HAL_Driver/Src/stm32f4xx_hal_rtc_ex.c ****   __HAL_RTC_WRITEPROTECTION_DISABLE(hrtc);
 2077              		.loc 1 1072 3
 2078 0024 7B68     		ldr	r3, [r7, #4]
 2079 0026 1B68     		ldr	r3, [r3]
 2080 0028 CA22     		movs	r2, #202
 2081 002a 5A62     		str	r2, [r3, #36]
 2082 002c 7B68     		ldr	r3, [r7, #4]
 2083 002e 1B68     		ldr	r3, [r3]
 2084 0030 5322     		movs	r2, #83
 2085 0032 5A62     		str	r2, [r3, #36]
1073:Drivers/STM32F4xx_HAL_Driver/Src/stm32f4xx_hal_rtc_ex.c **** 
1074:Drivers/STM32F4xx_HAL_Driver/Src/stm32f4xx_hal_rtc_ex.c ****   /* Disable the Wakeup Timer */
1075:Drivers/STM32F4xx_HAL_Driver/Src/stm32f4xx_hal_rtc_ex.c ****   __HAL_RTC_WAKEUPTIMER_DISABLE(hrtc);
 2086              		.loc 1 1075 3
 2087 0034 7B68     		ldr	r3, [r7, #4]
 2088 0036 1B68     		ldr	r3, [r3]
 2089 0038 9A68     		ldr	r2, [r3, #8]
 2090 003a 7B68     		ldr	r3, [r7, #4]
 2091 003c 1B68     		ldr	r3, [r3]
 2092 003e 22F48062 		bic	r2, r2, #1024
 2093 0042 9A60     		str	r2, [r3, #8]
1076:Drivers/STM32F4xx_HAL_Driver/Src/stm32f4xx_hal_rtc_ex.c **** 
1077:Drivers/STM32F4xx_HAL_Driver/Src/stm32f4xx_hal_rtc_ex.c ****   /* In case of interrupt mode is used, the interrupt source must disabled */
1078:Drivers/STM32F4xx_HAL_Driver/Src/stm32f4xx_hal_rtc_ex.c ****   __HAL_RTC_WAKEUPTIMER_DISABLE_IT(hrtc, RTC_IT_WUT);
 2094              		.loc 1 1078 3
 2095 0044 7B68     		ldr	r3, [r7, #4]
 2096 0046 1B68     		ldr	r3, [r3]
 2097 0048 9A68     		ldr	r2, [r3, #8]
 2098 004a 7B68     		ldr	r3, [r7, #4]
 2099 004c 1B68     		ldr	r3, [r3]
 2100 004e 22F48042 		bic	r2, r2, #16384
 2101 0052 9A60     		str	r2, [r3, #8]
1079:Drivers/STM32F4xx_HAL_Driver/Src/stm32f4xx_hal_rtc_ex.c **** 
1080:Drivers/STM32F4xx_HAL_Driver/Src/stm32f4xx_hal_rtc_ex.c ****   /* Get tick */
1081:Drivers/STM32F4xx_HAL_Driver/Src/stm32f4xx_hal_rtc_ex.c ****   tickstart = HAL_GetTick();
 2102              		.loc 1 1081 15
 2103 0054 FFF7FEFF 		bl	HAL_GetTick
 2104 0058 F860     		str	r0, [r7, #12]
1082:Drivers/STM32F4xx_HAL_Driver/Src/stm32f4xx_hal_rtc_ex.c **** 
1083:Drivers/STM32F4xx_HAL_Driver/Src/stm32f4xx_hal_rtc_ex.c ****   /* Wait till RTC WUTWF flag is set and if timeout is reached exit */
1084:Drivers/STM32F4xx_HAL_Driver/Src/stm32f4xx_hal_rtc_ex.c ****   while (__HAL_RTC_WAKEUPTIMER_GET_FLAG(hrtc, RTC_FLAG_WUTWF) == 0U)
 2105              		.loc 1 1084 9
 2106 005a 13E0     		b	.L70
 2107              	.L71:
1085:Drivers/STM32F4xx_HAL_Driver/Src/stm32f4xx_hal_rtc_ex.c ****   {
1086:Drivers/STM32F4xx_HAL_Driver/Src/stm32f4xx_hal_rtc_ex.c ****     if ((HAL_GetTick() - tickstart) > RTC_TIMEOUT_VALUE)
 2108              		.loc 1 1086 10
 2109 005c FFF7FEFF 		bl	HAL_GetTick
 2110 0060 0246     		mov	r2, r0
 2111              		.loc 1 1086 24 discriminator 1
 2112 0062 FB68     		ldr	r3, [r7, #12]
 2113 0064 D31A     		subs	r3, r2, r3
 2114              		.loc 1 1086 8 discriminator 1
 2115 0066 B3F57A7F 		cmp	r3, #1000
ARM GAS  C:\Users\TGSPOC~1\AppData\Local\Temp\ccVI6l15.s 			page 57


 2116 006a 0BD9     		bls	.L70
1087:Drivers/STM32F4xx_HAL_Driver/Src/stm32f4xx_hal_rtc_ex.c ****     {
1088:Drivers/STM32F4xx_HAL_Driver/Src/stm32f4xx_hal_rtc_ex.c ****       /* Enable the write protection for RTC registers */
1089:Drivers/STM32F4xx_HAL_Driver/Src/stm32f4xx_hal_rtc_ex.c ****       __HAL_RTC_WRITEPROTECTION_ENABLE(hrtc);
 2117              		.loc 1 1089 7
 2118 006c 7B68     		ldr	r3, [r7, #4]
 2119 006e 1B68     		ldr	r3, [r3]
 2120 0070 FF22     		movs	r2, #255
 2121 0072 5A62     		str	r2, [r3, #36]
1090:Drivers/STM32F4xx_HAL_Driver/Src/stm32f4xx_hal_rtc_ex.c **** 
1091:Drivers/STM32F4xx_HAL_Driver/Src/stm32f4xx_hal_rtc_ex.c ****       hrtc->State = HAL_RTC_STATE_TIMEOUT;
 2122              		.loc 1 1091 19
 2123 0074 7B68     		ldr	r3, [r7, #4]
 2124 0076 0322     		movs	r2, #3
 2125 0078 5A77     		strb	r2, [r3, #29]
1092:Drivers/STM32F4xx_HAL_Driver/Src/stm32f4xx_hal_rtc_ex.c **** 
1093:Drivers/STM32F4xx_HAL_Driver/Src/stm32f4xx_hal_rtc_ex.c ****       /* Process Unlocked */
1094:Drivers/STM32F4xx_HAL_Driver/Src/stm32f4xx_hal_rtc_ex.c ****       __HAL_UNLOCK(hrtc);
 2126              		.loc 1 1094 7
 2127 007a 7B68     		ldr	r3, [r7, #4]
 2128 007c 0022     		movs	r2, #0
 2129 007e 1A77     		strb	r2, [r3, #28]
1095:Drivers/STM32F4xx_HAL_Driver/Src/stm32f4xx_hal_rtc_ex.c **** 
1096:Drivers/STM32F4xx_HAL_Driver/Src/stm32f4xx_hal_rtc_ex.c ****       return HAL_TIMEOUT;
 2130              		.loc 1 1096 14
 2131 0080 0323     		movs	r3, #3
 2132 0082 11E0     		b	.L69
 2133              	.L70:
1084:Drivers/STM32F4xx_HAL_Driver/Src/stm32f4xx_hal_rtc_ex.c ****   {
 2134              		.loc 1 1084 10
 2135 0084 7B68     		ldr	r3, [r7, #4]
 2136 0086 1B68     		ldr	r3, [r3]
 2137 0088 DB68     		ldr	r3, [r3, #12]
 2138 008a 03F00403 		and	r3, r3, #4
1084:Drivers/STM32F4xx_HAL_Driver/Src/stm32f4xx_hal_rtc_ex.c ****   {
 2139              		.loc 1 1084 63
 2140 008e 002B     		cmp	r3, #0
 2141 0090 E4D0     		beq	.L71
1097:Drivers/STM32F4xx_HAL_Driver/Src/stm32f4xx_hal_rtc_ex.c ****     }
1098:Drivers/STM32F4xx_HAL_Driver/Src/stm32f4xx_hal_rtc_ex.c ****   }
1099:Drivers/STM32F4xx_HAL_Driver/Src/stm32f4xx_hal_rtc_ex.c **** 
1100:Drivers/STM32F4xx_HAL_Driver/Src/stm32f4xx_hal_rtc_ex.c ****   /* Enable the write protection for RTC registers */
1101:Drivers/STM32F4xx_HAL_Driver/Src/stm32f4xx_hal_rtc_ex.c ****   __HAL_RTC_WRITEPROTECTION_ENABLE(hrtc);
 2142              		.loc 1 1101 3
 2143 0092 7B68     		ldr	r3, [r7, #4]
 2144 0094 1B68     		ldr	r3, [r3]
 2145 0096 FF22     		movs	r2, #255
 2146 0098 5A62     		str	r2, [r3, #36]
1102:Drivers/STM32F4xx_HAL_Driver/Src/stm32f4xx_hal_rtc_ex.c **** 
1103:Drivers/STM32F4xx_HAL_Driver/Src/stm32f4xx_hal_rtc_ex.c ****   hrtc->State = HAL_RTC_STATE_READY;
 2147              		.loc 1 1103 15
 2148 009a 7B68     		ldr	r3, [r7, #4]
 2149 009c 0122     		movs	r2, #1
 2150 009e 5A77     		strb	r2, [r3, #29]
1104:Drivers/STM32F4xx_HAL_Driver/Src/stm32f4xx_hal_rtc_ex.c **** 
1105:Drivers/STM32F4xx_HAL_Driver/Src/stm32f4xx_hal_rtc_ex.c ****   /* Process Unlocked */
1106:Drivers/STM32F4xx_HAL_Driver/Src/stm32f4xx_hal_rtc_ex.c ****   __HAL_UNLOCK(hrtc);
ARM GAS  C:\Users\TGSPOC~1\AppData\Local\Temp\ccVI6l15.s 			page 58


 2151              		.loc 1 1106 3
 2152 00a0 7B68     		ldr	r3, [r7, #4]
 2153 00a2 0022     		movs	r2, #0
 2154 00a4 1A77     		strb	r2, [r3, #28]
1107:Drivers/STM32F4xx_HAL_Driver/Src/stm32f4xx_hal_rtc_ex.c **** 
1108:Drivers/STM32F4xx_HAL_Driver/Src/stm32f4xx_hal_rtc_ex.c ****   return HAL_OK;
 2155              		.loc 1 1108 10
 2156 00a6 0023     		movs	r3, #0
 2157              	.L69:
1109:Drivers/STM32F4xx_HAL_Driver/Src/stm32f4xx_hal_rtc_ex.c **** }
 2158              		.loc 1 1109 1
 2159 00a8 1846     		mov	r0, r3
 2160 00aa 1037     		adds	r7, r7, #16
 2161              	.LCFI82:
 2162              		.cfi_def_cfa_offset 8
 2163 00ac BD46     		mov	sp, r7
 2164              	.LCFI83:
 2165              		.cfi_def_cfa_register 13
 2166              		@ sp needed
 2167 00ae 80BD     		pop	{r7, pc}
 2168              		.cfi_endproc
 2169              	.LFE148:
 2171              		.section	.text.HAL_RTCEx_GetWakeUpTimer,"ax",%progbits
 2172              		.align	1
 2173              		.global	HAL_RTCEx_GetWakeUpTimer
 2174              		.syntax unified
 2175              		.thumb
 2176              		.thumb_func
 2178              	HAL_RTCEx_GetWakeUpTimer:
 2179              	.LFB149:
1110:Drivers/STM32F4xx_HAL_Driver/Src/stm32f4xx_hal_rtc_ex.c **** 
1111:Drivers/STM32F4xx_HAL_Driver/Src/stm32f4xx_hal_rtc_ex.c **** /**
1112:Drivers/STM32F4xx_HAL_Driver/Src/stm32f4xx_hal_rtc_ex.c ****   * @brief  Gets wakeup timer counter.
1113:Drivers/STM32F4xx_HAL_Driver/Src/stm32f4xx_hal_rtc_ex.c ****   * @param  hrtc pointer to a RTC_HandleTypeDef structure that contains
1114:Drivers/STM32F4xx_HAL_Driver/Src/stm32f4xx_hal_rtc_ex.c ****   *                the configuration information for RTC.
1115:Drivers/STM32F4xx_HAL_Driver/Src/stm32f4xx_hal_rtc_ex.c ****   * @retval Counter value
1116:Drivers/STM32F4xx_HAL_Driver/Src/stm32f4xx_hal_rtc_ex.c ****   */
1117:Drivers/STM32F4xx_HAL_Driver/Src/stm32f4xx_hal_rtc_ex.c **** uint32_t HAL_RTCEx_GetWakeUpTimer(RTC_HandleTypeDef *hrtc)
1118:Drivers/STM32F4xx_HAL_Driver/Src/stm32f4xx_hal_rtc_ex.c **** {
 2180              		.loc 1 1118 1
 2181              		.cfi_startproc
 2182              		@ args = 0, pretend = 0, frame = 8
 2183              		@ frame_needed = 1, uses_anonymous_args = 0
 2184              		@ link register save eliminated.
 2185 0000 80B4     		push	{r7}
 2186              	.LCFI84:
 2187              		.cfi_def_cfa_offset 4
 2188              		.cfi_offset 7, -4
 2189 0002 83B0     		sub	sp, sp, #12
 2190              	.LCFI85:
 2191              		.cfi_def_cfa_offset 16
 2192 0004 00AF     		add	r7, sp, #0
 2193              	.LCFI86:
 2194              		.cfi_def_cfa_register 7
 2195 0006 7860     		str	r0, [r7, #4]
1119:Drivers/STM32F4xx_HAL_Driver/Src/stm32f4xx_hal_rtc_ex.c ****   /* Get the counter value */
1120:Drivers/STM32F4xx_HAL_Driver/Src/stm32f4xx_hal_rtc_ex.c ****   return ((uint32_t)(hrtc->Instance->WUTR & RTC_WUTR_WUT));
ARM GAS  C:\Users\TGSPOC~1\AppData\Local\Temp\ccVI6l15.s 			page 59


 2196              		.loc 1 1120 26
 2197 0008 7B68     		ldr	r3, [r7, #4]
 2198 000a 1B68     		ldr	r3, [r3]
 2199              		.loc 1 1120 36
 2200 000c 5B69     		ldr	r3, [r3, #20]
 2201              		.loc 1 1120 11
 2202 000e 9BB2     		uxth	r3, r3
1121:Drivers/STM32F4xx_HAL_Driver/Src/stm32f4xx_hal_rtc_ex.c **** }
 2203              		.loc 1 1121 1
 2204 0010 1846     		mov	r0, r3
 2205 0012 0C37     		adds	r7, r7, #12
 2206              	.LCFI87:
 2207              		.cfi_def_cfa_offset 4
 2208 0014 BD46     		mov	sp, r7
 2209              	.LCFI88:
 2210              		.cfi_def_cfa_register 13
 2211              		@ sp needed
 2212 0016 5DF8047B 		ldr	r7, [sp], #4
 2213              	.LCFI89:
 2214              		.cfi_restore 7
 2215              		.cfi_def_cfa_offset 0
 2216 001a 7047     		bx	lr
 2217              		.cfi_endproc
 2218              	.LFE149:
 2220              		.section	.text.HAL_RTCEx_WakeUpTimerIRQHandler,"ax",%progbits
 2221              		.align	1
 2222              		.global	HAL_RTCEx_WakeUpTimerIRQHandler
 2223              		.syntax unified
 2224              		.thumb
 2225              		.thumb_func
 2227              	HAL_RTCEx_WakeUpTimerIRQHandler:
 2228              	.LFB150:
1122:Drivers/STM32F4xx_HAL_Driver/Src/stm32f4xx_hal_rtc_ex.c **** 
1123:Drivers/STM32F4xx_HAL_Driver/Src/stm32f4xx_hal_rtc_ex.c **** /**
1124:Drivers/STM32F4xx_HAL_Driver/Src/stm32f4xx_hal_rtc_ex.c ****   * @brief  Handles Wakeup Timer interrupt request.
1125:Drivers/STM32F4xx_HAL_Driver/Src/stm32f4xx_hal_rtc_ex.c ****   * @note   Unlike alarm interrupt line (shared by Alarms A and B) or tamper
1126:Drivers/STM32F4xx_HAL_Driver/Src/stm32f4xx_hal_rtc_ex.c ****   *         interrupt line (shared by timestamp and tampers) wakeup timer
1127:Drivers/STM32F4xx_HAL_Driver/Src/stm32f4xx_hal_rtc_ex.c ****   *         interrupt line is exclusive to the wakeup timer.
1128:Drivers/STM32F4xx_HAL_Driver/Src/stm32f4xx_hal_rtc_ex.c ****   *         There is no need in this case to check on the interrupt enable
1129:Drivers/STM32F4xx_HAL_Driver/Src/stm32f4xx_hal_rtc_ex.c ****   *         status via __HAL_RTC_WAKEUPTIMER_GET_IT_SOURCE().
1130:Drivers/STM32F4xx_HAL_Driver/Src/stm32f4xx_hal_rtc_ex.c ****   * @param  hrtc pointer to a RTC_HandleTypeDef structure that contains
1131:Drivers/STM32F4xx_HAL_Driver/Src/stm32f4xx_hal_rtc_ex.c ****   *                the configuration information for RTC.
1132:Drivers/STM32F4xx_HAL_Driver/Src/stm32f4xx_hal_rtc_ex.c ****   * @retval None
1133:Drivers/STM32F4xx_HAL_Driver/Src/stm32f4xx_hal_rtc_ex.c ****   */
1134:Drivers/STM32F4xx_HAL_Driver/Src/stm32f4xx_hal_rtc_ex.c **** void HAL_RTCEx_WakeUpTimerIRQHandler(RTC_HandleTypeDef *hrtc)
1135:Drivers/STM32F4xx_HAL_Driver/Src/stm32f4xx_hal_rtc_ex.c **** {
 2229              		.loc 1 1135 1
 2230              		.cfi_startproc
 2231              		@ args = 0, pretend = 0, frame = 8
 2232              		@ frame_needed = 1, uses_anonymous_args = 0
 2233 0000 80B5     		push	{r7, lr}
 2234              	.LCFI90:
 2235              		.cfi_def_cfa_offset 8
 2236              		.cfi_offset 7, -8
 2237              		.cfi_offset 14, -4
 2238 0002 82B0     		sub	sp, sp, #8
 2239              	.LCFI91:
ARM GAS  C:\Users\TGSPOC~1\AppData\Local\Temp\ccVI6l15.s 			page 60


 2240              		.cfi_def_cfa_offset 16
 2241 0004 00AF     		add	r7, sp, #0
 2242              	.LCFI92:
 2243              		.cfi_def_cfa_register 7
 2244 0006 7860     		str	r0, [r7, #4]
1136:Drivers/STM32F4xx_HAL_Driver/Src/stm32f4xx_hal_rtc_ex.c ****   /* Clear the EXTI's line Flag for RTC WakeUpTimer */
1137:Drivers/STM32F4xx_HAL_Driver/Src/stm32f4xx_hal_rtc_ex.c ****   __HAL_RTC_WAKEUPTIMER_EXTI_CLEAR_FLAG();
 2245              		.loc 1 1137 3
 2246 0008 0E4B     		ldr	r3, .L76
 2247 000a 4FF48002 		mov	r2, #4194304
 2248 000e 5A61     		str	r2, [r3, #20]
1138:Drivers/STM32F4xx_HAL_Driver/Src/stm32f4xx_hal_rtc_ex.c **** 
1139:Drivers/STM32F4xx_HAL_Driver/Src/stm32f4xx_hal_rtc_ex.c ****   /* Get the pending status of the Wakeup timer Interrupt */
1140:Drivers/STM32F4xx_HAL_Driver/Src/stm32f4xx_hal_rtc_ex.c ****   if (__HAL_RTC_WAKEUPTIMER_GET_FLAG(hrtc, RTC_FLAG_WUTF) != 0U)
 2249              		.loc 1 1140 7
 2250 0010 7B68     		ldr	r3, [r7, #4]
 2251 0012 1B68     		ldr	r3, [r3]
 2252 0014 DB68     		ldr	r3, [r3, #12]
 2253 0016 03F48063 		and	r3, r3, #1024
 2254              		.loc 1 1140 6
 2255 001a 002B     		cmp	r3, #0
 2256 001c 0BD0     		beq	.L75
1141:Drivers/STM32F4xx_HAL_Driver/Src/stm32f4xx_hal_rtc_ex.c ****   {
1142:Drivers/STM32F4xx_HAL_Driver/Src/stm32f4xx_hal_rtc_ex.c ****     /* Clear the Wakeup timer interrupt pending bit */
1143:Drivers/STM32F4xx_HAL_Driver/Src/stm32f4xx_hal_rtc_ex.c ****     __HAL_RTC_WAKEUPTIMER_CLEAR_FLAG(hrtc, RTC_FLAG_WUTF);
 2257              		.loc 1 1143 5
 2258 001e 7B68     		ldr	r3, [r7, #4]
 2259 0020 1B68     		ldr	r3, [r3]
 2260 0022 DB68     		ldr	r3, [r3, #12]
 2261 0024 DAB2     		uxtb	r2, r3
 2262 0026 7B68     		ldr	r3, [r7, #4]
 2263 0028 1B68     		ldr	r3, [r3]
 2264 002a 62F49062 		orn	r2, r2, #1152
 2265 002e DA60     		str	r2, [r3, #12]
1144:Drivers/STM32F4xx_HAL_Driver/Src/stm32f4xx_hal_rtc_ex.c **** 
1145:Drivers/STM32F4xx_HAL_Driver/Src/stm32f4xx_hal_rtc_ex.c ****     /* Wakeup timer callback */
1146:Drivers/STM32F4xx_HAL_Driver/Src/stm32f4xx_hal_rtc_ex.c **** #if (USE_HAL_RTC_REGISTER_CALLBACKS == 1)
1147:Drivers/STM32F4xx_HAL_Driver/Src/stm32f4xx_hal_rtc_ex.c ****     hrtc->WakeUpTimerEventCallback(hrtc);
1148:Drivers/STM32F4xx_HAL_Driver/Src/stm32f4xx_hal_rtc_ex.c **** #else
1149:Drivers/STM32F4xx_HAL_Driver/Src/stm32f4xx_hal_rtc_ex.c ****     HAL_RTCEx_WakeUpTimerEventCallback(hrtc);
 2266              		.loc 1 1149 5
 2267 0030 7868     		ldr	r0, [r7, #4]
 2268 0032 FFF7FEFF 		bl	HAL_RTCEx_WakeUpTimerEventCallback
 2269              	.L75:
1150:Drivers/STM32F4xx_HAL_Driver/Src/stm32f4xx_hal_rtc_ex.c **** #endif /* USE_HAL_RTC_REGISTER_CALLBACKS */
1151:Drivers/STM32F4xx_HAL_Driver/Src/stm32f4xx_hal_rtc_ex.c ****   }
1152:Drivers/STM32F4xx_HAL_Driver/Src/stm32f4xx_hal_rtc_ex.c **** 
1153:Drivers/STM32F4xx_HAL_Driver/Src/stm32f4xx_hal_rtc_ex.c ****   /* Change RTC state */
1154:Drivers/STM32F4xx_HAL_Driver/Src/stm32f4xx_hal_rtc_ex.c ****   hrtc->State = HAL_RTC_STATE_READY;
 2270              		.loc 1 1154 15
 2271 0036 7B68     		ldr	r3, [r7, #4]
 2272 0038 0122     		movs	r2, #1
 2273 003a 5A77     		strb	r2, [r3, #29]
1155:Drivers/STM32F4xx_HAL_Driver/Src/stm32f4xx_hal_rtc_ex.c **** }
 2274              		.loc 1 1155 1
 2275 003c 00BF     		nop
 2276 003e 0837     		adds	r7, r7, #8
ARM GAS  C:\Users\TGSPOC~1\AppData\Local\Temp\ccVI6l15.s 			page 61


 2277              	.LCFI93:
 2278              		.cfi_def_cfa_offset 8
 2279 0040 BD46     		mov	sp, r7
 2280              	.LCFI94:
 2281              		.cfi_def_cfa_register 13
 2282              		@ sp needed
 2283 0042 80BD     		pop	{r7, pc}
 2284              	.L77:
 2285              		.align	2
 2286              	.L76:
 2287 0044 003C0140 		.word	1073822720
 2288              		.cfi_endproc
 2289              	.LFE150:
 2291              		.section	.text.HAL_RTCEx_WakeUpTimerEventCallback,"ax",%progbits
 2292              		.align	1
 2293              		.weak	HAL_RTCEx_WakeUpTimerEventCallback
 2294              		.syntax unified
 2295              		.thumb
 2296              		.thumb_func
 2298              	HAL_RTCEx_WakeUpTimerEventCallback:
 2299              	.LFB151:
1156:Drivers/STM32F4xx_HAL_Driver/Src/stm32f4xx_hal_rtc_ex.c **** 
1157:Drivers/STM32F4xx_HAL_Driver/Src/stm32f4xx_hal_rtc_ex.c **** /**
1158:Drivers/STM32F4xx_HAL_Driver/Src/stm32f4xx_hal_rtc_ex.c ****   * @brief  Wakeup Timer callback.
1159:Drivers/STM32F4xx_HAL_Driver/Src/stm32f4xx_hal_rtc_ex.c ****   * @param  hrtc pointer to a RTC_HandleTypeDef structure that contains
1160:Drivers/STM32F4xx_HAL_Driver/Src/stm32f4xx_hal_rtc_ex.c ****   *                the configuration information for RTC.
1161:Drivers/STM32F4xx_HAL_Driver/Src/stm32f4xx_hal_rtc_ex.c ****   * @retval None
1162:Drivers/STM32F4xx_HAL_Driver/Src/stm32f4xx_hal_rtc_ex.c ****   */
1163:Drivers/STM32F4xx_HAL_Driver/Src/stm32f4xx_hal_rtc_ex.c **** __weak void HAL_RTCEx_WakeUpTimerEventCallback(RTC_HandleTypeDef *hrtc)
1164:Drivers/STM32F4xx_HAL_Driver/Src/stm32f4xx_hal_rtc_ex.c **** {
 2300              		.loc 1 1164 1
 2301              		.cfi_startproc
 2302              		@ args = 0, pretend = 0, frame = 8
 2303              		@ frame_needed = 1, uses_anonymous_args = 0
 2304              		@ link register save eliminated.
 2305 0000 80B4     		push	{r7}
 2306              	.LCFI95:
 2307              		.cfi_def_cfa_offset 4
 2308              		.cfi_offset 7, -4
 2309 0002 83B0     		sub	sp, sp, #12
 2310              	.LCFI96:
 2311              		.cfi_def_cfa_offset 16
 2312 0004 00AF     		add	r7, sp, #0
 2313              	.LCFI97:
 2314              		.cfi_def_cfa_register 7
 2315 0006 7860     		str	r0, [r7, #4]
1165:Drivers/STM32F4xx_HAL_Driver/Src/stm32f4xx_hal_rtc_ex.c ****   /* Prevent unused argument(s) compilation warning */
1166:Drivers/STM32F4xx_HAL_Driver/Src/stm32f4xx_hal_rtc_ex.c ****   UNUSED(hrtc);
1167:Drivers/STM32F4xx_HAL_Driver/Src/stm32f4xx_hal_rtc_ex.c **** 
1168:Drivers/STM32F4xx_HAL_Driver/Src/stm32f4xx_hal_rtc_ex.c ****   /* NOTE: This function should not be modified, when the callback is needed,
1169:Drivers/STM32F4xx_HAL_Driver/Src/stm32f4xx_hal_rtc_ex.c ****            the HAL_RTCEx_WakeUpTimerEventCallback could be implemented in the user file
1170:Drivers/STM32F4xx_HAL_Driver/Src/stm32f4xx_hal_rtc_ex.c ****    */
1171:Drivers/STM32F4xx_HAL_Driver/Src/stm32f4xx_hal_rtc_ex.c **** }
 2316              		.loc 1 1171 1
 2317 0008 00BF     		nop
 2318 000a 0C37     		adds	r7, r7, #12
 2319              	.LCFI98:
ARM GAS  C:\Users\TGSPOC~1\AppData\Local\Temp\ccVI6l15.s 			page 62


 2320              		.cfi_def_cfa_offset 4
 2321 000c BD46     		mov	sp, r7
 2322              	.LCFI99:
 2323              		.cfi_def_cfa_register 13
 2324              		@ sp needed
 2325 000e 5DF8047B 		ldr	r7, [sp], #4
 2326              	.LCFI100:
 2327              		.cfi_restore 7
 2328              		.cfi_def_cfa_offset 0
 2329 0012 7047     		bx	lr
 2330              		.cfi_endproc
 2331              	.LFE151:
 2333              		.section	.text.HAL_RTCEx_PollForWakeUpTimerEvent,"ax",%progbits
 2334              		.align	1
 2335              		.global	HAL_RTCEx_PollForWakeUpTimerEvent
 2336              		.syntax unified
 2337              		.thumb
 2338              		.thumb_func
 2340              	HAL_RTCEx_PollForWakeUpTimerEvent:
 2341              	.LFB152:
1172:Drivers/STM32F4xx_HAL_Driver/Src/stm32f4xx_hal_rtc_ex.c **** 
1173:Drivers/STM32F4xx_HAL_Driver/Src/stm32f4xx_hal_rtc_ex.c **** /**
1174:Drivers/STM32F4xx_HAL_Driver/Src/stm32f4xx_hal_rtc_ex.c ****   * @brief  Handles Wakeup Timer Polling.
1175:Drivers/STM32F4xx_HAL_Driver/Src/stm32f4xx_hal_rtc_ex.c ****   * @param  hrtc pointer to a RTC_HandleTypeDef structure that contains
1176:Drivers/STM32F4xx_HAL_Driver/Src/stm32f4xx_hal_rtc_ex.c ****   *                the configuration information for RTC.
1177:Drivers/STM32F4xx_HAL_Driver/Src/stm32f4xx_hal_rtc_ex.c ****   * @param  Timeout Timeout duration
1178:Drivers/STM32F4xx_HAL_Driver/Src/stm32f4xx_hal_rtc_ex.c ****   * @retval HAL status
1179:Drivers/STM32F4xx_HAL_Driver/Src/stm32f4xx_hal_rtc_ex.c ****   */
1180:Drivers/STM32F4xx_HAL_Driver/Src/stm32f4xx_hal_rtc_ex.c **** HAL_StatusTypeDef HAL_RTCEx_PollForWakeUpTimerEvent(RTC_HandleTypeDef *hrtc, uint32_t Timeout)
1181:Drivers/STM32F4xx_HAL_Driver/Src/stm32f4xx_hal_rtc_ex.c **** {
 2342              		.loc 1 1181 1
 2343              		.cfi_startproc
 2344              		@ args = 0, pretend = 0, frame = 16
 2345              		@ frame_needed = 1, uses_anonymous_args = 0
 2346 0000 80B5     		push	{r7, lr}
 2347              	.LCFI101:
 2348              		.cfi_def_cfa_offset 8
 2349              		.cfi_offset 7, -8
 2350              		.cfi_offset 14, -4
 2351 0002 84B0     		sub	sp, sp, #16
 2352              	.LCFI102:
 2353              		.cfi_def_cfa_offset 24
 2354 0004 00AF     		add	r7, sp, #0
 2355              	.LCFI103:
 2356              		.cfi_def_cfa_register 7
 2357 0006 7860     		str	r0, [r7, #4]
 2358 0008 3960     		str	r1, [r7]
1182:Drivers/STM32F4xx_HAL_Driver/Src/stm32f4xx_hal_rtc_ex.c ****   uint32_t tickstart = 0U;
 2359              		.loc 1 1182 12
 2360 000a 0023     		movs	r3, #0
 2361 000c FB60     		str	r3, [r7, #12]
1183:Drivers/STM32F4xx_HAL_Driver/Src/stm32f4xx_hal_rtc_ex.c **** 
1184:Drivers/STM32F4xx_HAL_Driver/Src/stm32f4xx_hal_rtc_ex.c ****   /* Get tick */
1185:Drivers/STM32F4xx_HAL_Driver/Src/stm32f4xx_hal_rtc_ex.c ****   tickstart = HAL_GetTick();
 2362              		.loc 1 1185 15
 2363 000e FFF7FEFF 		bl	HAL_GetTick
 2364 0012 F860     		str	r0, [r7, #12]
ARM GAS  C:\Users\TGSPOC~1\AppData\Local\Temp\ccVI6l15.s 			page 63


1186:Drivers/STM32F4xx_HAL_Driver/Src/stm32f4xx_hal_rtc_ex.c **** 
1187:Drivers/STM32F4xx_HAL_Driver/Src/stm32f4xx_hal_rtc_ex.c ****   while (__HAL_RTC_WAKEUPTIMER_GET_FLAG(hrtc, RTC_FLAG_WUTF) == 0U)
 2365              		.loc 1 1187 9
 2366 0014 13E0     		b	.L81
 2367              	.L84:
1188:Drivers/STM32F4xx_HAL_Driver/Src/stm32f4xx_hal_rtc_ex.c ****   {
1189:Drivers/STM32F4xx_HAL_Driver/Src/stm32f4xx_hal_rtc_ex.c ****     if (Timeout != HAL_MAX_DELAY)
 2368              		.loc 1 1189 8
 2369 0016 3B68     		ldr	r3, [r7]
 2370 0018 B3F1FF3F 		cmp	r3, #-1
 2371 001c 0FD0     		beq	.L81
1190:Drivers/STM32F4xx_HAL_Driver/Src/stm32f4xx_hal_rtc_ex.c ****     {
1191:Drivers/STM32F4xx_HAL_Driver/Src/stm32f4xx_hal_rtc_ex.c ****       if ((Timeout == 0U) || ((HAL_GetTick() - tickstart) > Timeout))
 2372              		.loc 1 1191 10
 2373 001e 3B68     		ldr	r3, [r7]
 2374 0020 002B     		cmp	r3, #0
 2375 0022 07D0     		beq	.L82
 2376              		.loc 1 1191 32 discriminator 1
 2377 0024 FFF7FEFF 		bl	HAL_GetTick
 2378 0028 0246     		mov	r2, r0
 2379              		.loc 1 1191 46 discriminator 1
 2380 002a FB68     		ldr	r3, [r7, #12]
 2381 002c D31A     		subs	r3, r2, r3
 2382              		.loc 1 1191 27 discriminator 1
 2383 002e 3A68     		ldr	r2, [r7]
 2384 0030 9A42     		cmp	r2, r3
 2385 0032 04D2     		bcs	.L81
 2386              	.L82:
1192:Drivers/STM32F4xx_HAL_Driver/Src/stm32f4xx_hal_rtc_ex.c ****       {
1193:Drivers/STM32F4xx_HAL_Driver/Src/stm32f4xx_hal_rtc_ex.c ****         hrtc->State = HAL_RTC_STATE_TIMEOUT;
 2387              		.loc 1 1193 21
 2388 0034 7B68     		ldr	r3, [r7, #4]
 2389 0036 0322     		movs	r2, #3
 2390 0038 5A77     		strb	r2, [r3, #29]
1194:Drivers/STM32F4xx_HAL_Driver/Src/stm32f4xx_hal_rtc_ex.c ****         return HAL_TIMEOUT;
 2391              		.loc 1 1194 16
 2392 003a 0323     		movs	r3, #3
 2393 003c 13E0     		b	.L83
 2394              	.L81:
1187:Drivers/STM32F4xx_HAL_Driver/Src/stm32f4xx_hal_rtc_ex.c ****   {
 2395              		.loc 1 1187 10
 2396 003e 7B68     		ldr	r3, [r7, #4]
 2397 0040 1B68     		ldr	r3, [r3]
 2398 0042 DB68     		ldr	r3, [r3, #12]
 2399 0044 03F48063 		and	r3, r3, #1024
1187:Drivers/STM32F4xx_HAL_Driver/Src/stm32f4xx_hal_rtc_ex.c ****   {
 2400              		.loc 1 1187 62
 2401 0048 002B     		cmp	r3, #0
 2402 004a E4D0     		beq	.L84
1195:Drivers/STM32F4xx_HAL_Driver/Src/stm32f4xx_hal_rtc_ex.c ****       }
1196:Drivers/STM32F4xx_HAL_Driver/Src/stm32f4xx_hal_rtc_ex.c ****     }
1197:Drivers/STM32F4xx_HAL_Driver/Src/stm32f4xx_hal_rtc_ex.c ****   }
1198:Drivers/STM32F4xx_HAL_Driver/Src/stm32f4xx_hal_rtc_ex.c **** 
1199:Drivers/STM32F4xx_HAL_Driver/Src/stm32f4xx_hal_rtc_ex.c ****   /* Clear the Wakeup timer Flag */
1200:Drivers/STM32F4xx_HAL_Driver/Src/stm32f4xx_hal_rtc_ex.c ****   __HAL_RTC_WAKEUPTIMER_CLEAR_FLAG(hrtc, RTC_FLAG_WUTF);
 2403              		.loc 1 1200 3
 2404 004c 7B68     		ldr	r3, [r7, #4]
ARM GAS  C:\Users\TGSPOC~1\AppData\Local\Temp\ccVI6l15.s 			page 64


 2405 004e 1B68     		ldr	r3, [r3]
 2406 0050 DB68     		ldr	r3, [r3, #12]
 2407 0052 DAB2     		uxtb	r2, r3
 2408 0054 7B68     		ldr	r3, [r7, #4]
 2409 0056 1B68     		ldr	r3, [r3]
 2410 0058 62F49062 		orn	r2, r2, #1152
 2411 005c DA60     		str	r2, [r3, #12]
1201:Drivers/STM32F4xx_HAL_Driver/Src/stm32f4xx_hal_rtc_ex.c **** 
1202:Drivers/STM32F4xx_HAL_Driver/Src/stm32f4xx_hal_rtc_ex.c ****   /* Change RTC state */
1203:Drivers/STM32F4xx_HAL_Driver/Src/stm32f4xx_hal_rtc_ex.c ****   hrtc->State = HAL_RTC_STATE_READY;
 2412              		.loc 1 1203 15
 2413 005e 7B68     		ldr	r3, [r7, #4]
 2414 0060 0122     		movs	r2, #1
 2415 0062 5A77     		strb	r2, [r3, #29]
1204:Drivers/STM32F4xx_HAL_Driver/Src/stm32f4xx_hal_rtc_ex.c **** 
1205:Drivers/STM32F4xx_HAL_Driver/Src/stm32f4xx_hal_rtc_ex.c ****   return HAL_OK;
 2416              		.loc 1 1205 10
 2417 0064 0023     		movs	r3, #0
 2418              	.L83:
1206:Drivers/STM32F4xx_HAL_Driver/Src/stm32f4xx_hal_rtc_ex.c **** }
 2419              		.loc 1 1206 1
 2420 0066 1846     		mov	r0, r3
 2421 0068 1037     		adds	r7, r7, #16
 2422              	.LCFI104:
 2423              		.cfi_def_cfa_offset 8
 2424 006a BD46     		mov	sp, r7
 2425              	.LCFI105:
 2426              		.cfi_def_cfa_register 13
 2427              		@ sp needed
 2428 006c 80BD     		pop	{r7, pc}
 2429              		.cfi_endproc
 2430              	.LFE152:
 2432              		.section	.text.HAL_RTCEx_BKUPWrite,"ax",%progbits
 2433              		.align	1
 2434              		.global	HAL_RTCEx_BKUPWrite
 2435              		.syntax unified
 2436              		.thumb
 2437              		.thumb_func
 2439              	HAL_RTCEx_BKUPWrite:
 2440              	.LFB153:
1207:Drivers/STM32F4xx_HAL_Driver/Src/stm32f4xx_hal_rtc_ex.c **** 
1208:Drivers/STM32F4xx_HAL_Driver/Src/stm32f4xx_hal_rtc_ex.c **** /**
1209:Drivers/STM32F4xx_HAL_Driver/Src/stm32f4xx_hal_rtc_ex.c ****   * @}
1210:Drivers/STM32F4xx_HAL_Driver/Src/stm32f4xx_hal_rtc_ex.c ****   */
1211:Drivers/STM32F4xx_HAL_Driver/Src/stm32f4xx_hal_rtc_ex.c **** 
1212:Drivers/STM32F4xx_HAL_Driver/Src/stm32f4xx_hal_rtc_ex.c **** /** @defgroup RTCEx_Exported_Functions_Group3 Extended Peripheral Control functions
1213:Drivers/STM32F4xx_HAL_Driver/Src/stm32f4xx_hal_rtc_ex.c ****   * @brief    Extended Peripheral Control functions
1214:Drivers/STM32F4xx_HAL_Driver/Src/stm32f4xx_hal_rtc_ex.c ****   *
1215:Drivers/STM32F4xx_HAL_Driver/Src/stm32f4xx_hal_rtc_ex.c **** @verbatim
1216:Drivers/STM32F4xx_HAL_Driver/Src/stm32f4xx_hal_rtc_ex.c ****  ===============================================================================
1217:Drivers/STM32F4xx_HAL_Driver/Src/stm32f4xx_hal_rtc_ex.c ****               ##### Extended Peripheral Control functions #####
1218:Drivers/STM32F4xx_HAL_Driver/Src/stm32f4xx_hal_rtc_ex.c ****  ===============================================================================
1219:Drivers/STM32F4xx_HAL_Driver/Src/stm32f4xx_hal_rtc_ex.c ****     [..]
1220:Drivers/STM32F4xx_HAL_Driver/Src/stm32f4xx_hal_rtc_ex.c ****     This subsection provides functions allowing to
1221:Drivers/STM32F4xx_HAL_Driver/Src/stm32f4xx_hal_rtc_ex.c ****       (+) Write a data in a specified RTC Backup data register
1222:Drivers/STM32F4xx_HAL_Driver/Src/stm32f4xx_hal_rtc_ex.c ****       (+) Read a data in a specified RTC Backup data register
1223:Drivers/STM32F4xx_HAL_Driver/Src/stm32f4xx_hal_rtc_ex.c ****       (+) Set the Coarse calibration parameters.
ARM GAS  C:\Users\TGSPOC~1\AppData\Local\Temp\ccVI6l15.s 			page 65


1224:Drivers/STM32F4xx_HAL_Driver/Src/stm32f4xx_hal_rtc_ex.c ****       (+) Deactivate the Coarse calibration parameters
1225:Drivers/STM32F4xx_HAL_Driver/Src/stm32f4xx_hal_rtc_ex.c ****       (+) Set the Smooth calibration parameters.
1226:Drivers/STM32F4xx_HAL_Driver/Src/stm32f4xx_hal_rtc_ex.c ****       (+) Configure the Synchronization Shift Control Settings.
1227:Drivers/STM32F4xx_HAL_Driver/Src/stm32f4xx_hal_rtc_ex.c ****       (+) Configure the Calibration Pinout (RTC_CALIB) Selection (1Hz or 512Hz).
1228:Drivers/STM32F4xx_HAL_Driver/Src/stm32f4xx_hal_rtc_ex.c ****       (+) Deactivate the Calibration Pinout (RTC_CALIB) Selection (1Hz or 512Hz).
1229:Drivers/STM32F4xx_HAL_Driver/Src/stm32f4xx_hal_rtc_ex.c ****       (+) Enable the RTC reference clock detection.
1230:Drivers/STM32F4xx_HAL_Driver/Src/stm32f4xx_hal_rtc_ex.c ****       (+) Disable the RTC reference clock detection.
1231:Drivers/STM32F4xx_HAL_Driver/Src/stm32f4xx_hal_rtc_ex.c ****       (+) Enable the Bypass Shadow feature.
1232:Drivers/STM32F4xx_HAL_Driver/Src/stm32f4xx_hal_rtc_ex.c ****       (+) Disable the Bypass Shadow feature.
1233:Drivers/STM32F4xx_HAL_Driver/Src/stm32f4xx_hal_rtc_ex.c **** 
1234:Drivers/STM32F4xx_HAL_Driver/Src/stm32f4xx_hal_rtc_ex.c **** @endverbatim
1235:Drivers/STM32F4xx_HAL_Driver/Src/stm32f4xx_hal_rtc_ex.c ****   * @{
1236:Drivers/STM32F4xx_HAL_Driver/Src/stm32f4xx_hal_rtc_ex.c ****   */
1237:Drivers/STM32F4xx_HAL_Driver/Src/stm32f4xx_hal_rtc_ex.c **** 
1238:Drivers/STM32F4xx_HAL_Driver/Src/stm32f4xx_hal_rtc_ex.c **** /**
1239:Drivers/STM32F4xx_HAL_Driver/Src/stm32f4xx_hal_rtc_ex.c ****   * @brief  Writes a data in a specified RTC Backup data register.
1240:Drivers/STM32F4xx_HAL_Driver/Src/stm32f4xx_hal_rtc_ex.c ****   * @param  hrtc pointer to a RTC_HandleTypeDef structure that contains
1241:Drivers/STM32F4xx_HAL_Driver/Src/stm32f4xx_hal_rtc_ex.c ****   *                the configuration information for RTC.
1242:Drivers/STM32F4xx_HAL_Driver/Src/stm32f4xx_hal_rtc_ex.c ****   * @param  BackupRegister RTC Backup data Register number.
1243:Drivers/STM32F4xx_HAL_Driver/Src/stm32f4xx_hal_rtc_ex.c ****   *          This parameter can be: RTC_BKP_DRx (where x can be from 0 to 19)
1244:Drivers/STM32F4xx_HAL_Driver/Src/stm32f4xx_hal_rtc_ex.c ****   *                                 to specify the register.
1245:Drivers/STM32F4xx_HAL_Driver/Src/stm32f4xx_hal_rtc_ex.c ****   * @param  Data Data to be written in the specified RTC Backup data register.
1246:Drivers/STM32F4xx_HAL_Driver/Src/stm32f4xx_hal_rtc_ex.c ****   * @retval None
1247:Drivers/STM32F4xx_HAL_Driver/Src/stm32f4xx_hal_rtc_ex.c ****   */
1248:Drivers/STM32F4xx_HAL_Driver/Src/stm32f4xx_hal_rtc_ex.c **** void HAL_RTCEx_BKUPWrite(RTC_HandleTypeDef *hrtc, uint32_t BackupRegister, uint32_t Data)
1249:Drivers/STM32F4xx_HAL_Driver/Src/stm32f4xx_hal_rtc_ex.c **** {
 2441              		.loc 1 1249 1
 2442              		.cfi_startproc
 2443              		@ args = 0, pretend = 0, frame = 24
 2444              		@ frame_needed = 1, uses_anonymous_args = 0
 2445              		@ link register save eliminated.
 2446 0000 80B4     		push	{r7}
 2447              	.LCFI106:
 2448              		.cfi_def_cfa_offset 4
 2449              		.cfi_offset 7, -4
 2450 0002 87B0     		sub	sp, sp, #28
 2451              	.LCFI107:
 2452              		.cfi_def_cfa_offset 32
 2453 0004 00AF     		add	r7, sp, #0
 2454              	.LCFI108:
 2455              		.cfi_def_cfa_register 7
 2456 0006 F860     		str	r0, [r7, #12]
 2457 0008 B960     		str	r1, [r7, #8]
 2458 000a 7A60     		str	r2, [r7, #4]
1250:Drivers/STM32F4xx_HAL_Driver/Src/stm32f4xx_hal_rtc_ex.c ****   uint32_t tmp = 0U;
 2459              		.loc 1 1250 12
 2460 000c 0023     		movs	r3, #0
 2461 000e 7B61     		str	r3, [r7, #20]
1251:Drivers/STM32F4xx_HAL_Driver/Src/stm32f4xx_hal_rtc_ex.c **** 
1252:Drivers/STM32F4xx_HAL_Driver/Src/stm32f4xx_hal_rtc_ex.c ****   /* Check the parameters */
1253:Drivers/STM32F4xx_HAL_Driver/Src/stm32f4xx_hal_rtc_ex.c ****   assert_param(IS_RTC_BKP(BackupRegister));
1254:Drivers/STM32F4xx_HAL_Driver/Src/stm32f4xx_hal_rtc_ex.c **** 
1255:Drivers/STM32F4xx_HAL_Driver/Src/stm32f4xx_hal_rtc_ex.c ****   tmp = (uint32_t) & (hrtc->Instance->BKP0R);
 2462              		.loc 1 1255 27
 2463 0010 FB68     		ldr	r3, [r7, #12]
 2464 0012 1B68     		ldr	r3, [r3]
 2465              		.loc 1 1255 20
ARM GAS  C:\Users\TGSPOC~1\AppData\Local\Temp\ccVI6l15.s 			page 66


 2466 0014 5033     		adds	r3, r3, #80
 2467              		.loc 1 1255 7
 2468 0016 7B61     		str	r3, [r7, #20]
1256:Drivers/STM32F4xx_HAL_Driver/Src/stm32f4xx_hal_rtc_ex.c ****   tmp += (BackupRegister * 4U);
 2469              		.loc 1 1256 26
 2470 0018 BB68     		ldr	r3, [r7, #8]
 2471 001a 9B00     		lsls	r3, r3, #2
 2472              		.loc 1 1256 7
 2473 001c 7A69     		ldr	r2, [r7, #20]
 2474 001e 1344     		add	r3, r3, r2
 2475 0020 7B61     		str	r3, [r7, #20]
1257:Drivers/STM32F4xx_HAL_Driver/Src/stm32f4xx_hal_rtc_ex.c **** 
1258:Drivers/STM32F4xx_HAL_Driver/Src/stm32f4xx_hal_rtc_ex.c ****   /* Write the specified register */
1259:Drivers/STM32F4xx_HAL_Driver/Src/stm32f4xx_hal_rtc_ex.c ****   *(__IO uint32_t *)tmp = (uint32_t)Data;
 2476              		.loc 1 1259 4
 2477 0022 7B69     		ldr	r3, [r7, #20]
 2478              		.loc 1 1259 25
 2479 0024 7A68     		ldr	r2, [r7, #4]
 2480 0026 1A60     		str	r2, [r3]
1260:Drivers/STM32F4xx_HAL_Driver/Src/stm32f4xx_hal_rtc_ex.c **** }
 2481              		.loc 1 1260 1
 2482 0028 00BF     		nop
 2483 002a 1C37     		adds	r7, r7, #28
 2484              	.LCFI109:
 2485              		.cfi_def_cfa_offset 4
 2486 002c BD46     		mov	sp, r7
 2487              	.LCFI110:
 2488              		.cfi_def_cfa_register 13
 2489              		@ sp needed
 2490 002e 5DF8047B 		ldr	r7, [sp], #4
 2491              	.LCFI111:
 2492              		.cfi_restore 7
 2493              		.cfi_def_cfa_offset 0
 2494 0032 7047     		bx	lr
 2495              		.cfi_endproc
 2496              	.LFE153:
 2498              		.section	.text.HAL_RTCEx_BKUPRead,"ax",%progbits
 2499              		.align	1
 2500              		.global	HAL_RTCEx_BKUPRead
 2501              		.syntax unified
 2502              		.thumb
 2503              		.thumb_func
 2505              	HAL_RTCEx_BKUPRead:
 2506              	.LFB154:
1261:Drivers/STM32F4xx_HAL_Driver/Src/stm32f4xx_hal_rtc_ex.c **** 
1262:Drivers/STM32F4xx_HAL_Driver/Src/stm32f4xx_hal_rtc_ex.c **** /**
1263:Drivers/STM32F4xx_HAL_Driver/Src/stm32f4xx_hal_rtc_ex.c ****   * @brief  Reads data from the specified RTC Backup data Register.
1264:Drivers/STM32F4xx_HAL_Driver/Src/stm32f4xx_hal_rtc_ex.c ****   * @param  hrtc pointer to a RTC_HandleTypeDef structure that contains
1265:Drivers/STM32F4xx_HAL_Driver/Src/stm32f4xx_hal_rtc_ex.c ****   *                the configuration information for RTC.
1266:Drivers/STM32F4xx_HAL_Driver/Src/stm32f4xx_hal_rtc_ex.c ****   * @param  BackupRegister RTC Backup data Register number.
1267:Drivers/STM32F4xx_HAL_Driver/Src/stm32f4xx_hal_rtc_ex.c ****   *          This parameter can be: RTC_BKP_DRx (where x can be from 0 to 19)
1268:Drivers/STM32F4xx_HAL_Driver/Src/stm32f4xx_hal_rtc_ex.c ****   *                                 to specify the register.
1269:Drivers/STM32F4xx_HAL_Driver/Src/stm32f4xx_hal_rtc_ex.c ****   * @retval Read value
1270:Drivers/STM32F4xx_HAL_Driver/Src/stm32f4xx_hal_rtc_ex.c ****   */
1271:Drivers/STM32F4xx_HAL_Driver/Src/stm32f4xx_hal_rtc_ex.c **** uint32_t HAL_RTCEx_BKUPRead(RTC_HandleTypeDef *hrtc, uint32_t BackupRegister)
1272:Drivers/STM32F4xx_HAL_Driver/Src/stm32f4xx_hal_rtc_ex.c **** {
 2507              		.loc 1 1272 1
ARM GAS  C:\Users\TGSPOC~1\AppData\Local\Temp\ccVI6l15.s 			page 67


 2508              		.cfi_startproc
 2509              		@ args = 0, pretend = 0, frame = 16
 2510              		@ frame_needed = 1, uses_anonymous_args = 0
 2511              		@ link register save eliminated.
 2512 0000 80B4     		push	{r7}
 2513              	.LCFI112:
 2514              		.cfi_def_cfa_offset 4
 2515              		.cfi_offset 7, -4
 2516 0002 85B0     		sub	sp, sp, #20
 2517              	.LCFI113:
 2518              		.cfi_def_cfa_offset 24
 2519 0004 00AF     		add	r7, sp, #0
 2520              	.LCFI114:
 2521              		.cfi_def_cfa_register 7
 2522 0006 7860     		str	r0, [r7, #4]
 2523 0008 3960     		str	r1, [r7]
1273:Drivers/STM32F4xx_HAL_Driver/Src/stm32f4xx_hal_rtc_ex.c ****   uint32_t tmp = 0U;
 2524              		.loc 1 1273 12
 2525 000a 0023     		movs	r3, #0
 2526 000c FB60     		str	r3, [r7, #12]
1274:Drivers/STM32F4xx_HAL_Driver/Src/stm32f4xx_hal_rtc_ex.c **** 
1275:Drivers/STM32F4xx_HAL_Driver/Src/stm32f4xx_hal_rtc_ex.c ****   /* Check the parameters */
1276:Drivers/STM32F4xx_HAL_Driver/Src/stm32f4xx_hal_rtc_ex.c ****   assert_param(IS_RTC_BKP(BackupRegister));
1277:Drivers/STM32F4xx_HAL_Driver/Src/stm32f4xx_hal_rtc_ex.c **** 
1278:Drivers/STM32F4xx_HAL_Driver/Src/stm32f4xx_hal_rtc_ex.c ****   tmp = (uint32_t) & (hrtc->Instance->BKP0R);
 2527              		.loc 1 1278 27
 2528 000e 7B68     		ldr	r3, [r7, #4]
 2529 0010 1B68     		ldr	r3, [r3]
 2530              		.loc 1 1278 20
 2531 0012 5033     		adds	r3, r3, #80
 2532              		.loc 1 1278 7
 2533 0014 FB60     		str	r3, [r7, #12]
1279:Drivers/STM32F4xx_HAL_Driver/Src/stm32f4xx_hal_rtc_ex.c ****   tmp += (BackupRegister * 4U);
 2534              		.loc 1 1279 26
 2535 0016 3B68     		ldr	r3, [r7]
 2536 0018 9B00     		lsls	r3, r3, #2
 2537              		.loc 1 1279 7
 2538 001a FA68     		ldr	r2, [r7, #12]
 2539 001c 1344     		add	r3, r3, r2
 2540 001e FB60     		str	r3, [r7, #12]
1280:Drivers/STM32F4xx_HAL_Driver/Src/stm32f4xx_hal_rtc_ex.c **** 
1281:Drivers/STM32F4xx_HAL_Driver/Src/stm32f4xx_hal_rtc_ex.c ****   /* Read the specified register */
1282:Drivers/STM32F4xx_HAL_Driver/Src/stm32f4xx_hal_rtc_ex.c ****   return (*(__IO uint32_t *)tmp);
 2541              		.loc 1 1282 12
 2542 0020 FB68     		ldr	r3, [r7, #12]
 2543              		.loc 1 1282 11
 2544 0022 1B68     		ldr	r3, [r3]
1283:Drivers/STM32F4xx_HAL_Driver/Src/stm32f4xx_hal_rtc_ex.c **** }
 2545              		.loc 1 1283 1
 2546 0024 1846     		mov	r0, r3
 2547 0026 1437     		adds	r7, r7, #20
 2548              	.LCFI115:
 2549              		.cfi_def_cfa_offset 4
 2550 0028 BD46     		mov	sp, r7
 2551              	.LCFI116:
 2552              		.cfi_def_cfa_register 13
 2553              		@ sp needed
ARM GAS  C:\Users\TGSPOC~1\AppData\Local\Temp\ccVI6l15.s 			page 68


 2554 002a 5DF8047B 		ldr	r7, [sp], #4
 2555              	.LCFI117:
 2556              		.cfi_restore 7
 2557              		.cfi_def_cfa_offset 0
 2558 002e 7047     		bx	lr
 2559              		.cfi_endproc
 2560              	.LFE154:
 2562              		.section	.text.HAL_RTCEx_SetCoarseCalib,"ax",%progbits
 2563              		.align	1
 2564              		.global	HAL_RTCEx_SetCoarseCalib
 2565              		.syntax unified
 2566              		.thumb
 2567              		.thumb_func
 2569              	HAL_RTCEx_SetCoarseCalib:
 2570              	.LFB155:
1284:Drivers/STM32F4xx_HAL_Driver/Src/stm32f4xx_hal_rtc_ex.c **** 
1285:Drivers/STM32F4xx_HAL_Driver/Src/stm32f4xx_hal_rtc_ex.c **** /**
1286:Drivers/STM32F4xx_HAL_Driver/Src/stm32f4xx_hal_rtc_ex.c ****   * @brief  Sets the Coarse calibration parameters.
1287:Drivers/STM32F4xx_HAL_Driver/Src/stm32f4xx_hal_rtc_ex.c ****   * @param  hrtc pointer to a RTC_HandleTypeDef structure that contains
1288:Drivers/STM32F4xx_HAL_Driver/Src/stm32f4xx_hal_rtc_ex.c ****   *                the configuration information for RTC.
1289:Drivers/STM32F4xx_HAL_Driver/Src/stm32f4xx_hal_rtc_ex.c ****   * @param  CalibSign Specifies the sign of the coarse calibration value.
1290:Drivers/STM32F4xx_HAL_Driver/Src/stm32f4xx_hal_rtc_ex.c ****   *          This parameter can be  one of the following values:
1291:Drivers/STM32F4xx_HAL_Driver/Src/stm32f4xx_hal_rtc_ex.c ****   *             @arg RTC_CALIBSIGN_POSITIVE: The value sign is positive
1292:Drivers/STM32F4xx_HAL_Driver/Src/stm32f4xx_hal_rtc_ex.c ****   *             @arg RTC_CALIBSIGN_NEGATIVE: The value sign is negative
1293:Drivers/STM32F4xx_HAL_Driver/Src/stm32f4xx_hal_rtc_ex.c ****   * @param  Value value of coarse calibration expressed in ppm (coded on 5 bits).
1294:Drivers/STM32F4xx_HAL_Driver/Src/stm32f4xx_hal_rtc_ex.c ****   *
1295:Drivers/STM32F4xx_HAL_Driver/Src/stm32f4xx_hal_rtc_ex.c ****   * @note   This Calibration value should be between 0 and 63 when using negative
1296:Drivers/STM32F4xx_HAL_Driver/Src/stm32f4xx_hal_rtc_ex.c ****   *         sign with a 2-ppm step.
1297:Drivers/STM32F4xx_HAL_Driver/Src/stm32f4xx_hal_rtc_ex.c ****   *
1298:Drivers/STM32F4xx_HAL_Driver/Src/stm32f4xx_hal_rtc_ex.c ****   * @note   This Calibration value should be between 0 and 126 when using positive
1299:Drivers/STM32F4xx_HAL_Driver/Src/stm32f4xx_hal_rtc_ex.c ****   *         sign with a 4-ppm step.
1300:Drivers/STM32F4xx_HAL_Driver/Src/stm32f4xx_hal_rtc_ex.c ****   * @retval HAL status
1301:Drivers/STM32F4xx_HAL_Driver/Src/stm32f4xx_hal_rtc_ex.c ****   */
1302:Drivers/STM32F4xx_HAL_Driver/Src/stm32f4xx_hal_rtc_ex.c **** HAL_StatusTypeDef HAL_RTCEx_SetCoarseCalib(RTC_HandleTypeDef *hrtc, uint32_t CalibSign, uint32_t Va
1303:Drivers/STM32F4xx_HAL_Driver/Src/stm32f4xx_hal_rtc_ex.c **** {
 2571              		.loc 1 1303 1
 2572              		.cfi_startproc
 2573              		@ args = 0, pretend = 0, frame = 24
 2574              		@ frame_needed = 1, uses_anonymous_args = 0
 2575 0000 80B5     		push	{r7, lr}
 2576              	.LCFI118:
 2577              		.cfi_def_cfa_offset 8
 2578              		.cfi_offset 7, -8
 2579              		.cfi_offset 14, -4
 2580 0002 86B0     		sub	sp, sp, #24
 2581              	.LCFI119:
 2582              		.cfi_def_cfa_offset 32
 2583 0004 00AF     		add	r7, sp, #0
 2584              	.LCFI120:
 2585              		.cfi_def_cfa_register 7
 2586 0006 F860     		str	r0, [r7, #12]
 2587 0008 B960     		str	r1, [r7, #8]
 2588 000a 7A60     		str	r2, [r7, #4]
1304:Drivers/STM32F4xx_HAL_Driver/Src/stm32f4xx_hal_rtc_ex.c ****   HAL_StatusTypeDef status;
1305:Drivers/STM32F4xx_HAL_Driver/Src/stm32f4xx_hal_rtc_ex.c **** 
1306:Drivers/STM32F4xx_HAL_Driver/Src/stm32f4xx_hal_rtc_ex.c ****   /* Check the parameters */
1307:Drivers/STM32F4xx_HAL_Driver/Src/stm32f4xx_hal_rtc_ex.c ****   assert_param(IS_RTC_CALIB_SIGN(CalibSign));
ARM GAS  C:\Users\TGSPOC~1\AppData\Local\Temp\ccVI6l15.s 			page 69


1308:Drivers/STM32F4xx_HAL_Driver/Src/stm32f4xx_hal_rtc_ex.c ****   assert_param(IS_RTC_CALIB_VALUE(Value));
1309:Drivers/STM32F4xx_HAL_Driver/Src/stm32f4xx_hal_rtc_ex.c **** 
1310:Drivers/STM32F4xx_HAL_Driver/Src/stm32f4xx_hal_rtc_ex.c ****   /* Process Locked */
1311:Drivers/STM32F4xx_HAL_Driver/Src/stm32f4xx_hal_rtc_ex.c ****   __HAL_LOCK(hrtc);
 2589              		.loc 1 1311 3
 2590 000c FB68     		ldr	r3, [r7, #12]
 2591 000e 1B7F     		ldrb	r3, [r3, #28]	@ zero_extendqisi2
 2592 0010 012B     		cmp	r3, #1
 2593 0012 01D1     		bne	.L89
 2594              		.loc 1 1311 3 is_stmt 0 discriminator 1
 2595 0014 0223     		movs	r3, #2
 2596              		.loc 1 1311 3
 2597 0016 36E0     		b	.L90
 2598              	.L89:
 2599              		.loc 1 1311 3 discriminator 2
 2600 0018 FB68     		ldr	r3, [r7, #12]
 2601 001a 0122     		movs	r2, #1
 2602 001c 1A77     		strb	r2, [r3, #28]
1312:Drivers/STM32F4xx_HAL_Driver/Src/stm32f4xx_hal_rtc_ex.c **** 
1313:Drivers/STM32F4xx_HAL_Driver/Src/stm32f4xx_hal_rtc_ex.c ****   hrtc->State = HAL_RTC_STATE_BUSY;
 2603              		.loc 1 1313 15 is_stmt 1
 2604 001e FB68     		ldr	r3, [r7, #12]
 2605 0020 0222     		movs	r2, #2
 2606 0022 5A77     		strb	r2, [r3, #29]
1314:Drivers/STM32F4xx_HAL_Driver/Src/stm32f4xx_hal_rtc_ex.c **** 
1315:Drivers/STM32F4xx_HAL_Driver/Src/stm32f4xx_hal_rtc_ex.c ****   /* Disable the write protection for RTC registers */
1316:Drivers/STM32F4xx_HAL_Driver/Src/stm32f4xx_hal_rtc_ex.c ****   __HAL_RTC_WRITEPROTECTION_DISABLE(hrtc);
 2607              		.loc 1 1316 3
 2608 0024 FB68     		ldr	r3, [r7, #12]
 2609 0026 1B68     		ldr	r3, [r3]
 2610 0028 CA22     		movs	r2, #202
 2611 002a 5A62     		str	r2, [r3, #36]
 2612 002c FB68     		ldr	r3, [r7, #12]
 2613 002e 1B68     		ldr	r3, [r3]
 2614 0030 5322     		movs	r2, #83
 2615 0032 5A62     		str	r2, [r3, #36]
1317:Drivers/STM32F4xx_HAL_Driver/Src/stm32f4xx_hal_rtc_ex.c **** 
1318:Drivers/STM32F4xx_HAL_Driver/Src/stm32f4xx_hal_rtc_ex.c ****   /* Enter Initialization mode */
1319:Drivers/STM32F4xx_HAL_Driver/Src/stm32f4xx_hal_rtc_ex.c ****   status = RTC_EnterInitMode(hrtc);
 2616              		.loc 1 1319 12
 2617 0034 F868     		ldr	r0, [r7, #12]
 2618 0036 FFF7FEFF 		bl	RTC_EnterInitMode
 2619 003a 0346     		mov	r3, r0
 2620 003c FB75     		strb	r3, [r7, #23]
1320:Drivers/STM32F4xx_HAL_Driver/Src/stm32f4xx_hal_rtc_ex.c **** 
1321:Drivers/STM32F4xx_HAL_Driver/Src/stm32f4xx_hal_rtc_ex.c ****   if (status == HAL_OK)
 2621              		.loc 1 1321 6
 2622 003e FB7D     		ldrb	r3, [r7, #23]	@ zero_extendqisi2
 2623 0040 002B     		cmp	r3, #0
 2624 0042 12D1     		bne	.L91
1322:Drivers/STM32F4xx_HAL_Driver/Src/stm32f4xx_hal_rtc_ex.c ****   {
1323:Drivers/STM32F4xx_HAL_Driver/Src/stm32f4xx_hal_rtc_ex.c ****     /* Enable the Coarse Calibration */
1324:Drivers/STM32F4xx_HAL_Driver/Src/stm32f4xx_hal_rtc_ex.c ****     __HAL_RTC_COARSE_CALIB_ENABLE(hrtc);
 2625              		.loc 1 1324 5
 2626 0044 FB68     		ldr	r3, [r7, #12]
 2627 0046 1B68     		ldr	r3, [r3]
 2628 0048 9A68     		ldr	r2, [r3, #8]
ARM GAS  C:\Users\TGSPOC~1\AppData\Local\Temp\ccVI6l15.s 			page 70


 2629 004a FB68     		ldr	r3, [r7, #12]
 2630 004c 1B68     		ldr	r3, [r3]
 2631 004e 42F08002 		orr	r2, r2, #128
 2632 0052 9A60     		str	r2, [r3, #8]
1325:Drivers/STM32F4xx_HAL_Driver/Src/stm32f4xx_hal_rtc_ex.c **** 
1326:Drivers/STM32F4xx_HAL_Driver/Src/stm32f4xx_hal_rtc_ex.c ****     /* Set the coarse calibration value */
1327:Drivers/STM32F4xx_HAL_Driver/Src/stm32f4xx_hal_rtc_ex.c ****     hrtc->Instance->CALIBR = (uint32_t)(CalibSign | Value);
 2633              		.loc 1 1327 9
 2634 0054 FB68     		ldr	r3, [r7, #12]
 2635 0056 1B68     		ldr	r3, [r3]
 2636              		.loc 1 1327 51
 2637 0058 B968     		ldr	r1, [r7, #8]
 2638 005a 7A68     		ldr	r2, [r7, #4]
 2639 005c 0A43     		orrs	r2, r2, r1
 2640              		.loc 1 1327 28
 2641 005e 9A61     		str	r2, [r3, #24]
1328:Drivers/STM32F4xx_HAL_Driver/Src/stm32f4xx_hal_rtc_ex.c **** 
1329:Drivers/STM32F4xx_HAL_Driver/Src/stm32f4xx_hal_rtc_ex.c ****     /* Exit Initialization mode */
1330:Drivers/STM32F4xx_HAL_Driver/Src/stm32f4xx_hal_rtc_ex.c ****     status = RTC_ExitInitMode(hrtc);
 2642              		.loc 1 1330 14
 2643 0060 F868     		ldr	r0, [r7, #12]
 2644 0062 FFF7FEFF 		bl	RTC_ExitInitMode
 2645 0066 0346     		mov	r3, r0
 2646 0068 FB75     		strb	r3, [r7, #23]
 2647              	.L91:
1331:Drivers/STM32F4xx_HAL_Driver/Src/stm32f4xx_hal_rtc_ex.c ****   }
1332:Drivers/STM32F4xx_HAL_Driver/Src/stm32f4xx_hal_rtc_ex.c **** 
1333:Drivers/STM32F4xx_HAL_Driver/Src/stm32f4xx_hal_rtc_ex.c ****   if (status == HAL_OK)
 2648              		.loc 1 1333 6
 2649 006a FB7D     		ldrb	r3, [r7, #23]	@ zero_extendqisi2
 2650 006c 002B     		cmp	r3, #0
 2651 006e 02D1     		bne	.L92
1334:Drivers/STM32F4xx_HAL_Driver/Src/stm32f4xx_hal_rtc_ex.c ****   {
1335:Drivers/STM32F4xx_HAL_Driver/Src/stm32f4xx_hal_rtc_ex.c ****     hrtc->State = HAL_RTC_STATE_READY;
 2652              		.loc 1 1335 17
 2653 0070 FB68     		ldr	r3, [r7, #12]
 2654 0072 0122     		movs	r2, #1
 2655 0074 5A77     		strb	r2, [r3, #29]
 2656              	.L92:
1336:Drivers/STM32F4xx_HAL_Driver/Src/stm32f4xx_hal_rtc_ex.c ****   }
1337:Drivers/STM32F4xx_HAL_Driver/Src/stm32f4xx_hal_rtc_ex.c **** 
1338:Drivers/STM32F4xx_HAL_Driver/Src/stm32f4xx_hal_rtc_ex.c ****   /* Enable the write protection for RTC registers */
1339:Drivers/STM32F4xx_HAL_Driver/Src/stm32f4xx_hal_rtc_ex.c ****   __HAL_RTC_WRITEPROTECTION_ENABLE(hrtc);
 2657              		.loc 1 1339 3
 2658 0076 FB68     		ldr	r3, [r7, #12]
 2659 0078 1B68     		ldr	r3, [r3]
 2660 007a FF22     		movs	r2, #255
 2661 007c 5A62     		str	r2, [r3, #36]
1340:Drivers/STM32F4xx_HAL_Driver/Src/stm32f4xx_hal_rtc_ex.c **** 
1341:Drivers/STM32F4xx_HAL_Driver/Src/stm32f4xx_hal_rtc_ex.c ****   /* Process Unlocked */
1342:Drivers/STM32F4xx_HAL_Driver/Src/stm32f4xx_hal_rtc_ex.c ****   __HAL_UNLOCK(hrtc);
 2662              		.loc 1 1342 3
 2663 007e FB68     		ldr	r3, [r7, #12]
 2664 0080 0022     		movs	r2, #0
 2665 0082 1A77     		strb	r2, [r3, #28]
1343:Drivers/STM32F4xx_HAL_Driver/Src/stm32f4xx_hal_rtc_ex.c **** 
1344:Drivers/STM32F4xx_HAL_Driver/Src/stm32f4xx_hal_rtc_ex.c ****   return status;
ARM GAS  C:\Users\TGSPOC~1\AppData\Local\Temp\ccVI6l15.s 			page 71


 2666              		.loc 1 1344 10
 2667 0084 FB7D     		ldrb	r3, [r7, #23]	@ zero_extendqisi2
 2668              	.L90:
1345:Drivers/STM32F4xx_HAL_Driver/Src/stm32f4xx_hal_rtc_ex.c **** }
 2669              		.loc 1 1345 1
 2670 0086 1846     		mov	r0, r3
 2671 0088 1837     		adds	r7, r7, #24
 2672              	.LCFI121:
 2673              		.cfi_def_cfa_offset 8
 2674 008a BD46     		mov	sp, r7
 2675              	.LCFI122:
 2676              		.cfi_def_cfa_register 13
 2677              		@ sp needed
 2678 008c 80BD     		pop	{r7, pc}
 2679              		.cfi_endproc
 2680              	.LFE155:
 2682              		.section	.text.HAL_RTCEx_DeactivateCoarseCalib,"ax",%progbits
 2683              		.align	1
 2684              		.global	HAL_RTCEx_DeactivateCoarseCalib
 2685              		.syntax unified
 2686              		.thumb
 2687              		.thumb_func
 2689              	HAL_RTCEx_DeactivateCoarseCalib:
 2690              	.LFB156:
1346:Drivers/STM32F4xx_HAL_Driver/Src/stm32f4xx_hal_rtc_ex.c **** 
1347:Drivers/STM32F4xx_HAL_Driver/Src/stm32f4xx_hal_rtc_ex.c **** /**
1348:Drivers/STM32F4xx_HAL_Driver/Src/stm32f4xx_hal_rtc_ex.c ****   * @brief  Deactivates the Coarse calibration parameters.
1349:Drivers/STM32F4xx_HAL_Driver/Src/stm32f4xx_hal_rtc_ex.c ****   * @param  hrtc pointer to a RTC_HandleTypeDef structure that contains
1350:Drivers/STM32F4xx_HAL_Driver/Src/stm32f4xx_hal_rtc_ex.c ****   *                the configuration information for RTC.
1351:Drivers/STM32F4xx_HAL_Driver/Src/stm32f4xx_hal_rtc_ex.c ****   * @retval HAL status
1352:Drivers/STM32F4xx_HAL_Driver/Src/stm32f4xx_hal_rtc_ex.c ****   */
1353:Drivers/STM32F4xx_HAL_Driver/Src/stm32f4xx_hal_rtc_ex.c **** HAL_StatusTypeDef HAL_RTCEx_DeactivateCoarseCalib(RTC_HandleTypeDef *hrtc)
1354:Drivers/STM32F4xx_HAL_Driver/Src/stm32f4xx_hal_rtc_ex.c **** {
 2691              		.loc 1 1354 1
 2692              		.cfi_startproc
 2693              		@ args = 0, pretend = 0, frame = 16
 2694              		@ frame_needed = 1, uses_anonymous_args = 0
 2695 0000 80B5     		push	{r7, lr}
 2696              	.LCFI123:
 2697              		.cfi_def_cfa_offset 8
 2698              		.cfi_offset 7, -8
 2699              		.cfi_offset 14, -4
 2700 0002 84B0     		sub	sp, sp, #16
 2701              	.LCFI124:
 2702              		.cfi_def_cfa_offset 24
 2703 0004 00AF     		add	r7, sp, #0
 2704              	.LCFI125:
 2705              		.cfi_def_cfa_register 7
 2706 0006 7860     		str	r0, [r7, #4]
1355:Drivers/STM32F4xx_HAL_Driver/Src/stm32f4xx_hal_rtc_ex.c ****   HAL_StatusTypeDef status;
1356:Drivers/STM32F4xx_HAL_Driver/Src/stm32f4xx_hal_rtc_ex.c **** 
1357:Drivers/STM32F4xx_HAL_Driver/Src/stm32f4xx_hal_rtc_ex.c ****   /* Process Locked */
1358:Drivers/STM32F4xx_HAL_Driver/Src/stm32f4xx_hal_rtc_ex.c ****   __HAL_LOCK(hrtc);
 2707              		.loc 1 1358 3
 2708 0008 7B68     		ldr	r3, [r7, #4]
 2709 000a 1B7F     		ldrb	r3, [r3, #28]	@ zero_extendqisi2
 2710 000c 012B     		cmp	r3, #1
ARM GAS  C:\Users\TGSPOC~1\AppData\Local\Temp\ccVI6l15.s 			page 72


 2711 000e 01D1     		bne	.L94
 2712              		.loc 1 1358 3 is_stmt 0 discriminator 1
 2713 0010 0223     		movs	r3, #2
 2714              		.loc 1 1358 3
 2715 0012 30E0     		b	.L95
 2716              	.L94:
 2717              		.loc 1 1358 3 discriminator 2
 2718 0014 7B68     		ldr	r3, [r7, #4]
 2719 0016 0122     		movs	r2, #1
 2720 0018 1A77     		strb	r2, [r3, #28]
1359:Drivers/STM32F4xx_HAL_Driver/Src/stm32f4xx_hal_rtc_ex.c **** 
1360:Drivers/STM32F4xx_HAL_Driver/Src/stm32f4xx_hal_rtc_ex.c ****   hrtc->State = HAL_RTC_STATE_BUSY;
 2721              		.loc 1 1360 15 is_stmt 1
 2722 001a 7B68     		ldr	r3, [r7, #4]
 2723 001c 0222     		movs	r2, #2
 2724 001e 5A77     		strb	r2, [r3, #29]
1361:Drivers/STM32F4xx_HAL_Driver/Src/stm32f4xx_hal_rtc_ex.c **** 
1362:Drivers/STM32F4xx_HAL_Driver/Src/stm32f4xx_hal_rtc_ex.c ****   /* Disable the write protection for RTC registers */
1363:Drivers/STM32F4xx_HAL_Driver/Src/stm32f4xx_hal_rtc_ex.c ****   __HAL_RTC_WRITEPROTECTION_DISABLE(hrtc);
 2725              		.loc 1 1363 3
 2726 0020 7B68     		ldr	r3, [r7, #4]
 2727 0022 1B68     		ldr	r3, [r3]
 2728 0024 CA22     		movs	r2, #202
 2729 0026 5A62     		str	r2, [r3, #36]
 2730 0028 7B68     		ldr	r3, [r7, #4]
 2731 002a 1B68     		ldr	r3, [r3]
 2732 002c 5322     		movs	r2, #83
 2733 002e 5A62     		str	r2, [r3, #36]
1364:Drivers/STM32F4xx_HAL_Driver/Src/stm32f4xx_hal_rtc_ex.c **** 
1365:Drivers/STM32F4xx_HAL_Driver/Src/stm32f4xx_hal_rtc_ex.c ****   /* Enter Initialization mode */
1366:Drivers/STM32F4xx_HAL_Driver/Src/stm32f4xx_hal_rtc_ex.c ****   status = RTC_EnterInitMode(hrtc);
 2734              		.loc 1 1366 12
 2735 0030 7868     		ldr	r0, [r7, #4]
 2736 0032 FFF7FEFF 		bl	RTC_EnterInitMode
 2737 0036 0346     		mov	r3, r0
 2738 0038 FB73     		strb	r3, [r7, #15]
1367:Drivers/STM32F4xx_HAL_Driver/Src/stm32f4xx_hal_rtc_ex.c **** 
1368:Drivers/STM32F4xx_HAL_Driver/Src/stm32f4xx_hal_rtc_ex.c ****   if (status == HAL_OK)
 2739              		.loc 1 1368 6
 2740 003a FB7B     		ldrb	r3, [r7, #15]	@ zero_extendqisi2
 2741 003c 002B     		cmp	r3, #0
 2742 003e 0CD1     		bne	.L96
1369:Drivers/STM32F4xx_HAL_Driver/Src/stm32f4xx_hal_rtc_ex.c ****   {
1370:Drivers/STM32F4xx_HAL_Driver/Src/stm32f4xx_hal_rtc_ex.c ****     /* Disable the Coarse Calibration */
1371:Drivers/STM32F4xx_HAL_Driver/Src/stm32f4xx_hal_rtc_ex.c ****     __HAL_RTC_COARSE_CALIB_DISABLE(hrtc);
 2743              		.loc 1 1371 5
 2744 0040 7B68     		ldr	r3, [r7, #4]
 2745 0042 1B68     		ldr	r3, [r3]
 2746 0044 9A68     		ldr	r2, [r3, #8]
 2747 0046 7B68     		ldr	r3, [r7, #4]
 2748 0048 1B68     		ldr	r3, [r3]
 2749 004a 22F08002 		bic	r2, r2, #128
 2750 004e 9A60     		str	r2, [r3, #8]
1372:Drivers/STM32F4xx_HAL_Driver/Src/stm32f4xx_hal_rtc_ex.c **** 
1373:Drivers/STM32F4xx_HAL_Driver/Src/stm32f4xx_hal_rtc_ex.c ****     /* Exit Initialization mode */
1374:Drivers/STM32F4xx_HAL_Driver/Src/stm32f4xx_hal_rtc_ex.c ****     status = RTC_ExitInitMode(hrtc);
 2751              		.loc 1 1374 14
ARM GAS  C:\Users\TGSPOC~1\AppData\Local\Temp\ccVI6l15.s 			page 73


 2752 0050 7868     		ldr	r0, [r7, #4]
 2753 0052 FFF7FEFF 		bl	RTC_ExitInitMode
 2754 0056 0346     		mov	r3, r0
 2755 0058 FB73     		strb	r3, [r7, #15]
 2756              	.L96:
1375:Drivers/STM32F4xx_HAL_Driver/Src/stm32f4xx_hal_rtc_ex.c ****   }
1376:Drivers/STM32F4xx_HAL_Driver/Src/stm32f4xx_hal_rtc_ex.c **** 
1377:Drivers/STM32F4xx_HAL_Driver/Src/stm32f4xx_hal_rtc_ex.c ****   if (status == HAL_OK)
 2757              		.loc 1 1377 6
 2758 005a FB7B     		ldrb	r3, [r7, #15]	@ zero_extendqisi2
 2759 005c 002B     		cmp	r3, #0
 2760 005e 02D1     		bne	.L97
1378:Drivers/STM32F4xx_HAL_Driver/Src/stm32f4xx_hal_rtc_ex.c ****   {
1379:Drivers/STM32F4xx_HAL_Driver/Src/stm32f4xx_hal_rtc_ex.c ****     hrtc->State = HAL_RTC_STATE_READY;
 2761              		.loc 1 1379 17
 2762 0060 7B68     		ldr	r3, [r7, #4]
 2763 0062 0122     		movs	r2, #1
 2764 0064 5A77     		strb	r2, [r3, #29]
 2765              	.L97:
1380:Drivers/STM32F4xx_HAL_Driver/Src/stm32f4xx_hal_rtc_ex.c ****   }
1381:Drivers/STM32F4xx_HAL_Driver/Src/stm32f4xx_hal_rtc_ex.c **** 
1382:Drivers/STM32F4xx_HAL_Driver/Src/stm32f4xx_hal_rtc_ex.c ****   /* Enable the write protection for RTC registers */
1383:Drivers/STM32F4xx_HAL_Driver/Src/stm32f4xx_hal_rtc_ex.c ****   __HAL_RTC_WRITEPROTECTION_ENABLE(hrtc);
 2766              		.loc 1 1383 3
 2767 0066 7B68     		ldr	r3, [r7, #4]
 2768 0068 1B68     		ldr	r3, [r3]
 2769 006a FF22     		movs	r2, #255
 2770 006c 5A62     		str	r2, [r3, #36]
1384:Drivers/STM32F4xx_HAL_Driver/Src/stm32f4xx_hal_rtc_ex.c **** 
1385:Drivers/STM32F4xx_HAL_Driver/Src/stm32f4xx_hal_rtc_ex.c ****   /* Process Unlocked */
1386:Drivers/STM32F4xx_HAL_Driver/Src/stm32f4xx_hal_rtc_ex.c ****   __HAL_UNLOCK(hrtc);
 2771              		.loc 1 1386 3
 2772 006e 7B68     		ldr	r3, [r7, #4]
 2773 0070 0022     		movs	r2, #0
 2774 0072 1A77     		strb	r2, [r3, #28]
1387:Drivers/STM32F4xx_HAL_Driver/Src/stm32f4xx_hal_rtc_ex.c **** 
1388:Drivers/STM32F4xx_HAL_Driver/Src/stm32f4xx_hal_rtc_ex.c ****   return status;
 2775              		.loc 1 1388 10
 2776 0074 FB7B     		ldrb	r3, [r7, #15]	@ zero_extendqisi2
 2777              	.L95:
1389:Drivers/STM32F4xx_HAL_Driver/Src/stm32f4xx_hal_rtc_ex.c **** }
 2778              		.loc 1 1389 1
 2779 0076 1846     		mov	r0, r3
 2780 0078 1037     		adds	r7, r7, #16
 2781              	.LCFI126:
 2782              		.cfi_def_cfa_offset 8
 2783 007a BD46     		mov	sp, r7
 2784              	.LCFI127:
 2785              		.cfi_def_cfa_register 13
 2786              		@ sp needed
 2787 007c 80BD     		pop	{r7, pc}
 2788              		.cfi_endproc
 2789              	.LFE156:
 2791              		.section	.text.HAL_RTCEx_SetSmoothCalib,"ax",%progbits
 2792              		.align	1
 2793              		.global	HAL_RTCEx_SetSmoothCalib
 2794              		.syntax unified
ARM GAS  C:\Users\TGSPOC~1\AppData\Local\Temp\ccVI6l15.s 			page 74


 2795              		.thumb
 2796              		.thumb_func
 2798              	HAL_RTCEx_SetSmoothCalib:
 2799              	.LFB157:
1390:Drivers/STM32F4xx_HAL_Driver/Src/stm32f4xx_hal_rtc_ex.c **** 
1391:Drivers/STM32F4xx_HAL_Driver/Src/stm32f4xx_hal_rtc_ex.c **** /**
1392:Drivers/STM32F4xx_HAL_Driver/Src/stm32f4xx_hal_rtc_ex.c ****   * @brief  Sets the Smooth calibration parameters.
1393:Drivers/STM32F4xx_HAL_Driver/Src/stm32f4xx_hal_rtc_ex.c ****   * @param  hrtc pointer to a RTC_HandleTypeDef structure that contains
1394:Drivers/STM32F4xx_HAL_Driver/Src/stm32f4xx_hal_rtc_ex.c ****   *                the configuration information for RTC.
1395:Drivers/STM32F4xx_HAL_Driver/Src/stm32f4xx_hal_rtc_ex.c ****   * @param  SmoothCalibPeriod Select the Smooth Calibration Period.
1396:Drivers/STM32F4xx_HAL_Driver/Src/stm32f4xx_hal_rtc_ex.c ****   *          This parameter can be can be one of the following values:
1397:Drivers/STM32F4xx_HAL_Driver/Src/stm32f4xx_hal_rtc_ex.c ****   *             @arg RTC_SMOOTHCALIB_PERIOD_32SEC: The smooth calibration period is 32s.
1398:Drivers/STM32F4xx_HAL_Driver/Src/stm32f4xx_hal_rtc_ex.c ****   *             @arg RTC_SMOOTHCALIB_PERIOD_16SEC: The smooth calibration period is 16s.
1399:Drivers/STM32F4xx_HAL_Driver/Src/stm32f4xx_hal_rtc_ex.c ****   *             @arg RTC_SMOOTHCALIB_PERIOD_8SEC: The smooth calibration period is 8s.
1400:Drivers/STM32F4xx_HAL_Driver/Src/stm32f4xx_hal_rtc_ex.c ****   * @param  SmoothCalibPlusPulses Select to Set or reset the CALP bit.
1401:Drivers/STM32F4xx_HAL_Driver/Src/stm32f4xx_hal_rtc_ex.c ****   *          This parameter can be one of the following values:
1402:Drivers/STM32F4xx_HAL_Driver/Src/stm32f4xx_hal_rtc_ex.c ****   *             @arg RTC_SMOOTHCALIB_PLUSPULSES_SET: Add one RTCCLK pulse every 2*11 pulses.
1403:Drivers/STM32F4xx_HAL_Driver/Src/stm32f4xx_hal_rtc_ex.c ****   *             @arg RTC_SMOOTHCALIB_PLUSPULSES_RESET: No RTCCLK pulses are added.
1404:Drivers/STM32F4xx_HAL_Driver/Src/stm32f4xx_hal_rtc_ex.c ****   * @param  SmoothCalibMinusPulsesValue Select the value of CALM[8:0] bits.
1405:Drivers/STM32F4xx_HAL_Driver/Src/stm32f4xx_hal_rtc_ex.c ****   *          This parameter can be one any value from 0 to 0x000001FF.
1406:Drivers/STM32F4xx_HAL_Driver/Src/stm32f4xx_hal_rtc_ex.c ****   * @note   To deactivate the smooth calibration, the field SmoothCalibPlusPulses
1407:Drivers/STM32F4xx_HAL_Driver/Src/stm32f4xx_hal_rtc_ex.c ****   *         must be equal to SMOOTHCALIB_PLUSPULSES_RESET and the field
1408:Drivers/STM32F4xx_HAL_Driver/Src/stm32f4xx_hal_rtc_ex.c ****   *         SmoothCalibMinusPulsesValue must be equal to 0.
1409:Drivers/STM32F4xx_HAL_Driver/Src/stm32f4xx_hal_rtc_ex.c ****   * @retval HAL status
1410:Drivers/STM32F4xx_HAL_Driver/Src/stm32f4xx_hal_rtc_ex.c ****   */
1411:Drivers/STM32F4xx_HAL_Driver/Src/stm32f4xx_hal_rtc_ex.c **** HAL_StatusTypeDef HAL_RTCEx_SetSmoothCalib(RTC_HandleTypeDef *hrtc, uint32_t SmoothCalibPeriod, uin
1412:Drivers/STM32F4xx_HAL_Driver/Src/stm32f4xx_hal_rtc_ex.c **** {
 2800              		.loc 1 1412 1
 2801              		.cfi_startproc
 2802              		@ args = 0, pretend = 0, frame = 24
 2803              		@ frame_needed = 1, uses_anonymous_args = 0
 2804 0000 80B5     		push	{r7, lr}
 2805              	.LCFI128:
 2806              		.cfi_def_cfa_offset 8
 2807              		.cfi_offset 7, -8
 2808              		.cfi_offset 14, -4
 2809 0002 86B0     		sub	sp, sp, #24
 2810              	.LCFI129:
 2811              		.cfi_def_cfa_offset 32
 2812 0004 00AF     		add	r7, sp, #0
 2813              	.LCFI130:
 2814              		.cfi_def_cfa_register 7
 2815 0006 F860     		str	r0, [r7, #12]
 2816 0008 B960     		str	r1, [r7, #8]
 2817 000a 7A60     		str	r2, [r7, #4]
 2818 000c 3B60     		str	r3, [r7]
1413:Drivers/STM32F4xx_HAL_Driver/Src/stm32f4xx_hal_rtc_ex.c ****   uint32_t tickstart = 0U;
 2819              		.loc 1 1413 12
 2820 000e 0023     		movs	r3, #0
 2821 0010 7B61     		str	r3, [r7, #20]
1414:Drivers/STM32F4xx_HAL_Driver/Src/stm32f4xx_hal_rtc_ex.c **** 
1415:Drivers/STM32F4xx_HAL_Driver/Src/stm32f4xx_hal_rtc_ex.c ****   /* Check the parameters */
1416:Drivers/STM32F4xx_HAL_Driver/Src/stm32f4xx_hal_rtc_ex.c ****   assert_param(IS_RTC_SMOOTH_CALIB_PERIOD(SmoothCalibPeriod));
1417:Drivers/STM32F4xx_HAL_Driver/Src/stm32f4xx_hal_rtc_ex.c ****   assert_param(IS_RTC_SMOOTH_CALIB_PLUS(SmoothCalibPlusPulses));
1418:Drivers/STM32F4xx_HAL_Driver/Src/stm32f4xx_hal_rtc_ex.c ****   assert_param(IS_RTC_SMOOTH_CALIB_MINUS(SmoothCalibMinusPulsesValue));
1419:Drivers/STM32F4xx_HAL_Driver/Src/stm32f4xx_hal_rtc_ex.c **** 
1420:Drivers/STM32F4xx_HAL_Driver/Src/stm32f4xx_hal_rtc_ex.c ****   /* Process Locked */
ARM GAS  C:\Users\TGSPOC~1\AppData\Local\Temp\ccVI6l15.s 			page 75


1421:Drivers/STM32F4xx_HAL_Driver/Src/stm32f4xx_hal_rtc_ex.c ****   __HAL_LOCK(hrtc);
 2822              		.loc 1 1421 3
 2823 0012 FB68     		ldr	r3, [r7, #12]
 2824 0014 1B7F     		ldrb	r3, [r3, #28]	@ zero_extendqisi2
 2825 0016 012B     		cmp	r3, #1
 2826 0018 01D1     		bne	.L99
 2827              		.loc 1 1421 3 is_stmt 0 discriminator 1
 2828 001a 0223     		movs	r3, #2
 2829              		.loc 1 1421 3
 2830 001c 47E0     		b	.L100
 2831              	.L99:
 2832              		.loc 1 1421 3 discriminator 2
 2833 001e FB68     		ldr	r3, [r7, #12]
 2834 0020 0122     		movs	r2, #1
 2835 0022 1A77     		strb	r2, [r3, #28]
1422:Drivers/STM32F4xx_HAL_Driver/Src/stm32f4xx_hal_rtc_ex.c **** 
1423:Drivers/STM32F4xx_HAL_Driver/Src/stm32f4xx_hal_rtc_ex.c ****   hrtc->State = HAL_RTC_STATE_BUSY;
 2836              		.loc 1 1423 15 is_stmt 1
 2837 0024 FB68     		ldr	r3, [r7, #12]
 2838 0026 0222     		movs	r2, #2
 2839 0028 5A77     		strb	r2, [r3, #29]
1424:Drivers/STM32F4xx_HAL_Driver/Src/stm32f4xx_hal_rtc_ex.c **** 
1425:Drivers/STM32F4xx_HAL_Driver/Src/stm32f4xx_hal_rtc_ex.c ****   /* Disable the write protection for RTC registers */
1426:Drivers/STM32F4xx_HAL_Driver/Src/stm32f4xx_hal_rtc_ex.c ****   __HAL_RTC_WRITEPROTECTION_DISABLE(hrtc);
 2840              		.loc 1 1426 3
 2841 002a FB68     		ldr	r3, [r7, #12]
 2842 002c 1B68     		ldr	r3, [r3]
 2843 002e CA22     		movs	r2, #202
 2844 0030 5A62     		str	r2, [r3, #36]
 2845 0032 FB68     		ldr	r3, [r7, #12]
 2846 0034 1B68     		ldr	r3, [r3]
 2847 0036 5322     		movs	r2, #83
 2848 0038 5A62     		str	r2, [r3, #36]
1427:Drivers/STM32F4xx_HAL_Driver/Src/stm32f4xx_hal_rtc_ex.c **** 
1428:Drivers/STM32F4xx_HAL_Driver/Src/stm32f4xx_hal_rtc_ex.c ****   /* check if a calibration is pending*/
1429:Drivers/STM32F4xx_HAL_Driver/Src/stm32f4xx_hal_rtc_ex.c ****   if ((hrtc->Instance->ISR & RTC_ISR_RECALPF) != 0U)
 2849              		.loc 1 1429 12
 2850 003a FB68     		ldr	r3, [r7, #12]
 2851 003c 1B68     		ldr	r3, [r3]
 2852              		.loc 1 1429 22
 2853 003e DB68     		ldr	r3, [r3, #12]
 2854              		.loc 1 1429 28
 2855 0040 03F48033 		and	r3, r3, #65536
 2856              		.loc 1 1429 6
 2857 0044 002B     		cmp	r3, #0
 2858 0046 1ED0     		beq	.L101
1430:Drivers/STM32F4xx_HAL_Driver/Src/stm32f4xx_hal_rtc_ex.c ****   {
1431:Drivers/STM32F4xx_HAL_Driver/Src/stm32f4xx_hal_rtc_ex.c ****     /* Get tick */
1432:Drivers/STM32F4xx_HAL_Driver/Src/stm32f4xx_hal_rtc_ex.c ****     tickstart = HAL_GetTick();
 2859              		.loc 1 1432 17
 2860 0048 FFF7FEFF 		bl	HAL_GetTick
 2861 004c 7861     		str	r0, [r7, #20]
1433:Drivers/STM32F4xx_HAL_Driver/Src/stm32f4xx_hal_rtc_ex.c **** 
1434:Drivers/STM32F4xx_HAL_Driver/Src/stm32f4xx_hal_rtc_ex.c ****     /* check if a calibration is pending*/
1435:Drivers/STM32F4xx_HAL_Driver/Src/stm32f4xx_hal_rtc_ex.c ****     while ((hrtc->Instance->ISR & RTC_ISR_RECALPF) != 0U)
 2862              		.loc 1 1435 11
 2863 004e 13E0     		b	.L102
ARM GAS  C:\Users\TGSPOC~1\AppData\Local\Temp\ccVI6l15.s 			page 76


 2864              	.L103:
1436:Drivers/STM32F4xx_HAL_Driver/Src/stm32f4xx_hal_rtc_ex.c ****     {
1437:Drivers/STM32F4xx_HAL_Driver/Src/stm32f4xx_hal_rtc_ex.c ****       if ((HAL_GetTick() - tickstart) > RTC_TIMEOUT_VALUE)
 2865              		.loc 1 1437 12
 2866 0050 FFF7FEFF 		bl	HAL_GetTick
 2867 0054 0246     		mov	r2, r0
 2868              		.loc 1 1437 26 discriminator 1
 2869 0056 7B69     		ldr	r3, [r7, #20]
 2870 0058 D31A     		subs	r3, r2, r3
 2871              		.loc 1 1437 10 discriminator 1
 2872 005a B3F57A7F 		cmp	r3, #1000
 2873 005e 0BD9     		bls	.L102
1438:Drivers/STM32F4xx_HAL_Driver/Src/stm32f4xx_hal_rtc_ex.c ****       {
1439:Drivers/STM32F4xx_HAL_Driver/Src/stm32f4xx_hal_rtc_ex.c ****         /* Enable the write protection for RTC registers */
1440:Drivers/STM32F4xx_HAL_Driver/Src/stm32f4xx_hal_rtc_ex.c ****         __HAL_RTC_WRITEPROTECTION_ENABLE(hrtc);
 2874              		.loc 1 1440 9
 2875 0060 FB68     		ldr	r3, [r7, #12]
 2876 0062 1B68     		ldr	r3, [r3]
 2877 0064 FF22     		movs	r2, #255
 2878 0066 5A62     		str	r2, [r3, #36]
1441:Drivers/STM32F4xx_HAL_Driver/Src/stm32f4xx_hal_rtc_ex.c **** 
1442:Drivers/STM32F4xx_HAL_Driver/Src/stm32f4xx_hal_rtc_ex.c ****         /* Change RTC state */
1443:Drivers/STM32F4xx_HAL_Driver/Src/stm32f4xx_hal_rtc_ex.c ****         hrtc->State = HAL_RTC_STATE_TIMEOUT;
 2879              		.loc 1 1443 21
 2880 0068 FB68     		ldr	r3, [r7, #12]
 2881 006a 0322     		movs	r2, #3
 2882 006c 5A77     		strb	r2, [r3, #29]
1444:Drivers/STM32F4xx_HAL_Driver/Src/stm32f4xx_hal_rtc_ex.c **** 
1445:Drivers/STM32F4xx_HAL_Driver/Src/stm32f4xx_hal_rtc_ex.c ****         /* Process Unlocked */
1446:Drivers/STM32F4xx_HAL_Driver/Src/stm32f4xx_hal_rtc_ex.c ****         __HAL_UNLOCK(hrtc);
 2883              		.loc 1 1446 9
 2884 006e FB68     		ldr	r3, [r7, #12]
 2885 0070 0022     		movs	r2, #0
 2886 0072 1A77     		strb	r2, [r3, #28]
1447:Drivers/STM32F4xx_HAL_Driver/Src/stm32f4xx_hal_rtc_ex.c **** 
1448:Drivers/STM32F4xx_HAL_Driver/Src/stm32f4xx_hal_rtc_ex.c ****         return HAL_TIMEOUT;
 2887              		.loc 1 1448 16
 2888 0074 0323     		movs	r3, #3
 2889 0076 1AE0     		b	.L100
 2890              	.L102:
1435:Drivers/STM32F4xx_HAL_Driver/Src/stm32f4xx_hal_rtc_ex.c ****     {
 2891              		.loc 1 1435 17
 2892 0078 FB68     		ldr	r3, [r7, #12]
 2893 007a 1B68     		ldr	r3, [r3]
1435:Drivers/STM32F4xx_HAL_Driver/Src/stm32f4xx_hal_rtc_ex.c ****     {
 2894              		.loc 1 1435 27
 2895 007c DB68     		ldr	r3, [r3, #12]
1435:Drivers/STM32F4xx_HAL_Driver/Src/stm32f4xx_hal_rtc_ex.c ****     {
 2896              		.loc 1 1435 33
 2897 007e 03F48033 		and	r3, r3, #65536
1435:Drivers/STM32F4xx_HAL_Driver/Src/stm32f4xx_hal_rtc_ex.c ****     {
 2898              		.loc 1 1435 52
 2899 0082 002B     		cmp	r3, #0
 2900 0084 E4D1     		bne	.L103
 2901              	.L101:
1449:Drivers/STM32F4xx_HAL_Driver/Src/stm32f4xx_hal_rtc_ex.c ****       }
1450:Drivers/STM32F4xx_HAL_Driver/Src/stm32f4xx_hal_rtc_ex.c ****     }
ARM GAS  C:\Users\TGSPOC~1\AppData\Local\Temp\ccVI6l15.s 			page 77


1451:Drivers/STM32F4xx_HAL_Driver/Src/stm32f4xx_hal_rtc_ex.c ****   }
1452:Drivers/STM32F4xx_HAL_Driver/Src/stm32f4xx_hal_rtc_ex.c **** 
1453:Drivers/STM32F4xx_HAL_Driver/Src/stm32f4xx_hal_rtc_ex.c ****   /* Configure the Smooth calibration settings */
1454:Drivers/STM32F4xx_HAL_Driver/Src/stm32f4xx_hal_rtc_ex.c ****   hrtc->Instance->CALR = (uint32_t)((uint32_t)SmoothCalibPeriod     | \
 2902              		.loc 1 1454 69
 2903 0086 BA68     		ldr	r2, [r7, #8]
 2904 0088 7B68     		ldr	r3, [r7, #4]
 2905 008a 42EA0301 		orr	r1, r2, r3
 2906              		.loc 1 1454 7
 2907 008e FB68     		ldr	r3, [r7, #12]
 2908 0090 1B68     		ldr	r3, [r3]
 2909              		.loc 1 1454 26
 2910 0092 3A68     		ldr	r2, [r7]
 2911 0094 0A43     		orrs	r2, r2, r1
 2912              		.loc 1 1454 24
 2913 0096 DA63     		str	r2, [r3, #60]
1455:Drivers/STM32F4xx_HAL_Driver/Src/stm32f4xx_hal_rtc_ex.c ****                                     (uint32_t)SmoothCalibPlusPulses | \
1456:Drivers/STM32F4xx_HAL_Driver/Src/stm32f4xx_hal_rtc_ex.c ****                                     (uint32_t)SmoothCalibMinusPulsesValue);
1457:Drivers/STM32F4xx_HAL_Driver/Src/stm32f4xx_hal_rtc_ex.c **** 
1458:Drivers/STM32F4xx_HAL_Driver/Src/stm32f4xx_hal_rtc_ex.c ****   /* Enable the write protection for RTC registers */
1459:Drivers/STM32F4xx_HAL_Driver/Src/stm32f4xx_hal_rtc_ex.c ****   __HAL_RTC_WRITEPROTECTION_ENABLE(hrtc);
 2914              		.loc 1 1459 3
 2915 0098 FB68     		ldr	r3, [r7, #12]
 2916 009a 1B68     		ldr	r3, [r3]
 2917 009c FF22     		movs	r2, #255
 2918 009e 5A62     		str	r2, [r3, #36]
1460:Drivers/STM32F4xx_HAL_Driver/Src/stm32f4xx_hal_rtc_ex.c **** 
1461:Drivers/STM32F4xx_HAL_Driver/Src/stm32f4xx_hal_rtc_ex.c ****   /* Change RTC state */
1462:Drivers/STM32F4xx_HAL_Driver/Src/stm32f4xx_hal_rtc_ex.c ****   hrtc->State = HAL_RTC_STATE_READY;
 2919              		.loc 1 1462 15
 2920 00a0 FB68     		ldr	r3, [r7, #12]
 2921 00a2 0122     		movs	r2, #1
 2922 00a4 5A77     		strb	r2, [r3, #29]
1463:Drivers/STM32F4xx_HAL_Driver/Src/stm32f4xx_hal_rtc_ex.c **** 
1464:Drivers/STM32F4xx_HAL_Driver/Src/stm32f4xx_hal_rtc_ex.c ****   /* Process Unlocked */
1465:Drivers/STM32F4xx_HAL_Driver/Src/stm32f4xx_hal_rtc_ex.c ****   __HAL_UNLOCK(hrtc);
 2923              		.loc 1 1465 3
 2924 00a6 FB68     		ldr	r3, [r7, #12]
 2925 00a8 0022     		movs	r2, #0
 2926 00aa 1A77     		strb	r2, [r3, #28]
1466:Drivers/STM32F4xx_HAL_Driver/Src/stm32f4xx_hal_rtc_ex.c **** 
1467:Drivers/STM32F4xx_HAL_Driver/Src/stm32f4xx_hal_rtc_ex.c ****   return HAL_OK;
 2927              		.loc 1 1467 10
 2928 00ac 0023     		movs	r3, #0
 2929              	.L100:
1468:Drivers/STM32F4xx_HAL_Driver/Src/stm32f4xx_hal_rtc_ex.c **** }
 2930              		.loc 1 1468 1
 2931 00ae 1846     		mov	r0, r3
 2932 00b0 1837     		adds	r7, r7, #24
 2933              	.LCFI131:
 2934              		.cfi_def_cfa_offset 8
 2935 00b2 BD46     		mov	sp, r7
 2936              	.LCFI132:
 2937              		.cfi_def_cfa_register 13
 2938              		@ sp needed
 2939 00b4 80BD     		pop	{r7, pc}
 2940              		.cfi_endproc
ARM GAS  C:\Users\TGSPOC~1\AppData\Local\Temp\ccVI6l15.s 			page 78


 2941              	.LFE157:
 2943              		.section	.text.HAL_RTCEx_SetSynchroShift,"ax",%progbits
 2944              		.align	1
 2945              		.global	HAL_RTCEx_SetSynchroShift
 2946              		.syntax unified
 2947              		.thumb
 2948              		.thumb_func
 2950              	HAL_RTCEx_SetSynchroShift:
 2951              	.LFB158:
1469:Drivers/STM32F4xx_HAL_Driver/Src/stm32f4xx_hal_rtc_ex.c **** 
1470:Drivers/STM32F4xx_HAL_Driver/Src/stm32f4xx_hal_rtc_ex.c **** /**
1471:Drivers/STM32F4xx_HAL_Driver/Src/stm32f4xx_hal_rtc_ex.c ****   * @brief  Configures the Synchronization Shift Control Settings.
1472:Drivers/STM32F4xx_HAL_Driver/Src/stm32f4xx_hal_rtc_ex.c ****   * @note   When REFCKON is set, firmware must not write to Shift control register.
1473:Drivers/STM32F4xx_HAL_Driver/Src/stm32f4xx_hal_rtc_ex.c ****   * @param  hrtc pointer to a RTC_HandleTypeDef structure that contains
1474:Drivers/STM32F4xx_HAL_Driver/Src/stm32f4xx_hal_rtc_ex.c ****   *                the configuration information for RTC.
1475:Drivers/STM32F4xx_HAL_Driver/Src/stm32f4xx_hal_rtc_ex.c ****   * @param  ShiftAdd1S Select to add or not 1 second to the time calendar.
1476:Drivers/STM32F4xx_HAL_Driver/Src/stm32f4xx_hal_rtc_ex.c ****   *          This parameter can be one of the following values:
1477:Drivers/STM32F4xx_HAL_Driver/Src/stm32f4xx_hal_rtc_ex.c ****   *             @arg RTC_SHIFTADD1S_SET: Add one second to the clock calendar.
1478:Drivers/STM32F4xx_HAL_Driver/Src/stm32f4xx_hal_rtc_ex.c ****   *             @arg RTC_SHIFTADD1S_RESET: No effect.
1479:Drivers/STM32F4xx_HAL_Driver/Src/stm32f4xx_hal_rtc_ex.c ****   * @param  ShiftSubFS Select the number of Second Fractions to substitute.
1480:Drivers/STM32F4xx_HAL_Driver/Src/stm32f4xx_hal_rtc_ex.c ****   *          This parameter can be one any value from 0 to 0x7FFF.
1481:Drivers/STM32F4xx_HAL_Driver/Src/stm32f4xx_hal_rtc_ex.c ****   * @retval HAL status
1482:Drivers/STM32F4xx_HAL_Driver/Src/stm32f4xx_hal_rtc_ex.c ****   */
1483:Drivers/STM32F4xx_HAL_Driver/Src/stm32f4xx_hal_rtc_ex.c **** HAL_StatusTypeDef HAL_RTCEx_SetSynchroShift(RTC_HandleTypeDef *hrtc, uint32_t ShiftAdd1S, uint32_t 
1484:Drivers/STM32F4xx_HAL_Driver/Src/stm32f4xx_hal_rtc_ex.c **** {
 2952              		.loc 1 1484 1
 2953              		.cfi_startproc
 2954              		@ args = 0, pretend = 0, frame = 24
 2955              		@ frame_needed = 1, uses_anonymous_args = 0
 2956 0000 80B5     		push	{r7, lr}
 2957              	.LCFI133:
 2958              		.cfi_def_cfa_offset 8
 2959              		.cfi_offset 7, -8
 2960              		.cfi_offset 14, -4
 2961 0002 86B0     		sub	sp, sp, #24
 2962              	.LCFI134:
 2963              		.cfi_def_cfa_offset 32
 2964 0004 00AF     		add	r7, sp, #0
 2965              	.LCFI135:
 2966              		.cfi_def_cfa_register 7
 2967 0006 F860     		str	r0, [r7, #12]
 2968 0008 B960     		str	r1, [r7, #8]
 2969 000a 7A60     		str	r2, [r7, #4]
1485:Drivers/STM32F4xx_HAL_Driver/Src/stm32f4xx_hal_rtc_ex.c ****   uint32_t tickstart = 0U;
 2970              		.loc 1 1485 12
 2971 000c 0023     		movs	r3, #0
 2972 000e 7B61     		str	r3, [r7, #20]
1486:Drivers/STM32F4xx_HAL_Driver/Src/stm32f4xx_hal_rtc_ex.c **** 
1487:Drivers/STM32F4xx_HAL_Driver/Src/stm32f4xx_hal_rtc_ex.c ****   /* Check the parameters */
1488:Drivers/STM32F4xx_HAL_Driver/Src/stm32f4xx_hal_rtc_ex.c ****   assert_param(IS_RTC_SHIFT_ADD1S(ShiftAdd1S));
1489:Drivers/STM32F4xx_HAL_Driver/Src/stm32f4xx_hal_rtc_ex.c ****   assert_param(IS_RTC_SHIFT_SUBFS(ShiftSubFS));
1490:Drivers/STM32F4xx_HAL_Driver/Src/stm32f4xx_hal_rtc_ex.c **** 
1491:Drivers/STM32F4xx_HAL_Driver/Src/stm32f4xx_hal_rtc_ex.c ****   /* Process Locked */
1492:Drivers/STM32F4xx_HAL_Driver/Src/stm32f4xx_hal_rtc_ex.c ****   __HAL_LOCK(hrtc);
 2973              		.loc 1 1492 3
 2974 0010 FB68     		ldr	r3, [r7, #12]
 2975 0012 1B7F     		ldrb	r3, [r3, #28]	@ zero_extendqisi2
ARM GAS  C:\Users\TGSPOC~1\AppData\Local\Temp\ccVI6l15.s 			page 79


 2976 0014 012B     		cmp	r3, #1
 2977 0016 01D1     		bne	.L105
 2978              		.loc 1 1492 3 is_stmt 0 discriminator 1
 2979 0018 0223     		movs	r3, #2
 2980              		.loc 1 1492 3
 2981 001a 69E0     		b	.L106
 2982              	.L105:
 2983              		.loc 1 1492 3 discriminator 2
 2984 001c FB68     		ldr	r3, [r7, #12]
 2985 001e 0122     		movs	r2, #1
 2986 0020 1A77     		strb	r2, [r3, #28]
1493:Drivers/STM32F4xx_HAL_Driver/Src/stm32f4xx_hal_rtc_ex.c **** 
1494:Drivers/STM32F4xx_HAL_Driver/Src/stm32f4xx_hal_rtc_ex.c ****   hrtc->State = HAL_RTC_STATE_BUSY;
 2987              		.loc 1 1494 15 is_stmt 1
 2988 0022 FB68     		ldr	r3, [r7, #12]
 2989 0024 0222     		movs	r2, #2
 2990 0026 5A77     		strb	r2, [r3, #29]
1495:Drivers/STM32F4xx_HAL_Driver/Src/stm32f4xx_hal_rtc_ex.c **** 
1496:Drivers/STM32F4xx_HAL_Driver/Src/stm32f4xx_hal_rtc_ex.c ****   /* Disable the write protection for RTC registers */
1497:Drivers/STM32F4xx_HAL_Driver/Src/stm32f4xx_hal_rtc_ex.c ****   __HAL_RTC_WRITEPROTECTION_DISABLE(hrtc);
 2991              		.loc 1 1497 3
 2992 0028 FB68     		ldr	r3, [r7, #12]
 2993 002a 1B68     		ldr	r3, [r3]
 2994 002c CA22     		movs	r2, #202
 2995 002e 5A62     		str	r2, [r3, #36]
 2996 0030 FB68     		ldr	r3, [r7, #12]
 2997 0032 1B68     		ldr	r3, [r3]
 2998 0034 5322     		movs	r2, #83
 2999 0036 5A62     		str	r2, [r3, #36]
1498:Drivers/STM32F4xx_HAL_Driver/Src/stm32f4xx_hal_rtc_ex.c **** 
1499:Drivers/STM32F4xx_HAL_Driver/Src/stm32f4xx_hal_rtc_ex.c ****   /* Get tick */
1500:Drivers/STM32F4xx_HAL_Driver/Src/stm32f4xx_hal_rtc_ex.c ****   tickstart = HAL_GetTick();
 3000              		.loc 1 1500 15
 3001 0038 FFF7FEFF 		bl	HAL_GetTick
 3002 003c 7861     		str	r0, [r7, #20]
1501:Drivers/STM32F4xx_HAL_Driver/Src/stm32f4xx_hal_rtc_ex.c **** 
1502:Drivers/STM32F4xx_HAL_Driver/Src/stm32f4xx_hal_rtc_ex.c ****   /* Wait until the shift is completed */
1503:Drivers/STM32F4xx_HAL_Driver/Src/stm32f4xx_hal_rtc_ex.c ****   while ((hrtc->Instance->ISR & RTC_ISR_SHPF) != 0U)
 3003              		.loc 1 1503 9
 3004 003e 13E0     		b	.L107
 3005              	.L108:
1504:Drivers/STM32F4xx_HAL_Driver/Src/stm32f4xx_hal_rtc_ex.c ****   {
1505:Drivers/STM32F4xx_HAL_Driver/Src/stm32f4xx_hal_rtc_ex.c ****     if ((HAL_GetTick() - tickstart) > RTC_TIMEOUT_VALUE)
 3006              		.loc 1 1505 10
 3007 0040 FFF7FEFF 		bl	HAL_GetTick
 3008 0044 0246     		mov	r2, r0
 3009              		.loc 1 1505 24 discriminator 1
 3010 0046 7B69     		ldr	r3, [r7, #20]
 3011 0048 D31A     		subs	r3, r2, r3
 3012              		.loc 1 1505 8 discriminator 1
 3013 004a B3F57A7F 		cmp	r3, #1000
 3014 004e 0BD9     		bls	.L107
1506:Drivers/STM32F4xx_HAL_Driver/Src/stm32f4xx_hal_rtc_ex.c ****     {
1507:Drivers/STM32F4xx_HAL_Driver/Src/stm32f4xx_hal_rtc_ex.c ****       /* Enable the write protection for RTC registers */
1508:Drivers/STM32F4xx_HAL_Driver/Src/stm32f4xx_hal_rtc_ex.c ****       __HAL_RTC_WRITEPROTECTION_ENABLE(hrtc);
 3015              		.loc 1 1508 7
 3016 0050 FB68     		ldr	r3, [r7, #12]
ARM GAS  C:\Users\TGSPOC~1\AppData\Local\Temp\ccVI6l15.s 			page 80


 3017 0052 1B68     		ldr	r3, [r3]
 3018 0054 FF22     		movs	r2, #255
 3019 0056 5A62     		str	r2, [r3, #36]
1509:Drivers/STM32F4xx_HAL_Driver/Src/stm32f4xx_hal_rtc_ex.c **** 
1510:Drivers/STM32F4xx_HAL_Driver/Src/stm32f4xx_hal_rtc_ex.c ****       hrtc->State = HAL_RTC_STATE_TIMEOUT;
 3020              		.loc 1 1510 19
 3021 0058 FB68     		ldr	r3, [r7, #12]
 3022 005a 0322     		movs	r2, #3
 3023 005c 5A77     		strb	r2, [r3, #29]
1511:Drivers/STM32F4xx_HAL_Driver/Src/stm32f4xx_hal_rtc_ex.c **** 
1512:Drivers/STM32F4xx_HAL_Driver/Src/stm32f4xx_hal_rtc_ex.c ****       /* Process Unlocked */
1513:Drivers/STM32F4xx_HAL_Driver/Src/stm32f4xx_hal_rtc_ex.c ****       __HAL_UNLOCK(hrtc);
 3024              		.loc 1 1513 7
 3025 005e FB68     		ldr	r3, [r7, #12]
 3026 0060 0022     		movs	r2, #0
 3027 0062 1A77     		strb	r2, [r3, #28]
1514:Drivers/STM32F4xx_HAL_Driver/Src/stm32f4xx_hal_rtc_ex.c **** 
1515:Drivers/STM32F4xx_HAL_Driver/Src/stm32f4xx_hal_rtc_ex.c ****       return HAL_TIMEOUT;
 3028              		.loc 1 1515 14
 3029 0064 0323     		movs	r3, #3
 3030 0066 43E0     		b	.L106
 3031              	.L107:
1503:Drivers/STM32F4xx_HAL_Driver/Src/stm32f4xx_hal_rtc_ex.c ****   {
 3032              		.loc 1 1503 15
 3033 0068 FB68     		ldr	r3, [r7, #12]
 3034 006a 1B68     		ldr	r3, [r3]
1503:Drivers/STM32F4xx_HAL_Driver/Src/stm32f4xx_hal_rtc_ex.c ****   {
 3035              		.loc 1 1503 25
 3036 006c DB68     		ldr	r3, [r3, #12]
1503:Drivers/STM32F4xx_HAL_Driver/Src/stm32f4xx_hal_rtc_ex.c ****   {
 3037              		.loc 1 1503 31
 3038 006e 03F00803 		and	r3, r3, #8
1503:Drivers/STM32F4xx_HAL_Driver/Src/stm32f4xx_hal_rtc_ex.c ****   {
 3039              		.loc 1 1503 47
 3040 0072 002B     		cmp	r3, #0
 3041 0074 E4D1     		bne	.L108
1516:Drivers/STM32F4xx_HAL_Driver/Src/stm32f4xx_hal_rtc_ex.c ****     }
1517:Drivers/STM32F4xx_HAL_Driver/Src/stm32f4xx_hal_rtc_ex.c ****   }
1518:Drivers/STM32F4xx_HAL_Driver/Src/stm32f4xx_hal_rtc_ex.c **** 
1519:Drivers/STM32F4xx_HAL_Driver/Src/stm32f4xx_hal_rtc_ex.c ****   /* Check if the reference clock detection is disabled */
1520:Drivers/STM32F4xx_HAL_Driver/Src/stm32f4xx_hal_rtc_ex.c ****   if ((hrtc->Instance->CR & RTC_CR_REFCKON) == 0U)
 3042              		.loc 1 1520 12
 3043 0076 FB68     		ldr	r3, [r7, #12]
 3044 0078 1B68     		ldr	r3, [r3]
 3045              		.loc 1 1520 22
 3046 007a 9B68     		ldr	r3, [r3, #8]
 3047              		.loc 1 1520 27
 3048 007c 03F01003 		and	r3, r3, #16
 3049              		.loc 1 1520 6
 3050 0080 002B     		cmp	r3, #0
 3051 0082 1ED1     		bne	.L109
1521:Drivers/STM32F4xx_HAL_Driver/Src/stm32f4xx_hal_rtc_ex.c ****   {
1522:Drivers/STM32F4xx_HAL_Driver/Src/stm32f4xx_hal_rtc_ex.c ****     /* Configure the Shift settings */
1523:Drivers/STM32F4xx_HAL_Driver/Src/stm32f4xx_hal_rtc_ex.c ****     hrtc->Instance->SHIFTR = (uint32_t)(uint32_t)(ShiftSubFS) | (uint32_t)(ShiftAdd1S);
 3052              		.loc 1 1523 9
 3053 0084 FB68     		ldr	r3, [r7, #12]
 3054 0086 1B68     		ldr	r3, [r3]
ARM GAS  C:\Users\TGSPOC~1\AppData\Local\Temp\ccVI6l15.s 			page 81


 3055              		.loc 1 1523 63
 3056 0088 7968     		ldr	r1, [r7, #4]
 3057 008a BA68     		ldr	r2, [r7, #8]
 3058 008c 0A43     		orrs	r2, r2, r1
 3059              		.loc 1 1523 28
 3060 008e DA62     		str	r2, [r3, #44]
1524:Drivers/STM32F4xx_HAL_Driver/Src/stm32f4xx_hal_rtc_ex.c **** 
1525:Drivers/STM32F4xx_HAL_Driver/Src/stm32f4xx_hal_rtc_ex.c ****     /* If  RTC_CR_BYPSHAD bit = 0, wait for synchro else this check is not needed */
1526:Drivers/STM32F4xx_HAL_Driver/Src/stm32f4xx_hal_rtc_ex.c ****     if ((hrtc->Instance->CR & RTC_CR_BYPSHAD) == 0U)
 3061              		.loc 1 1526 14
 3062 0090 FB68     		ldr	r3, [r7, #12]
 3063 0092 1B68     		ldr	r3, [r3]
 3064              		.loc 1 1526 24
 3065 0094 9B68     		ldr	r3, [r3, #8]
 3066              		.loc 1 1526 29
 3067 0096 03F02003 		and	r3, r3, #32
 3068              		.loc 1 1526 8
 3069 009a 002B     		cmp	r3, #0
 3070 009c 1DD1     		bne	.L110
1527:Drivers/STM32F4xx_HAL_Driver/Src/stm32f4xx_hal_rtc_ex.c ****     {
1528:Drivers/STM32F4xx_HAL_Driver/Src/stm32f4xx_hal_rtc_ex.c ****       if (HAL_RTC_WaitForSynchro(hrtc) != HAL_OK)
 3071              		.loc 1 1528 11
 3072 009e F868     		ldr	r0, [r7, #12]
 3073 00a0 FFF7FEFF 		bl	HAL_RTC_WaitForSynchro
 3074 00a4 0346     		mov	r3, r0
 3075              		.loc 1 1528 10 discriminator 1
 3076 00a6 002B     		cmp	r3, #0
 3077 00a8 17D0     		beq	.L110
1529:Drivers/STM32F4xx_HAL_Driver/Src/stm32f4xx_hal_rtc_ex.c ****       {
1530:Drivers/STM32F4xx_HAL_Driver/Src/stm32f4xx_hal_rtc_ex.c ****         /* Enable the write protection for RTC registers */
1531:Drivers/STM32F4xx_HAL_Driver/Src/stm32f4xx_hal_rtc_ex.c ****         __HAL_RTC_WRITEPROTECTION_ENABLE(hrtc);
 3078              		.loc 1 1531 9
 3079 00aa FB68     		ldr	r3, [r7, #12]
 3080 00ac 1B68     		ldr	r3, [r3]
 3081 00ae FF22     		movs	r2, #255
 3082 00b0 5A62     		str	r2, [r3, #36]
1532:Drivers/STM32F4xx_HAL_Driver/Src/stm32f4xx_hal_rtc_ex.c **** 
1533:Drivers/STM32F4xx_HAL_Driver/Src/stm32f4xx_hal_rtc_ex.c ****         hrtc->State = HAL_RTC_STATE_ERROR;
 3083              		.loc 1 1533 21
 3084 00b2 FB68     		ldr	r3, [r7, #12]
 3085 00b4 0422     		movs	r2, #4
 3086 00b6 5A77     		strb	r2, [r3, #29]
1534:Drivers/STM32F4xx_HAL_Driver/Src/stm32f4xx_hal_rtc_ex.c **** 
1535:Drivers/STM32F4xx_HAL_Driver/Src/stm32f4xx_hal_rtc_ex.c ****         /* Process Unlocked */
1536:Drivers/STM32F4xx_HAL_Driver/Src/stm32f4xx_hal_rtc_ex.c ****         __HAL_UNLOCK(hrtc);
 3087              		.loc 1 1536 9
 3088 00b8 FB68     		ldr	r3, [r7, #12]
 3089 00ba 0022     		movs	r2, #0
 3090 00bc 1A77     		strb	r2, [r3, #28]
1537:Drivers/STM32F4xx_HAL_Driver/Src/stm32f4xx_hal_rtc_ex.c **** 
1538:Drivers/STM32F4xx_HAL_Driver/Src/stm32f4xx_hal_rtc_ex.c ****         return HAL_ERROR;
 3091              		.loc 1 1538 16
 3092 00be 0123     		movs	r3, #1
 3093 00c0 16E0     		b	.L106
 3094              	.L109:
1539:Drivers/STM32F4xx_HAL_Driver/Src/stm32f4xx_hal_rtc_ex.c ****       }
1540:Drivers/STM32F4xx_HAL_Driver/Src/stm32f4xx_hal_rtc_ex.c ****     }
ARM GAS  C:\Users\TGSPOC~1\AppData\Local\Temp\ccVI6l15.s 			page 82


1541:Drivers/STM32F4xx_HAL_Driver/Src/stm32f4xx_hal_rtc_ex.c ****   }
1542:Drivers/STM32F4xx_HAL_Driver/Src/stm32f4xx_hal_rtc_ex.c ****   else
1543:Drivers/STM32F4xx_HAL_Driver/Src/stm32f4xx_hal_rtc_ex.c ****   {
1544:Drivers/STM32F4xx_HAL_Driver/Src/stm32f4xx_hal_rtc_ex.c ****     /* Enable the write protection for RTC registers */
1545:Drivers/STM32F4xx_HAL_Driver/Src/stm32f4xx_hal_rtc_ex.c ****     __HAL_RTC_WRITEPROTECTION_ENABLE(hrtc);
 3095              		.loc 1 1545 5
 3096 00c2 FB68     		ldr	r3, [r7, #12]
 3097 00c4 1B68     		ldr	r3, [r3]
 3098 00c6 FF22     		movs	r2, #255
 3099 00c8 5A62     		str	r2, [r3, #36]
1546:Drivers/STM32F4xx_HAL_Driver/Src/stm32f4xx_hal_rtc_ex.c **** 
1547:Drivers/STM32F4xx_HAL_Driver/Src/stm32f4xx_hal_rtc_ex.c ****     /* Change RTC state */
1548:Drivers/STM32F4xx_HAL_Driver/Src/stm32f4xx_hal_rtc_ex.c ****     hrtc->State = HAL_RTC_STATE_ERROR;
 3100              		.loc 1 1548 17
 3101 00ca FB68     		ldr	r3, [r7, #12]
 3102 00cc 0422     		movs	r2, #4
 3103 00ce 5A77     		strb	r2, [r3, #29]
1549:Drivers/STM32F4xx_HAL_Driver/Src/stm32f4xx_hal_rtc_ex.c **** 
1550:Drivers/STM32F4xx_HAL_Driver/Src/stm32f4xx_hal_rtc_ex.c ****     /* Process Unlocked */
1551:Drivers/STM32F4xx_HAL_Driver/Src/stm32f4xx_hal_rtc_ex.c ****     __HAL_UNLOCK(hrtc);
 3104              		.loc 1 1551 5
 3105 00d0 FB68     		ldr	r3, [r7, #12]
 3106 00d2 0022     		movs	r2, #0
 3107 00d4 1A77     		strb	r2, [r3, #28]
1552:Drivers/STM32F4xx_HAL_Driver/Src/stm32f4xx_hal_rtc_ex.c **** 
1553:Drivers/STM32F4xx_HAL_Driver/Src/stm32f4xx_hal_rtc_ex.c ****     return HAL_ERROR;
 3108              		.loc 1 1553 12
 3109 00d6 0123     		movs	r3, #1
 3110 00d8 0AE0     		b	.L106
 3111              	.L110:
1554:Drivers/STM32F4xx_HAL_Driver/Src/stm32f4xx_hal_rtc_ex.c ****   }
1555:Drivers/STM32F4xx_HAL_Driver/Src/stm32f4xx_hal_rtc_ex.c **** 
1556:Drivers/STM32F4xx_HAL_Driver/Src/stm32f4xx_hal_rtc_ex.c ****   /* Enable the write protection for RTC registers */
1557:Drivers/STM32F4xx_HAL_Driver/Src/stm32f4xx_hal_rtc_ex.c ****   __HAL_RTC_WRITEPROTECTION_ENABLE(hrtc);
 3112              		.loc 1 1557 3
 3113 00da FB68     		ldr	r3, [r7, #12]
 3114 00dc 1B68     		ldr	r3, [r3]
 3115 00de FF22     		movs	r2, #255
 3116 00e0 5A62     		str	r2, [r3, #36]
1558:Drivers/STM32F4xx_HAL_Driver/Src/stm32f4xx_hal_rtc_ex.c **** 
1559:Drivers/STM32F4xx_HAL_Driver/Src/stm32f4xx_hal_rtc_ex.c ****   /* Change RTC state */
1560:Drivers/STM32F4xx_HAL_Driver/Src/stm32f4xx_hal_rtc_ex.c ****   hrtc->State = HAL_RTC_STATE_READY;
 3117              		.loc 1 1560 15
 3118 00e2 FB68     		ldr	r3, [r7, #12]
 3119 00e4 0122     		movs	r2, #1
 3120 00e6 5A77     		strb	r2, [r3, #29]
1561:Drivers/STM32F4xx_HAL_Driver/Src/stm32f4xx_hal_rtc_ex.c **** 
1562:Drivers/STM32F4xx_HAL_Driver/Src/stm32f4xx_hal_rtc_ex.c ****   /* Process Unlocked */
1563:Drivers/STM32F4xx_HAL_Driver/Src/stm32f4xx_hal_rtc_ex.c ****   __HAL_UNLOCK(hrtc);
 3121              		.loc 1 1563 3
 3122 00e8 FB68     		ldr	r3, [r7, #12]
 3123 00ea 0022     		movs	r2, #0
 3124 00ec 1A77     		strb	r2, [r3, #28]
1564:Drivers/STM32F4xx_HAL_Driver/Src/stm32f4xx_hal_rtc_ex.c **** 
1565:Drivers/STM32F4xx_HAL_Driver/Src/stm32f4xx_hal_rtc_ex.c ****   return HAL_OK;
 3125              		.loc 1 1565 10
 3126 00ee 0023     		movs	r3, #0
ARM GAS  C:\Users\TGSPOC~1\AppData\Local\Temp\ccVI6l15.s 			page 83


 3127              	.L106:
1566:Drivers/STM32F4xx_HAL_Driver/Src/stm32f4xx_hal_rtc_ex.c **** }
 3128              		.loc 1 1566 1
 3129 00f0 1846     		mov	r0, r3
 3130 00f2 1837     		adds	r7, r7, #24
 3131              	.LCFI136:
 3132              		.cfi_def_cfa_offset 8
 3133 00f4 BD46     		mov	sp, r7
 3134              	.LCFI137:
 3135              		.cfi_def_cfa_register 13
 3136              		@ sp needed
 3137 00f6 80BD     		pop	{r7, pc}
 3138              		.cfi_endproc
 3139              	.LFE158:
 3141              		.section	.text.HAL_RTCEx_SetCalibrationOutPut,"ax",%progbits
 3142              		.align	1
 3143              		.global	HAL_RTCEx_SetCalibrationOutPut
 3144              		.syntax unified
 3145              		.thumb
 3146              		.thumb_func
 3148              	HAL_RTCEx_SetCalibrationOutPut:
 3149              	.LFB159:
1567:Drivers/STM32F4xx_HAL_Driver/Src/stm32f4xx_hal_rtc_ex.c **** 
1568:Drivers/STM32F4xx_HAL_Driver/Src/stm32f4xx_hal_rtc_ex.c **** /**
1569:Drivers/STM32F4xx_HAL_Driver/Src/stm32f4xx_hal_rtc_ex.c ****   * @brief  Configures the Calibration Pinout (RTC_CALIB) Selection (1Hz or 512Hz).
1570:Drivers/STM32F4xx_HAL_Driver/Src/stm32f4xx_hal_rtc_ex.c ****   * @param  hrtc pointer to a RTC_HandleTypeDef structure that contains
1571:Drivers/STM32F4xx_HAL_Driver/Src/stm32f4xx_hal_rtc_ex.c ****   *                the configuration information for RTC.
1572:Drivers/STM32F4xx_HAL_Driver/Src/stm32f4xx_hal_rtc_ex.c ****   * @param  CalibOutput Select the Calibration output Selection.
1573:Drivers/STM32F4xx_HAL_Driver/Src/stm32f4xx_hal_rtc_ex.c ****   *          This parameter can be one of the following values:
1574:Drivers/STM32F4xx_HAL_Driver/Src/stm32f4xx_hal_rtc_ex.c ****   *             @arg RTC_CALIBOUTPUT_512HZ: A signal has a regular waveform at 512Hz.
1575:Drivers/STM32F4xx_HAL_Driver/Src/stm32f4xx_hal_rtc_ex.c ****   *             @arg RTC_CALIBOUTPUT_1HZ: A signal has a regular waveform at 1Hz.
1576:Drivers/STM32F4xx_HAL_Driver/Src/stm32f4xx_hal_rtc_ex.c ****   * @retval HAL status
1577:Drivers/STM32F4xx_HAL_Driver/Src/stm32f4xx_hal_rtc_ex.c ****   */
1578:Drivers/STM32F4xx_HAL_Driver/Src/stm32f4xx_hal_rtc_ex.c **** HAL_StatusTypeDef HAL_RTCEx_SetCalibrationOutPut(RTC_HandleTypeDef *hrtc, uint32_t CalibOutput)
1579:Drivers/STM32F4xx_HAL_Driver/Src/stm32f4xx_hal_rtc_ex.c **** {
 3150              		.loc 1 1579 1
 3151              		.cfi_startproc
 3152              		@ args = 0, pretend = 0, frame = 8
 3153              		@ frame_needed = 1, uses_anonymous_args = 0
 3154              		@ link register save eliminated.
 3155 0000 80B4     		push	{r7}
 3156              	.LCFI138:
 3157              		.cfi_def_cfa_offset 4
 3158              		.cfi_offset 7, -4
 3159 0002 83B0     		sub	sp, sp, #12
 3160              	.LCFI139:
 3161              		.cfi_def_cfa_offset 16
 3162 0004 00AF     		add	r7, sp, #0
 3163              	.LCFI140:
 3164              		.cfi_def_cfa_register 7
 3165 0006 7860     		str	r0, [r7, #4]
 3166 0008 3960     		str	r1, [r7]
1580:Drivers/STM32F4xx_HAL_Driver/Src/stm32f4xx_hal_rtc_ex.c ****   /* Check the parameters */
1581:Drivers/STM32F4xx_HAL_Driver/Src/stm32f4xx_hal_rtc_ex.c ****   assert_param(IS_RTC_CALIB_OUTPUT(CalibOutput));
1582:Drivers/STM32F4xx_HAL_Driver/Src/stm32f4xx_hal_rtc_ex.c **** 
1583:Drivers/STM32F4xx_HAL_Driver/Src/stm32f4xx_hal_rtc_ex.c ****   /* Process Locked */
1584:Drivers/STM32F4xx_HAL_Driver/Src/stm32f4xx_hal_rtc_ex.c ****   __HAL_LOCK(hrtc);
ARM GAS  C:\Users\TGSPOC~1\AppData\Local\Temp\ccVI6l15.s 			page 84


 3167              		.loc 1 1584 3
 3168 000a 7B68     		ldr	r3, [r7, #4]
 3169 000c 1B7F     		ldrb	r3, [r3, #28]	@ zero_extendqisi2
 3170 000e 012B     		cmp	r3, #1
 3171 0010 01D1     		bne	.L112
 3172              		.loc 1 1584 3 is_stmt 0 discriminator 1
 3173 0012 0223     		movs	r3, #2
 3174              		.loc 1 1584 3
 3175 0014 30E0     		b	.L113
 3176              	.L112:
 3177              		.loc 1 1584 3 discriminator 2
 3178 0016 7B68     		ldr	r3, [r7, #4]
 3179 0018 0122     		movs	r2, #1
 3180 001a 1A77     		strb	r2, [r3, #28]
1585:Drivers/STM32F4xx_HAL_Driver/Src/stm32f4xx_hal_rtc_ex.c **** 
1586:Drivers/STM32F4xx_HAL_Driver/Src/stm32f4xx_hal_rtc_ex.c ****   hrtc->State = HAL_RTC_STATE_BUSY;
 3181              		.loc 1 1586 15 is_stmt 1
 3182 001c 7B68     		ldr	r3, [r7, #4]
 3183 001e 0222     		movs	r2, #2
 3184 0020 5A77     		strb	r2, [r3, #29]
1587:Drivers/STM32F4xx_HAL_Driver/Src/stm32f4xx_hal_rtc_ex.c **** 
1588:Drivers/STM32F4xx_HAL_Driver/Src/stm32f4xx_hal_rtc_ex.c ****   /* Disable the write protection for RTC registers */
1589:Drivers/STM32F4xx_HAL_Driver/Src/stm32f4xx_hal_rtc_ex.c ****   __HAL_RTC_WRITEPROTECTION_DISABLE(hrtc);
 3185              		.loc 1 1589 3
 3186 0022 7B68     		ldr	r3, [r7, #4]
 3187 0024 1B68     		ldr	r3, [r3]
 3188 0026 CA22     		movs	r2, #202
 3189 0028 5A62     		str	r2, [r3, #36]
 3190 002a 7B68     		ldr	r3, [r7, #4]
 3191 002c 1B68     		ldr	r3, [r3]
 3192 002e 5322     		movs	r2, #83
 3193 0030 5A62     		str	r2, [r3, #36]
1590:Drivers/STM32F4xx_HAL_Driver/Src/stm32f4xx_hal_rtc_ex.c **** 
1591:Drivers/STM32F4xx_HAL_Driver/Src/stm32f4xx_hal_rtc_ex.c ****   /* Clear flags before config */
1592:Drivers/STM32F4xx_HAL_Driver/Src/stm32f4xx_hal_rtc_ex.c ****   hrtc->Instance->CR &= (uint32_t)~RTC_CR_COSEL;
 3194              		.loc 1 1592 7
 3195 0032 7B68     		ldr	r3, [r7, #4]
 3196 0034 1B68     		ldr	r3, [r3]
 3197              		.loc 1 1592 17
 3198 0036 9A68     		ldr	r2, [r3, #8]
 3199              		.loc 1 1592 7
 3200 0038 7B68     		ldr	r3, [r7, #4]
 3201 003a 1B68     		ldr	r3, [r3]
 3202              		.loc 1 1592 22
 3203 003c 22F40022 		bic	r2, r2, #524288
 3204 0040 9A60     		str	r2, [r3, #8]
1593:Drivers/STM32F4xx_HAL_Driver/Src/stm32f4xx_hal_rtc_ex.c **** 
1594:Drivers/STM32F4xx_HAL_Driver/Src/stm32f4xx_hal_rtc_ex.c ****   /* Configure the RTC_CR register */
1595:Drivers/STM32F4xx_HAL_Driver/Src/stm32f4xx_hal_rtc_ex.c ****   hrtc->Instance->CR |= (uint32_t)CalibOutput;
 3205              		.loc 1 1595 7
 3206 0042 7B68     		ldr	r3, [r7, #4]
 3207 0044 1B68     		ldr	r3, [r3]
 3208              		.loc 1 1595 17
 3209 0046 9968     		ldr	r1, [r3, #8]
 3210              		.loc 1 1595 7
 3211 0048 7B68     		ldr	r3, [r7, #4]
 3212 004a 1B68     		ldr	r3, [r3]
ARM GAS  C:\Users\TGSPOC~1\AppData\Local\Temp\ccVI6l15.s 			page 85


 3213              		.loc 1 1595 22
 3214 004c 3A68     		ldr	r2, [r7]
 3215 004e 0A43     		orrs	r2, r2, r1
 3216 0050 9A60     		str	r2, [r3, #8]
1596:Drivers/STM32F4xx_HAL_Driver/Src/stm32f4xx_hal_rtc_ex.c **** 
1597:Drivers/STM32F4xx_HAL_Driver/Src/stm32f4xx_hal_rtc_ex.c ****   __HAL_RTC_CALIBRATION_OUTPUT_ENABLE(hrtc);
 3217              		.loc 1 1597 3
 3218 0052 7B68     		ldr	r3, [r7, #4]
 3219 0054 1B68     		ldr	r3, [r3]
 3220 0056 9A68     		ldr	r2, [r3, #8]
 3221 0058 7B68     		ldr	r3, [r7, #4]
 3222 005a 1B68     		ldr	r3, [r3]
 3223 005c 42F40002 		orr	r2, r2, #8388608
 3224 0060 9A60     		str	r2, [r3, #8]
1598:Drivers/STM32F4xx_HAL_Driver/Src/stm32f4xx_hal_rtc_ex.c **** 
1599:Drivers/STM32F4xx_HAL_Driver/Src/stm32f4xx_hal_rtc_ex.c ****   /* Enable the write protection for RTC registers */
1600:Drivers/STM32F4xx_HAL_Driver/Src/stm32f4xx_hal_rtc_ex.c ****   __HAL_RTC_WRITEPROTECTION_ENABLE(hrtc);
 3225              		.loc 1 1600 3
 3226 0062 7B68     		ldr	r3, [r7, #4]
 3227 0064 1B68     		ldr	r3, [r3]
 3228 0066 FF22     		movs	r2, #255
 3229 0068 5A62     		str	r2, [r3, #36]
1601:Drivers/STM32F4xx_HAL_Driver/Src/stm32f4xx_hal_rtc_ex.c **** 
1602:Drivers/STM32F4xx_HAL_Driver/Src/stm32f4xx_hal_rtc_ex.c ****   /* Change RTC state */
1603:Drivers/STM32F4xx_HAL_Driver/Src/stm32f4xx_hal_rtc_ex.c ****   hrtc->State = HAL_RTC_STATE_READY;
 3230              		.loc 1 1603 15
 3231 006a 7B68     		ldr	r3, [r7, #4]
 3232 006c 0122     		movs	r2, #1
 3233 006e 5A77     		strb	r2, [r3, #29]
1604:Drivers/STM32F4xx_HAL_Driver/Src/stm32f4xx_hal_rtc_ex.c **** 
1605:Drivers/STM32F4xx_HAL_Driver/Src/stm32f4xx_hal_rtc_ex.c ****   /* Process Unlocked */
1606:Drivers/STM32F4xx_HAL_Driver/Src/stm32f4xx_hal_rtc_ex.c ****   __HAL_UNLOCK(hrtc);
 3234              		.loc 1 1606 3
 3235 0070 7B68     		ldr	r3, [r7, #4]
 3236 0072 0022     		movs	r2, #0
 3237 0074 1A77     		strb	r2, [r3, #28]
1607:Drivers/STM32F4xx_HAL_Driver/Src/stm32f4xx_hal_rtc_ex.c **** 
1608:Drivers/STM32F4xx_HAL_Driver/Src/stm32f4xx_hal_rtc_ex.c ****   return HAL_OK;
 3238              		.loc 1 1608 10
 3239 0076 0023     		movs	r3, #0
 3240              	.L113:
1609:Drivers/STM32F4xx_HAL_Driver/Src/stm32f4xx_hal_rtc_ex.c **** }
 3241              		.loc 1 1609 1
 3242 0078 1846     		mov	r0, r3
 3243 007a 0C37     		adds	r7, r7, #12
 3244              	.LCFI141:
 3245              		.cfi_def_cfa_offset 4
 3246 007c BD46     		mov	sp, r7
 3247              	.LCFI142:
 3248              		.cfi_def_cfa_register 13
 3249              		@ sp needed
 3250 007e 5DF8047B 		ldr	r7, [sp], #4
 3251              	.LCFI143:
 3252              		.cfi_restore 7
 3253              		.cfi_def_cfa_offset 0
 3254 0082 7047     		bx	lr
 3255              		.cfi_endproc
ARM GAS  C:\Users\TGSPOC~1\AppData\Local\Temp\ccVI6l15.s 			page 86


 3256              	.LFE159:
 3258              		.section	.text.HAL_RTCEx_DeactivateCalibrationOutPut,"ax",%progbits
 3259              		.align	1
 3260              		.global	HAL_RTCEx_DeactivateCalibrationOutPut
 3261              		.syntax unified
 3262              		.thumb
 3263              		.thumb_func
 3265              	HAL_RTCEx_DeactivateCalibrationOutPut:
 3266              	.LFB160:
1610:Drivers/STM32F4xx_HAL_Driver/Src/stm32f4xx_hal_rtc_ex.c **** 
1611:Drivers/STM32F4xx_HAL_Driver/Src/stm32f4xx_hal_rtc_ex.c **** /**
1612:Drivers/STM32F4xx_HAL_Driver/Src/stm32f4xx_hal_rtc_ex.c ****   * @brief  Deactivates the Calibration Pinout (RTC_CALIB) Selection (1Hz or 512Hz).
1613:Drivers/STM32F4xx_HAL_Driver/Src/stm32f4xx_hal_rtc_ex.c ****   * @param  hrtc pointer to a RTC_HandleTypeDef structure that contains
1614:Drivers/STM32F4xx_HAL_Driver/Src/stm32f4xx_hal_rtc_ex.c ****   *                the configuration information for RTC.
1615:Drivers/STM32F4xx_HAL_Driver/Src/stm32f4xx_hal_rtc_ex.c ****   * @retval HAL status
1616:Drivers/STM32F4xx_HAL_Driver/Src/stm32f4xx_hal_rtc_ex.c ****   */
1617:Drivers/STM32F4xx_HAL_Driver/Src/stm32f4xx_hal_rtc_ex.c **** HAL_StatusTypeDef HAL_RTCEx_DeactivateCalibrationOutPut(RTC_HandleTypeDef *hrtc)
1618:Drivers/STM32F4xx_HAL_Driver/Src/stm32f4xx_hal_rtc_ex.c **** {
 3267              		.loc 1 1618 1
 3268              		.cfi_startproc
 3269              		@ args = 0, pretend = 0, frame = 8
 3270              		@ frame_needed = 1, uses_anonymous_args = 0
 3271              		@ link register save eliminated.
 3272 0000 80B4     		push	{r7}
 3273              	.LCFI144:
 3274              		.cfi_def_cfa_offset 4
 3275              		.cfi_offset 7, -4
 3276 0002 83B0     		sub	sp, sp, #12
 3277              	.LCFI145:
 3278              		.cfi_def_cfa_offset 16
 3279 0004 00AF     		add	r7, sp, #0
 3280              	.LCFI146:
 3281              		.cfi_def_cfa_register 7
 3282 0006 7860     		str	r0, [r7, #4]
1619:Drivers/STM32F4xx_HAL_Driver/Src/stm32f4xx_hal_rtc_ex.c ****   /* Process Locked */
1620:Drivers/STM32F4xx_HAL_Driver/Src/stm32f4xx_hal_rtc_ex.c ****   __HAL_LOCK(hrtc);
 3283              		.loc 1 1620 3
 3284 0008 7B68     		ldr	r3, [r7, #4]
 3285 000a 1B7F     		ldrb	r3, [r3, #28]	@ zero_extendqisi2
 3286 000c 012B     		cmp	r3, #1
 3287 000e 01D1     		bne	.L115
 3288              		.loc 1 1620 3 is_stmt 0 discriminator 1
 3289 0010 0223     		movs	r3, #2
 3290              		.loc 1 1620 3
 3291 0012 20E0     		b	.L116
 3292              	.L115:
 3293              		.loc 1 1620 3 discriminator 2
 3294 0014 7B68     		ldr	r3, [r7, #4]
 3295 0016 0122     		movs	r2, #1
 3296 0018 1A77     		strb	r2, [r3, #28]
1621:Drivers/STM32F4xx_HAL_Driver/Src/stm32f4xx_hal_rtc_ex.c **** 
1622:Drivers/STM32F4xx_HAL_Driver/Src/stm32f4xx_hal_rtc_ex.c ****   hrtc->State = HAL_RTC_STATE_BUSY;
 3297              		.loc 1 1622 15 is_stmt 1
 3298 001a 7B68     		ldr	r3, [r7, #4]
 3299 001c 0222     		movs	r2, #2
 3300 001e 5A77     		strb	r2, [r3, #29]
1623:Drivers/STM32F4xx_HAL_Driver/Src/stm32f4xx_hal_rtc_ex.c **** 
ARM GAS  C:\Users\TGSPOC~1\AppData\Local\Temp\ccVI6l15.s 			page 87


1624:Drivers/STM32F4xx_HAL_Driver/Src/stm32f4xx_hal_rtc_ex.c ****   /* Disable the write protection for RTC registers */
1625:Drivers/STM32F4xx_HAL_Driver/Src/stm32f4xx_hal_rtc_ex.c ****   __HAL_RTC_WRITEPROTECTION_DISABLE(hrtc);
 3301              		.loc 1 1625 3
 3302 0020 7B68     		ldr	r3, [r7, #4]
 3303 0022 1B68     		ldr	r3, [r3]
 3304 0024 CA22     		movs	r2, #202
 3305 0026 5A62     		str	r2, [r3, #36]
 3306 0028 7B68     		ldr	r3, [r7, #4]
 3307 002a 1B68     		ldr	r3, [r3]
 3308 002c 5322     		movs	r2, #83
 3309 002e 5A62     		str	r2, [r3, #36]
1626:Drivers/STM32F4xx_HAL_Driver/Src/stm32f4xx_hal_rtc_ex.c **** 
1627:Drivers/STM32F4xx_HAL_Driver/Src/stm32f4xx_hal_rtc_ex.c ****   __HAL_RTC_CALIBRATION_OUTPUT_DISABLE(hrtc);
 3310              		.loc 1 1627 3
 3311 0030 7B68     		ldr	r3, [r7, #4]
 3312 0032 1B68     		ldr	r3, [r3]
 3313 0034 9A68     		ldr	r2, [r3, #8]
 3314 0036 7B68     		ldr	r3, [r7, #4]
 3315 0038 1B68     		ldr	r3, [r3]
 3316 003a 22F40002 		bic	r2, r2, #8388608
 3317 003e 9A60     		str	r2, [r3, #8]
1628:Drivers/STM32F4xx_HAL_Driver/Src/stm32f4xx_hal_rtc_ex.c **** 
1629:Drivers/STM32F4xx_HAL_Driver/Src/stm32f4xx_hal_rtc_ex.c ****   /* Enable the write protection for RTC registers */
1630:Drivers/STM32F4xx_HAL_Driver/Src/stm32f4xx_hal_rtc_ex.c ****   __HAL_RTC_WRITEPROTECTION_ENABLE(hrtc);
 3318              		.loc 1 1630 3
 3319 0040 7B68     		ldr	r3, [r7, #4]
 3320 0042 1B68     		ldr	r3, [r3]
 3321 0044 FF22     		movs	r2, #255
 3322 0046 5A62     		str	r2, [r3, #36]
1631:Drivers/STM32F4xx_HAL_Driver/Src/stm32f4xx_hal_rtc_ex.c **** 
1632:Drivers/STM32F4xx_HAL_Driver/Src/stm32f4xx_hal_rtc_ex.c ****   /* Change RTC state */
1633:Drivers/STM32F4xx_HAL_Driver/Src/stm32f4xx_hal_rtc_ex.c ****   hrtc->State = HAL_RTC_STATE_READY;
 3323              		.loc 1 1633 15
 3324 0048 7B68     		ldr	r3, [r7, #4]
 3325 004a 0122     		movs	r2, #1
 3326 004c 5A77     		strb	r2, [r3, #29]
1634:Drivers/STM32F4xx_HAL_Driver/Src/stm32f4xx_hal_rtc_ex.c **** 
1635:Drivers/STM32F4xx_HAL_Driver/Src/stm32f4xx_hal_rtc_ex.c ****   /* Process Unlocked */
1636:Drivers/STM32F4xx_HAL_Driver/Src/stm32f4xx_hal_rtc_ex.c ****   __HAL_UNLOCK(hrtc);
 3327              		.loc 1 1636 3
 3328 004e 7B68     		ldr	r3, [r7, #4]
 3329 0050 0022     		movs	r2, #0
 3330 0052 1A77     		strb	r2, [r3, #28]
1637:Drivers/STM32F4xx_HAL_Driver/Src/stm32f4xx_hal_rtc_ex.c **** 
1638:Drivers/STM32F4xx_HAL_Driver/Src/stm32f4xx_hal_rtc_ex.c ****   return HAL_OK;
 3331              		.loc 1 1638 10
 3332 0054 0023     		movs	r3, #0
 3333              	.L116:
1639:Drivers/STM32F4xx_HAL_Driver/Src/stm32f4xx_hal_rtc_ex.c **** }
 3334              		.loc 1 1639 1
 3335 0056 1846     		mov	r0, r3
 3336 0058 0C37     		adds	r7, r7, #12
 3337              	.LCFI147:
 3338              		.cfi_def_cfa_offset 4
 3339 005a BD46     		mov	sp, r7
 3340              	.LCFI148:
 3341              		.cfi_def_cfa_register 13
ARM GAS  C:\Users\TGSPOC~1\AppData\Local\Temp\ccVI6l15.s 			page 88


 3342              		@ sp needed
 3343 005c 5DF8047B 		ldr	r7, [sp], #4
 3344              	.LCFI149:
 3345              		.cfi_restore 7
 3346              		.cfi_def_cfa_offset 0
 3347 0060 7047     		bx	lr
 3348              		.cfi_endproc
 3349              	.LFE160:
 3351              		.section	.text.HAL_RTCEx_SetRefClock,"ax",%progbits
 3352              		.align	1
 3353              		.global	HAL_RTCEx_SetRefClock
 3354              		.syntax unified
 3355              		.thumb
 3356              		.thumb_func
 3358              	HAL_RTCEx_SetRefClock:
 3359              	.LFB161:
1640:Drivers/STM32F4xx_HAL_Driver/Src/stm32f4xx_hal_rtc_ex.c **** 
1641:Drivers/STM32F4xx_HAL_Driver/Src/stm32f4xx_hal_rtc_ex.c **** /**
1642:Drivers/STM32F4xx_HAL_Driver/Src/stm32f4xx_hal_rtc_ex.c ****   * @brief  Enables the RTC reference clock detection.
1643:Drivers/STM32F4xx_HAL_Driver/Src/stm32f4xx_hal_rtc_ex.c ****   * @param  hrtc pointer to a RTC_HandleTypeDef structure that contains
1644:Drivers/STM32F4xx_HAL_Driver/Src/stm32f4xx_hal_rtc_ex.c ****   *                the configuration information for RTC.
1645:Drivers/STM32F4xx_HAL_Driver/Src/stm32f4xx_hal_rtc_ex.c ****   * @retval HAL status
1646:Drivers/STM32F4xx_HAL_Driver/Src/stm32f4xx_hal_rtc_ex.c ****   */
1647:Drivers/STM32F4xx_HAL_Driver/Src/stm32f4xx_hal_rtc_ex.c **** HAL_StatusTypeDef HAL_RTCEx_SetRefClock(RTC_HandleTypeDef *hrtc)
1648:Drivers/STM32F4xx_HAL_Driver/Src/stm32f4xx_hal_rtc_ex.c **** {
 3360              		.loc 1 1648 1
 3361              		.cfi_startproc
 3362              		@ args = 0, pretend = 0, frame = 16
 3363              		@ frame_needed = 1, uses_anonymous_args = 0
 3364 0000 80B5     		push	{r7, lr}
 3365              	.LCFI150:
 3366              		.cfi_def_cfa_offset 8
 3367              		.cfi_offset 7, -8
 3368              		.cfi_offset 14, -4
 3369 0002 84B0     		sub	sp, sp, #16
 3370              	.LCFI151:
 3371              		.cfi_def_cfa_offset 24
 3372 0004 00AF     		add	r7, sp, #0
 3373              	.LCFI152:
 3374              		.cfi_def_cfa_register 7
 3375 0006 7860     		str	r0, [r7, #4]
1649:Drivers/STM32F4xx_HAL_Driver/Src/stm32f4xx_hal_rtc_ex.c ****   HAL_StatusTypeDef status;
1650:Drivers/STM32F4xx_HAL_Driver/Src/stm32f4xx_hal_rtc_ex.c **** 
1651:Drivers/STM32F4xx_HAL_Driver/Src/stm32f4xx_hal_rtc_ex.c ****   /* Process Locked */
1652:Drivers/STM32F4xx_HAL_Driver/Src/stm32f4xx_hal_rtc_ex.c ****   __HAL_LOCK(hrtc);
 3376              		.loc 1 1652 3
 3377 0008 7B68     		ldr	r3, [r7, #4]
 3378 000a 1B7F     		ldrb	r3, [r3, #28]	@ zero_extendqisi2
 3379 000c 012B     		cmp	r3, #1
 3380 000e 01D1     		bne	.L118
 3381              		.loc 1 1652 3 is_stmt 0 discriminator 1
 3382 0010 0223     		movs	r3, #2
 3383              		.loc 1 1652 3
 3384 0012 30E0     		b	.L119
 3385              	.L118:
 3386              		.loc 1 1652 3 discriminator 2
 3387 0014 7B68     		ldr	r3, [r7, #4]
ARM GAS  C:\Users\TGSPOC~1\AppData\Local\Temp\ccVI6l15.s 			page 89


 3388 0016 0122     		movs	r2, #1
 3389 0018 1A77     		strb	r2, [r3, #28]
1653:Drivers/STM32F4xx_HAL_Driver/Src/stm32f4xx_hal_rtc_ex.c **** 
1654:Drivers/STM32F4xx_HAL_Driver/Src/stm32f4xx_hal_rtc_ex.c ****   hrtc->State = HAL_RTC_STATE_BUSY;
 3390              		.loc 1 1654 15 is_stmt 1
 3391 001a 7B68     		ldr	r3, [r7, #4]
 3392 001c 0222     		movs	r2, #2
 3393 001e 5A77     		strb	r2, [r3, #29]
1655:Drivers/STM32F4xx_HAL_Driver/Src/stm32f4xx_hal_rtc_ex.c **** 
1656:Drivers/STM32F4xx_HAL_Driver/Src/stm32f4xx_hal_rtc_ex.c ****   /* Disable the write protection for RTC registers */
1657:Drivers/STM32F4xx_HAL_Driver/Src/stm32f4xx_hal_rtc_ex.c ****   __HAL_RTC_WRITEPROTECTION_DISABLE(hrtc);
 3394              		.loc 1 1657 3
 3395 0020 7B68     		ldr	r3, [r7, #4]
 3396 0022 1B68     		ldr	r3, [r3]
 3397 0024 CA22     		movs	r2, #202
 3398 0026 5A62     		str	r2, [r3, #36]
 3399 0028 7B68     		ldr	r3, [r7, #4]
 3400 002a 1B68     		ldr	r3, [r3]
 3401 002c 5322     		movs	r2, #83
 3402 002e 5A62     		str	r2, [r3, #36]
1658:Drivers/STM32F4xx_HAL_Driver/Src/stm32f4xx_hal_rtc_ex.c **** 
1659:Drivers/STM32F4xx_HAL_Driver/Src/stm32f4xx_hal_rtc_ex.c ****   /* Enter Initialization mode */
1660:Drivers/STM32F4xx_HAL_Driver/Src/stm32f4xx_hal_rtc_ex.c ****   status = RTC_EnterInitMode(hrtc);
 3403              		.loc 1 1660 12
 3404 0030 7868     		ldr	r0, [r7, #4]
 3405 0032 FFF7FEFF 		bl	RTC_EnterInitMode
 3406 0036 0346     		mov	r3, r0
 3407 0038 FB73     		strb	r3, [r7, #15]
1661:Drivers/STM32F4xx_HAL_Driver/Src/stm32f4xx_hal_rtc_ex.c **** 
1662:Drivers/STM32F4xx_HAL_Driver/Src/stm32f4xx_hal_rtc_ex.c ****   if (status == HAL_OK)
 3408              		.loc 1 1662 6
 3409 003a FB7B     		ldrb	r3, [r7, #15]	@ zero_extendqisi2
 3410 003c 002B     		cmp	r3, #0
 3411 003e 0CD1     		bne	.L120
1663:Drivers/STM32F4xx_HAL_Driver/Src/stm32f4xx_hal_rtc_ex.c ****   {
1664:Drivers/STM32F4xx_HAL_Driver/Src/stm32f4xx_hal_rtc_ex.c ****     /* Enable the reference clock detection */
1665:Drivers/STM32F4xx_HAL_Driver/Src/stm32f4xx_hal_rtc_ex.c ****     __HAL_RTC_CLOCKREF_DETECTION_ENABLE(hrtc);
 3412              		.loc 1 1665 5
 3413 0040 7B68     		ldr	r3, [r7, #4]
 3414 0042 1B68     		ldr	r3, [r3]
 3415 0044 9A68     		ldr	r2, [r3, #8]
 3416 0046 7B68     		ldr	r3, [r7, #4]
 3417 0048 1B68     		ldr	r3, [r3]
 3418 004a 42F01002 		orr	r2, r2, #16
 3419 004e 9A60     		str	r2, [r3, #8]
1666:Drivers/STM32F4xx_HAL_Driver/Src/stm32f4xx_hal_rtc_ex.c **** 
1667:Drivers/STM32F4xx_HAL_Driver/Src/stm32f4xx_hal_rtc_ex.c ****     /* Exit Initialization mode */
1668:Drivers/STM32F4xx_HAL_Driver/Src/stm32f4xx_hal_rtc_ex.c ****     status = RTC_ExitInitMode(hrtc);
 3420              		.loc 1 1668 14
 3421 0050 7868     		ldr	r0, [r7, #4]
 3422 0052 FFF7FEFF 		bl	RTC_ExitInitMode
 3423 0056 0346     		mov	r3, r0
 3424 0058 FB73     		strb	r3, [r7, #15]
 3425              	.L120:
1669:Drivers/STM32F4xx_HAL_Driver/Src/stm32f4xx_hal_rtc_ex.c ****   }
1670:Drivers/STM32F4xx_HAL_Driver/Src/stm32f4xx_hal_rtc_ex.c **** 
1671:Drivers/STM32F4xx_HAL_Driver/Src/stm32f4xx_hal_rtc_ex.c ****   if (status == HAL_OK)
ARM GAS  C:\Users\TGSPOC~1\AppData\Local\Temp\ccVI6l15.s 			page 90


 3426              		.loc 1 1671 6
 3427 005a FB7B     		ldrb	r3, [r7, #15]	@ zero_extendqisi2
 3428 005c 002B     		cmp	r3, #0
 3429 005e 02D1     		bne	.L121
1672:Drivers/STM32F4xx_HAL_Driver/Src/stm32f4xx_hal_rtc_ex.c ****   {
1673:Drivers/STM32F4xx_HAL_Driver/Src/stm32f4xx_hal_rtc_ex.c ****     hrtc->State = HAL_RTC_STATE_READY;
 3430              		.loc 1 1673 17
 3431 0060 7B68     		ldr	r3, [r7, #4]
 3432 0062 0122     		movs	r2, #1
 3433 0064 5A77     		strb	r2, [r3, #29]
 3434              	.L121:
1674:Drivers/STM32F4xx_HAL_Driver/Src/stm32f4xx_hal_rtc_ex.c ****   }
1675:Drivers/STM32F4xx_HAL_Driver/Src/stm32f4xx_hal_rtc_ex.c **** 
1676:Drivers/STM32F4xx_HAL_Driver/Src/stm32f4xx_hal_rtc_ex.c ****   /* Enable the write protection for RTC registers */
1677:Drivers/STM32F4xx_HAL_Driver/Src/stm32f4xx_hal_rtc_ex.c ****   __HAL_RTC_WRITEPROTECTION_ENABLE(hrtc);
 3435              		.loc 1 1677 3
 3436 0066 7B68     		ldr	r3, [r7, #4]
 3437 0068 1B68     		ldr	r3, [r3]
 3438 006a FF22     		movs	r2, #255
 3439 006c 5A62     		str	r2, [r3, #36]
1678:Drivers/STM32F4xx_HAL_Driver/Src/stm32f4xx_hal_rtc_ex.c **** 
1679:Drivers/STM32F4xx_HAL_Driver/Src/stm32f4xx_hal_rtc_ex.c ****   /* Process Unlocked */
1680:Drivers/STM32F4xx_HAL_Driver/Src/stm32f4xx_hal_rtc_ex.c ****   __HAL_UNLOCK(hrtc);
 3440              		.loc 1 1680 3
 3441 006e 7B68     		ldr	r3, [r7, #4]
 3442 0070 0022     		movs	r2, #0
 3443 0072 1A77     		strb	r2, [r3, #28]
1681:Drivers/STM32F4xx_HAL_Driver/Src/stm32f4xx_hal_rtc_ex.c **** 
1682:Drivers/STM32F4xx_HAL_Driver/Src/stm32f4xx_hal_rtc_ex.c ****   return status;
 3444              		.loc 1 1682 10
 3445 0074 FB7B     		ldrb	r3, [r7, #15]	@ zero_extendqisi2
 3446              	.L119:
1683:Drivers/STM32F4xx_HAL_Driver/Src/stm32f4xx_hal_rtc_ex.c **** }
 3447              		.loc 1 1683 1
 3448 0076 1846     		mov	r0, r3
 3449 0078 1037     		adds	r7, r7, #16
 3450              	.LCFI153:
 3451              		.cfi_def_cfa_offset 8
 3452 007a BD46     		mov	sp, r7
 3453              	.LCFI154:
 3454              		.cfi_def_cfa_register 13
 3455              		@ sp needed
 3456 007c 80BD     		pop	{r7, pc}
 3457              		.cfi_endproc
 3458              	.LFE161:
 3460              		.section	.text.HAL_RTCEx_DeactivateRefClock,"ax",%progbits
 3461              		.align	1
 3462              		.global	HAL_RTCEx_DeactivateRefClock
 3463              		.syntax unified
 3464              		.thumb
 3465              		.thumb_func
 3467              	HAL_RTCEx_DeactivateRefClock:
 3468              	.LFB162:
1684:Drivers/STM32F4xx_HAL_Driver/Src/stm32f4xx_hal_rtc_ex.c **** 
1685:Drivers/STM32F4xx_HAL_Driver/Src/stm32f4xx_hal_rtc_ex.c **** /**
1686:Drivers/STM32F4xx_HAL_Driver/Src/stm32f4xx_hal_rtc_ex.c ****   * @brief  Disable the RTC reference clock detection.
1687:Drivers/STM32F4xx_HAL_Driver/Src/stm32f4xx_hal_rtc_ex.c ****   * @param  hrtc pointer to a RTC_HandleTypeDef structure that contains
ARM GAS  C:\Users\TGSPOC~1\AppData\Local\Temp\ccVI6l15.s 			page 91


1688:Drivers/STM32F4xx_HAL_Driver/Src/stm32f4xx_hal_rtc_ex.c ****   *                the configuration information for RTC.
1689:Drivers/STM32F4xx_HAL_Driver/Src/stm32f4xx_hal_rtc_ex.c ****   * @retval HAL status
1690:Drivers/STM32F4xx_HAL_Driver/Src/stm32f4xx_hal_rtc_ex.c ****   */
1691:Drivers/STM32F4xx_HAL_Driver/Src/stm32f4xx_hal_rtc_ex.c **** HAL_StatusTypeDef HAL_RTCEx_DeactivateRefClock(RTC_HandleTypeDef *hrtc)
1692:Drivers/STM32F4xx_HAL_Driver/Src/stm32f4xx_hal_rtc_ex.c **** {
 3469              		.loc 1 1692 1
 3470              		.cfi_startproc
 3471              		@ args = 0, pretend = 0, frame = 16
 3472              		@ frame_needed = 1, uses_anonymous_args = 0
 3473 0000 80B5     		push	{r7, lr}
 3474              	.LCFI155:
 3475              		.cfi_def_cfa_offset 8
 3476              		.cfi_offset 7, -8
 3477              		.cfi_offset 14, -4
 3478 0002 84B0     		sub	sp, sp, #16
 3479              	.LCFI156:
 3480              		.cfi_def_cfa_offset 24
 3481 0004 00AF     		add	r7, sp, #0
 3482              	.LCFI157:
 3483              		.cfi_def_cfa_register 7
 3484 0006 7860     		str	r0, [r7, #4]
1693:Drivers/STM32F4xx_HAL_Driver/Src/stm32f4xx_hal_rtc_ex.c ****   HAL_StatusTypeDef status;
1694:Drivers/STM32F4xx_HAL_Driver/Src/stm32f4xx_hal_rtc_ex.c **** 
1695:Drivers/STM32F4xx_HAL_Driver/Src/stm32f4xx_hal_rtc_ex.c ****   /* Process Locked */
1696:Drivers/STM32F4xx_HAL_Driver/Src/stm32f4xx_hal_rtc_ex.c ****   __HAL_LOCK(hrtc);
 3485              		.loc 1 1696 3
 3486 0008 7B68     		ldr	r3, [r7, #4]
 3487 000a 1B7F     		ldrb	r3, [r3, #28]	@ zero_extendqisi2
 3488 000c 012B     		cmp	r3, #1
 3489 000e 01D1     		bne	.L123
 3490              		.loc 1 1696 3 is_stmt 0 discriminator 1
 3491 0010 0223     		movs	r3, #2
 3492              		.loc 1 1696 3
 3493 0012 30E0     		b	.L124
 3494              	.L123:
 3495              		.loc 1 1696 3 discriminator 2
 3496 0014 7B68     		ldr	r3, [r7, #4]
 3497 0016 0122     		movs	r2, #1
 3498 0018 1A77     		strb	r2, [r3, #28]
1697:Drivers/STM32F4xx_HAL_Driver/Src/stm32f4xx_hal_rtc_ex.c **** 
1698:Drivers/STM32F4xx_HAL_Driver/Src/stm32f4xx_hal_rtc_ex.c ****   hrtc->State = HAL_RTC_STATE_BUSY;
 3499              		.loc 1 1698 15 is_stmt 1
 3500 001a 7B68     		ldr	r3, [r7, #4]
 3501 001c 0222     		movs	r2, #2
 3502 001e 5A77     		strb	r2, [r3, #29]
1699:Drivers/STM32F4xx_HAL_Driver/Src/stm32f4xx_hal_rtc_ex.c **** 
1700:Drivers/STM32F4xx_HAL_Driver/Src/stm32f4xx_hal_rtc_ex.c ****   /* Disable the write protection for RTC registers */
1701:Drivers/STM32F4xx_HAL_Driver/Src/stm32f4xx_hal_rtc_ex.c ****   __HAL_RTC_WRITEPROTECTION_DISABLE(hrtc);
 3503              		.loc 1 1701 3
 3504 0020 7B68     		ldr	r3, [r7, #4]
 3505 0022 1B68     		ldr	r3, [r3]
 3506 0024 CA22     		movs	r2, #202
 3507 0026 5A62     		str	r2, [r3, #36]
 3508 0028 7B68     		ldr	r3, [r7, #4]
 3509 002a 1B68     		ldr	r3, [r3]
 3510 002c 5322     		movs	r2, #83
 3511 002e 5A62     		str	r2, [r3, #36]
ARM GAS  C:\Users\TGSPOC~1\AppData\Local\Temp\ccVI6l15.s 			page 92


1702:Drivers/STM32F4xx_HAL_Driver/Src/stm32f4xx_hal_rtc_ex.c **** 
1703:Drivers/STM32F4xx_HAL_Driver/Src/stm32f4xx_hal_rtc_ex.c ****   /* Enter Initialization mode */
1704:Drivers/STM32F4xx_HAL_Driver/Src/stm32f4xx_hal_rtc_ex.c ****   status = RTC_EnterInitMode(hrtc);
 3512              		.loc 1 1704 12
 3513 0030 7868     		ldr	r0, [r7, #4]
 3514 0032 FFF7FEFF 		bl	RTC_EnterInitMode
 3515 0036 0346     		mov	r3, r0
 3516 0038 FB73     		strb	r3, [r7, #15]
1705:Drivers/STM32F4xx_HAL_Driver/Src/stm32f4xx_hal_rtc_ex.c **** 
1706:Drivers/STM32F4xx_HAL_Driver/Src/stm32f4xx_hal_rtc_ex.c ****   if (status == HAL_OK)
 3517              		.loc 1 1706 6
 3518 003a FB7B     		ldrb	r3, [r7, #15]	@ zero_extendqisi2
 3519 003c 002B     		cmp	r3, #0
 3520 003e 0CD1     		bne	.L125
1707:Drivers/STM32F4xx_HAL_Driver/Src/stm32f4xx_hal_rtc_ex.c ****   {
1708:Drivers/STM32F4xx_HAL_Driver/Src/stm32f4xx_hal_rtc_ex.c ****     /* Disable the reference clock detection */
1709:Drivers/STM32F4xx_HAL_Driver/Src/stm32f4xx_hal_rtc_ex.c ****     __HAL_RTC_CLOCKREF_DETECTION_DISABLE(hrtc);
 3521              		.loc 1 1709 5
 3522 0040 7B68     		ldr	r3, [r7, #4]
 3523 0042 1B68     		ldr	r3, [r3]
 3524 0044 9A68     		ldr	r2, [r3, #8]
 3525 0046 7B68     		ldr	r3, [r7, #4]
 3526 0048 1B68     		ldr	r3, [r3]
 3527 004a 22F01002 		bic	r2, r2, #16
 3528 004e 9A60     		str	r2, [r3, #8]
1710:Drivers/STM32F4xx_HAL_Driver/Src/stm32f4xx_hal_rtc_ex.c **** 
1711:Drivers/STM32F4xx_HAL_Driver/Src/stm32f4xx_hal_rtc_ex.c ****     /* Exit Initialization mode */
1712:Drivers/STM32F4xx_HAL_Driver/Src/stm32f4xx_hal_rtc_ex.c ****     status = RTC_ExitInitMode(hrtc);
 3529              		.loc 1 1712 14
 3530 0050 7868     		ldr	r0, [r7, #4]
 3531 0052 FFF7FEFF 		bl	RTC_ExitInitMode
 3532 0056 0346     		mov	r3, r0
 3533 0058 FB73     		strb	r3, [r7, #15]
 3534              	.L125:
1713:Drivers/STM32F4xx_HAL_Driver/Src/stm32f4xx_hal_rtc_ex.c ****   }
1714:Drivers/STM32F4xx_HAL_Driver/Src/stm32f4xx_hal_rtc_ex.c **** 
1715:Drivers/STM32F4xx_HAL_Driver/Src/stm32f4xx_hal_rtc_ex.c ****   if (status == HAL_OK)
 3535              		.loc 1 1715 6
 3536 005a FB7B     		ldrb	r3, [r7, #15]	@ zero_extendqisi2
 3537 005c 002B     		cmp	r3, #0
 3538 005e 02D1     		bne	.L126
1716:Drivers/STM32F4xx_HAL_Driver/Src/stm32f4xx_hal_rtc_ex.c ****   {
1717:Drivers/STM32F4xx_HAL_Driver/Src/stm32f4xx_hal_rtc_ex.c ****     hrtc->State = HAL_RTC_STATE_READY;
 3539              		.loc 1 1717 17
 3540 0060 7B68     		ldr	r3, [r7, #4]
 3541 0062 0122     		movs	r2, #1
 3542 0064 5A77     		strb	r2, [r3, #29]
 3543              	.L126:
1718:Drivers/STM32F4xx_HAL_Driver/Src/stm32f4xx_hal_rtc_ex.c ****   }
1719:Drivers/STM32F4xx_HAL_Driver/Src/stm32f4xx_hal_rtc_ex.c **** 
1720:Drivers/STM32F4xx_HAL_Driver/Src/stm32f4xx_hal_rtc_ex.c ****   /* Enable the write protection for RTC registers */
1721:Drivers/STM32F4xx_HAL_Driver/Src/stm32f4xx_hal_rtc_ex.c ****   __HAL_RTC_WRITEPROTECTION_ENABLE(hrtc);
 3544              		.loc 1 1721 3
 3545 0066 7B68     		ldr	r3, [r7, #4]
 3546 0068 1B68     		ldr	r3, [r3]
 3547 006a FF22     		movs	r2, #255
 3548 006c 5A62     		str	r2, [r3, #36]
ARM GAS  C:\Users\TGSPOC~1\AppData\Local\Temp\ccVI6l15.s 			page 93


1722:Drivers/STM32F4xx_HAL_Driver/Src/stm32f4xx_hal_rtc_ex.c **** 
1723:Drivers/STM32F4xx_HAL_Driver/Src/stm32f4xx_hal_rtc_ex.c ****   /* Process Unlocked */
1724:Drivers/STM32F4xx_HAL_Driver/Src/stm32f4xx_hal_rtc_ex.c ****   __HAL_UNLOCK(hrtc);
 3549              		.loc 1 1724 3
 3550 006e 7B68     		ldr	r3, [r7, #4]
 3551 0070 0022     		movs	r2, #0
 3552 0072 1A77     		strb	r2, [r3, #28]
1725:Drivers/STM32F4xx_HAL_Driver/Src/stm32f4xx_hal_rtc_ex.c **** 
1726:Drivers/STM32F4xx_HAL_Driver/Src/stm32f4xx_hal_rtc_ex.c ****   return status;
 3553              		.loc 1 1726 10
 3554 0074 FB7B     		ldrb	r3, [r7, #15]	@ zero_extendqisi2
 3555              	.L124:
1727:Drivers/STM32F4xx_HAL_Driver/Src/stm32f4xx_hal_rtc_ex.c **** }
 3556              		.loc 1 1727 1
 3557 0076 1846     		mov	r0, r3
 3558 0078 1037     		adds	r7, r7, #16
 3559              	.LCFI158:
 3560              		.cfi_def_cfa_offset 8
 3561 007a BD46     		mov	sp, r7
 3562              	.LCFI159:
 3563              		.cfi_def_cfa_register 13
 3564              		@ sp needed
 3565 007c 80BD     		pop	{r7, pc}
 3566              		.cfi_endproc
 3567              	.LFE162:
 3569              		.section	.text.HAL_RTCEx_EnableBypassShadow,"ax",%progbits
 3570              		.align	1
 3571              		.global	HAL_RTCEx_EnableBypassShadow
 3572              		.syntax unified
 3573              		.thumb
 3574              		.thumb_func
 3576              	HAL_RTCEx_EnableBypassShadow:
 3577              	.LFB163:
1728:Drivers/STM32F4xx_HAL_Driver/Src/stm32f4xx_hal_rtc_ex.c **** 
1729:Drivers/STM32F4xx_HAL_Driver/Src/stm32f4xx_hal_rtc_ex.c **** /**
1730:Drivers/STM32F4xx_HAL_Driver/Src/stm32f4xx_hal_rtc_ex.c ****   * @brief  Enables the Bypass Shadow feature.
1731:Drivers/STM32F4xx_HAL_Driver/Src/stm32f4xx_hal_rtc_ex.c ****   * @param  hrtc pointer to a RTC_HandleTypeDef structure that contains
1732:Drivers/STM32F4xx_HAL_Driver/Src/stm32f4xx_hal_rtc_ex.c ****   *                the configuration information for RTC.
1733:Drivers/STM32F4xx_HAL_Driver/Src/stm32f4xx_hal_rtc_ex.c ****   * @note   When the Bypass Shadow is enabled the calendar value are taken
1734:Drivers/STM32F4xx_HAL_Driver/Src/stm32f4xx_hal_rtc_ex.c ****   *         directly from the Calendar counter.
1735:Drivers/STM32F4xx_HAL_Driver/Src/stm32f4xx_hal_rtc_ex.c ****   * @retval HAL status
1736:Drivers/STM32F4xx_HAL_Driver/Src/stm32f4xx_hal_rtc_ex.c ****   */
1737:Drivers/STM32F4xx_HAL_Driver/Src/stm32f4xx_hal_rtc_ex.c **** HAL_StatusTypeDef HAL_RTCEx_EnableBypassShadow(RTC_HandleTypeDef *hrtc)
1738:Drivers/STM32F4xx_HAL_Driver/Src/stm32f4xx_hal_rtc_ex.c **** {
 3578              		.loc 1 1738 1
 3579              		.cfi_startproc
 3580              		@ args = 0, pretend = 0, frame = 8
 3581              		@ frame_needed = 1, uses_anonymous_args = 0
 3582              		@ link register save eliminated.
 3583 0000 80B4     		push	{r7}
 3584              	.LCFI160:
 3585              		.cfi_def_cfa_offset 4
 3586              		.cfi_offset 7, -4
 3587 0002 83B0     		sub	sp, sp, #12
 3588              	.LCFI161:
 3589              		.cfi_def_cfa_offset 16
 3590 0004 00AF     		add	r7, sp, #0
ARM GAS  C:\Users\TGSPOC~1\AppData\Local\Temp\ccVI6l15.s 			page 94


 3591              	.LCFI162:
 3592              		.cfi_def_cfa_register 7
 3593 0006 7860     		str	r0, [r7, #4]
1739:Drivers/STM32F4xx_HAL_Driver/Src/stm32f4xx_hal_rtc_ex.c ****   /* Process Locked */
1740:Drivers/STM32F4xx_HAL_Driver/Src/stm32f4xx_hal_rtc_ex.c ****   __HAL_LOCK(hrtc);
 3594              		.loc 1 1740 3
 3595 0008 7B68     		ldr	r3, [r7, #4]
 3596 000a 1B7F     		ldrb	r3, [r3, #28]	@ zero_extendqisi2
 3597 000c 012B     		cmp	r3, #1
 3598 000e 01D1     		bne	.L128
 3599              		.loc 1 1740 3 is_stmt 0 discriminator 1
 3600 0010 0223     		movs	r3, #2
 3601              		.loc 1 1740 3
 3602 0012 20E0     		b	.L129
 3603              	.L128:
 3604              		.loc 1 1740 3 discriminator 2
 3605 0014 7B68     		ldr	r3, [r7, #4]
 3606 0016 0122     		movs	r2, #1
 3607 0018 1A77     		strb	r2, [r3, #28]
1741:Drivers/STM32F4xx_HAL_Driver/Src/stm32f4xx_hal_rtc_ex.c **** 
1742:Drivers/STM32F4xx_HAL_Driver/Src/stm32f4xx_hal_rtc_ex.c ****   hrtc->State = HAL_RTC_STATE_BUSY;
 3608              		.loc 1 1742 15 is_stmt 1
 3609 001a 7B68     		ldr	r3, [r7, #4]
 3610 001c 0222     		movs	r2, #2
 3611 001e 5A77     		strb	r2, [r3, #29]
1743:Drivers/STM32F4xx_HAL_Driver/Src/stm32f4xx_hal_rtc_ex.c **** 
1744:Drivers/STM32F4xx_HAL_Driver/Src/stm32f4xx_hal_rtc_ex.c ****   /* Disable the write protection for RTC registers */
1745:Drivers/STM32F4xx_HAL_Driver/Src/stm32f4xx_hal_rtc_ex.c ****   __HAL_RTC_WRITEPROTECTION_DISABLE(hrtc);
 3612              		.loc 1 1745 3
 3613 0020 7B68     		ldr	r3, [r7, #4]
 3614 0022 1B68     		ldr	r3, [r3]
 3615 0024 CA22     		movs	r2, #202
 3616 0026 5A62     		str	r2, [r3, #36]
 3617 0028 7B68     		ldr	r3, [r7, #4]
 3618 002a 1B68     		ldr	r3, [r3]
 3619 002c 5322     		movs	r2, #83
 3620 002e 5A62     		str	r2, [r3, #36]
1746:Drivers/STM32F4xx_HAL_Driver/Src/stm32f4xx_hal_rtc_ex.c **** 
1747:Drivers/STM32F4xx_HAL_Driver/Src/stm32f4xx_hal_rtc_ex.c ****   /* Set the BYPSHAD bit */
1748:Drivers/STM32F4xx_HAL_Driver/Src/stm32f4xx_hal_rtc_ex.c ****   hrtc->Instance->CR |= (uint8_t)RTC_CR_BYPSHAD;
 3621              		.loc 1 1748 7
 3622 0030 7B68     		ldr	r3, [r7, #4]
 3623 0032 1B68     		ldr	r3, [r3]
 3624              		.loc 1 1748 17
 3625 0034 9A68     		ldr	r2, [r3, #8]
 3626              		.loc 1 1748 7
 3627 0036 7B68     		ldr	r3, [r7, #4]
 3628 0038 1B68     		ldr	r3, [r3]
 3629              		.loc 1 1748 22
 3630 003a 42F02002 		orr	r2, r2, #32
 3631 003e 9A60     		str	r2, [r3, #8]
1749:Drivers/STM32F4xx_HAL_Driver/Src/stm32f4xx_hal_rtc_ex.c **** 
1750:Drivers/STM32F4xx_HAL_Driver/Src/stm32f4xx_hal_rtc_ex.c ****   /* Enable the write protection for RTC registers */
1751:Drivers/STM32F4xx_HAL_Driver/Src/stm32f4xx_hal_rtc_ex.c ****   __HAL_RTC_WRITEPROTECTION_ENABLE(hrtc);
 3632              		.loc 1 1751 3
 3633 0040 7B68     		ldr	r3, [r7, #4]
 3634 0042 1B68     		ldr	r3, [r3]
ARM GAS  C:\Users\TGSPOC~1\AppData\Local\Temp\ccVI6l15.s 			page 95


 3635 0044 FF22     		movs	r2, #255
 3636 0046 5A62     		str	r2, [r3, #36]
1752:Drivers/STM32F4xx_HAL_Driver/Src/stm32f4xx_hal_rtc_ex.c **** 
1753:Drivers/STM32F4xx_HAL_Driver/Src/stm32f4xx_hal_rtc_ex.c ****   /* Change RTC state */
1754:Drivers/STM32F4xx_HAL_Driver/Src/stm32f4xx_hal_rtc_ex.c ****   hrtc->State = HAL_RTC_STATE_READY;
 3637              		.loc 1 1754 15
 3638 0048 7B68     		ldr	r3, [r7, #4]
 3639 004a 0122     		movs	r2, #1
 3640 004c 5A77     		strb	r2, [r3, #29]
1755:Drivers/STM32F4xx_HAL_Driver/Src/stm32f4xx_hal_rtc_ex.c **** 
1756:Drivers/STM32F4xx_HAL_Driver/Src/stm32f4xx_hal_rtc_ex.c ****   /* Process Unlocked */
1757:Drivers/STM32F4xx_HAL_Driver/Src/stm32f4xx_hal_rtc_ex.c ****   __HAL_UNLOCK(hrtc);
 3641              		.loc 1 1757 3
 3642 004e 7B68     		ldr	r3, [r7, #4]
 3643 0050 0022     		movs	r2, #0
 3644 0052 1A77     		strb	r2, [r3, #28]
1758:Drivers/STM32F4xx_HAL_Driver/Src/stm32f4xx_hal_rtc_ex.c **** 
1759:Drivers/STM32F4xx_HAL_Driver/Src/stm32f4xx_hal_rtc_ex.c ****   return HAL_OK;
 3645              		.loc 1 1759 10
 3646 0054 0023     		movs	r3, #0
 3647              	.L129:
1760:Drivers/STM32F4xx_HAL_Driver/Src/stm32f4xx_hal_rtc_ex.c **** }
 3648              		.loc 1 1760 1
 3649 0056 1846     		mov	r0, r3
 3650 0058 0C37     		adds	r7, r7, #12
 3651              	.LCFI163:
 3652              		.cfi_def_cfa_offset 4
 3653 005a BD46     		mov	sp, r7
 3654              	.LCFI164:
 3655              		.cfi_def_cfa_register 13
 3656              		@ sp needed
 3657 005c 5DF8047B 		ldr	r7, [sp], #4
 3658              	.LCFI165:
 3659              		.cfi_restore 7
 3660              		.cfi_def_cfa_offset 0
 3661 0060 7047     		bx	lr
 3662              		.cfi_endproc
 3663              	.LFE163:
 3665              		.section	.text.HAL_RTCEx_DisableBypassShadow,"ax",%progbits
 3666              		.align	1
 3667              		.global	HAL_RTCEx_DisableBypassShadow
 3668              		.syntax unified
 3669              		.thumb
 3670              		.thumb_func
 3672              	HAL_RTCEx_DisableBypassShadow:
 3673              	.LFB164:
1761:Drivers/STM32F4xx_HAL_Driver/Src/stm32f4xx_hal_rtc_ex.c **** 
1762:Drivers/STM32F4xx_HAL_Driver/Src/stm32f4xx_hal_rtc_ex.c **** /**
1763:Drivers/STM32F4xx_HAL_Driver/Src/stm32f4xx_hal_rtc_ex.c ****   * @brief  Disables the Bypass Shadow feature.
1764:Drivers/STM32F4xx_HAL_Driver/Src/stm32f4xx_hal_rtc_ex.c ****   * @param  hrtc pointer to a RTC_HandleTypeDef structure that contains
1765:Drivers/STM32F4xx_HAL_Driver/Src/stm32f4xx_hal_rtc_ex.c ****   *                the configuration information for RTC.
1766:Drivers/STM32F4xx_HAL_Driver/Src/stm32f4xx_hal_rtc_ex.c ****   * @note   When the Bypass Shadow is enabled the calendar value are taken
1767:Drivers/STM32F4xx_HAL_Driver/Src/stm32f4xx_hal_rtc_ex.c ****   *         directly from the Calendar counter.
1768:Drivers/STM32F4xx_HAL_Driver/Src/stm32f4xx_hal_rtc_ex.c ****   * @retval HAL status
1769:Drivers/STM32F4xx_HAL_Driver/Src/stm32f4xx_hal_rtc_ex.c ****   */
1770:Drivers/STM32F4xx_HAL_Driver/Src/stm32f4xx_hal_rtc_ex.c **** HAL_StatusTypeDef HAL_RTCEx_DisableBypassShadow(RTC_HandleTypeDef *hrtc)
1771:Drivers/STM32F4xx_HAL_Driver/Src/stm32f4xx_hal_rtc_ex.c **** {
ARM GAS  C:\Users\TGSPOC~1\AppData\Local\Temp\ccVI6l15.s 			page 96


 3674              		.loc 1 1771 1
 3675              		.cfi_startproc
 3676              		@ args = 0, pretend = 0, frame = 8
 3677              		@ frame_needed = 1, uses_anonymous_args = 0
 3678              		@ link register save eliminated.
 3679 0000 80B4     		push	{r7}
 3680              	.LCFI166:
 3681              		.cfi_def_cfa_offset 4
 3682              		.cfi_offset 7, -4
 3683 0002 83B0     		sub	sp, sp, #12
 3684              	.LCFI167:
 3685              		.cfi_def_cfa_offset 16
 3686 0004 00AF     		add	r7, sp, #0
 3687              	.LCFI168:
 3688              		.cfi_def_cfa_register 7
 3689 0006 7860     		str	r0, [r7, #4]
1772:Drivers/STM32F4xx_HAL_Driver/Src/stm32f4xx_hal_rtc_ex.c ****   /* Process Locked */
1773:Drivers/STM32F4xx_HAL_Driver/Src/stm32f4xx_hal_rtc_ex.c ****   __HAL_LOCK(hrtc);
 3690              		.loc 1 1773 3
 3691 0008 7B68     		ldr	r3, [r7, #4]
 3692 000a 1B7F     		ldrb	r3, [r3, #28]	@ zero_extendqisi2
 3693 000c 012B     		cmp	r3, #1
 3694 000e 01D1     		bne	.L131
 3695              		.loc 1 1773 3 is_stmt 0 discriminator 1
 3696 0010 0223     		movs	r3, #2
 3697              		.loc 1 1773 3
 3698 0012 20E0     		b	.L132
 3699              	.L131:
 3700              		.loc 1 1773 3 discriminator 2
 3701 0014 7B68     		ldr	r3, [r7, #4]
 3702 0016 0122     		movs	r2, #1
 3703 0018 1A77     		strb	r2, [r3, #28]
1774:Drivers/STM32F4xx_HAL_Driver/Src/stm32f4xx_hal_rtc_ex.c **** 
1775:Drivers/STM32F4xx_HAL_Driver/Src/stm32f4xx_hal_rtc_ex.c ****   hrtc->State = HAL_RTC_STATE_BUSY;
 3704              		.loc 1 1775 15 is_stmt 1
 3705 001a 7B68     		ldr	r3, [r7, #4]
 3706 001c 0222     		movs	r2, #2
 3707 001e 5A77     		strb	r2, [r3, #29]
1776:Drivers/STM32F4xx_HAL_Driver/Src/stm32f4xx_hal_rtc_ex.c **** 
1777:Drivers/STM32F4xx_HAL_Driver/Src/stm32f4xx_hal_rtc_ex.c ****   /* Disable the write protection for RTC registers */
1778:Drivers/STM32F4xx_HAL_Driver/Src/stm32f4xx_hal_rtc_ex.c ****   __HAL_RTC_WRITEPROTECTION_DISABLE(hrtc);
 3708              		.loc 1 1778 3
 3709 0020 7B68     		ldr	r3, [r7, #4]
 3710 0022 1B68     		ldr	r3, [r3]
 3711 0024 CA22     		movs	r2, #202
 3712 0026 5A62     		str	r2, [r3, #36]
 3713 0028 7B68     		ldr	r3, [r7, #4]
 3714 002a 1B68     		ldr	r3, [r3]
 3715 002c 5322     		movs	r2, #83
 3716 002e 5A62     		str	r2, [r3, #36]
1779:Drivers/STM32F4xx_HAL_Driver/Src/stm32f4xx_hal_rtc_ex.c **** 
1780:Drivers/STM32F4xx_HAL_Driver/Src/stm32f4xx_hal_rtc_ex.c ****   /* Reset the BYPSHAD bit */
1781:Drivers/STM32F4xx_HAL_Driver/Src/stm32f4xx_hal_rtc_ex.c ****   hrtc->Instance->CR &= (uint8_t)~RTC_CR_BYPSHAD;
 3717              		.loc 1 1781 7
 3718 0030 7B68     		ldr	r3, [r7, #4]
 3719 0032 1B68     		ldr	r3, [r3]
 3720              		.loc 1 1781 17
ARM GAS  C:\Users\TGSPOC~1\AppData\Local\Temp\ccVI6l15.s 			page 97


 3721 0034 9A68     		ldr	r2, [r3, #8]
 3722              		.loc 1 1781 7
 3723 0036 7B68     		ldr	r3, [r7, #4]
 3724 0038 1B68     		ldr	r3, [r3]
 3725              		.loc 1 1781 22
 3726 003a 02F0DF02 		and	r2, r2, #223
 3727 003e 9A60     		str	r2, [r3, #8]
1782:Drivers/STM32F4xx_HAL_Driver/Src/stm32f4xx_hal_rtc_ex.c **** 
1783:Drivers/STM32F4xx_HAL_Driver/Src/stm32f4xx_hal_rtc_ex.c ****   /* Enable the write protection for RTC registers */
1784:Drivers/STM32F4xx_HAL_Driver/Src/stm32f4xx_hal_rtc_ex.c ****   __HAL_RTC_WRITEPROTECTION_ENABLE(hrtc);
 3728              		.loc 1 1784 3
 3729 0040 7B68     		ldr	r3, [r7, #4]
 3730 0042 1B68     		ldr	r3, [r3]
 3731 0044 FF22     		movs	r2, #255
 3732 0046 5A62     		str	r2, [r3, #36]
1785:Drivers/STM32F4xx_HAL_Driver/Src/stm32f4xx_hal_rtc_ex.c **** 
1786:Drivers/STM32F4xx_HAL_Driver/Src/stm32f4xx_hal_rtc_ex.c ****   /* Change RTC state */
1787:Drivers/STM32F4xx_HAL_Driver/Src/stm32f4xx_hal_rtc_ex.c ****   hrtc->State = HAL_RTC_STATE_READY;
 3733              		.loc 1 1787 15
 3734 0048 7B68     		ldr	r3, [r7, #4]
 3735 004a 0122     		movs	r2, #1
 3736 004c 5A77     		strb	r2, [r3, #29]
1788:Drivers/STM32F4xx_HAL_Driver/Src/stm32f4xx_hal_rtc_ex.c **** 
1789:Drivers/STM32F4xx_HAL_Driver/Src/stm32f4xx_hal_rtc_ex.c ****   /* Process Unlocked */
1790:Drivers/STM32F4xx_HAL_Driver/Src/stm32f4xx_hal_rtc_ex.c ****   __HAL_UNLOCK(hrtc);
 3737              		.loc 1 1790 3
 3738 004e 7B68     		ldr	r3, [r7, #4]
 3739 0050 0022     		movs	r2, #0
 3740 0052 1A77     		strb	r2, [r3, #28]
1791:Drivers/STM32F4xx_HAL_Driver/Src/stm32f4xx_hal_rtc_ex.c **** 
1792:Drivers/STM32F4xx_HAL_Driver/Src/stm32f4xx_hal_rtc_ex.c ****   return HAL_OK;
 3741              		.loc 1 1792 10
 3742 0054 0023     		movs	r3, #0
 3743              	.L132:
1793:Drivers/STM32F4xx_HAL_Driver/Src/stm32f4xx_hal_rtc_ex.c **** }
 3744              		.loc 1 1793 1
 3745 0056 1846     		mov	r0, r3
 3746 0058 0C37     		adds	r7, r7, #12
 3747              	.LCFI169:
 3748              		.cfi_def_cfa_offset 4
 3749 005a BD46     		mov	sp, r7
 3750              	.LCFI170:
 3751              		.cfi_def_cfa_register 13
 3752              		@ sp needed
 3753 005c 5DF8047B 		ldr	r7, [sp], #4
 3754              	.LCFI171:
 3755              		.cfi_restore 7
 3756              		.cfi_def_cfa_offset 0
 3757 0060 7047     		bx	lr
 3758              		.cfi_endproc
 3759              	.LFE164:
 3761              		.section	.text.HAL_RTCEx_AlarmBEventCallback,"ax",%progbits
 3762              		.align	1
 3763              		.weak	HAL_RTCEx_AlarmBEventCallback
 3764              		.syntax unified
 3765              		.thumb
 3766              		.thumb_func
ARM GAS  C:\Users\TGSPOC~1\AppData\Local\Temp\ccVI6l15.s 			page 98


 3768              	HAL_RTCEx_AlarmBEventCallback:
 3769              	.LFB165:
1794:Drivers/STM32F4xx_HAL_Driver/Src/stm32f4xx_hal_rtc_ex.c **** 
1795:Drivers/STM32F4xx_HAL_Driver/Src/stm32f4xx_hal_rtc_ex.c **** /**
1796:Drivers/STM32F4xx_HAL_Driver/Src/stm32f4xx_hal_rtc_ex.c ****   * @}
1797:Drivers/STM32F4xx_HAL_Driver/Src/stm32f4xx_hal_rtc_ex.c ****   */
1798:Drivers/STM32F4xx_HAL_Driver/Src/stm32f4xx_hal_rtc_ex.c **** 
1799:Drivers/STM32F4xx_HAL_Driver/Src/stm32f4xx_hal_rtc_ex.c **** /** @defgroup RTCEx_Exported_Functions_Group4 Extended features functions
1800:Drivers/STM32F4xx_HAL_Driver/Src/stm32f4xx_hal_rtc_ex.c ****   * @brief    Extended features functions
1801:Drivers/STM32F4xx_HAL_Driver/Src/stm32f4xx_hal_rtc_ex.c ****   *
1802:Drivers/STM32F4xx_HAL_Driver/Src/stm32f4xx_hal_rtc_ex.c **** @verbatim
1803:Drivers/STM32F4xx_HAL_Driver/Src/stm32f4xx_hal_rtc_ex.c ****  ===============================================================================
1804:Drivers/STM32F4xx_HAL_Driver/Src/stm32f4xx_hal_rtc_ex.c ****                  ##### Extended features functions #####
1805:Drivers/STM32F4xx_HAL_Driver/Src/stm32f4xx_hal_rtc_ex.c ****  ===============================================================================
1806:Drivers/STM32F4xx_HAL_Driver/Src/stm32f4xx_hal_rtc_ex.c ****     [..]  This section provides functions allowing to:
1807:Drivers/STM32F4xx_HAL_Driver/Src/stm32f4xx_hal_rtc_ex.c ****       (+) RTC Alarm B callback
1808:Drivers/STM32F4xx_HAL_Driver/Src/stm32f4xx_hal_rtc_ex.c ****       (+) RTC Poll for Alarm B request
1809:Drivers/STM32F4xx_HAL_Driver/Src/stm32f4xx_hal_rtc_ex.c **** 
1810:Drivers/STM32F4xx_HAL_Driver/Src/stm32f4xx_hal_rtc_ex.c **** @endverbatim
1811:Drivers/STM32F4xx_HAL_Driver/Src/stm32f4xx_hal_rtc_ex.c ****   * @{
1812:Drivers/STM32F4xx_HAL_Driver/Src/stm32f4xx_hal_rtc_ex.c ****   */
1813:Drivers/STM32F4xx_HAL_Driver/Src/stm32f4xx_hal_rtc_ex.c **** 
1814:Drivers/STM32F4xx_HAL_Driver/Src/stm32f4xx_hal_rtc_ex.c **** /**
1815:Drivers/STM32F4xx_HAL_Driver/Src/stm32f4xx_hal_rtc_ex.c ****   * @brief  Alarm B callback.
1816:Drivers/STM32F4xx_HAL_Driver/Src/stm32f4xx_hal_rtc_ex.c ****   * @param  hrtc pointer to a RTC_HandleTypeDef structure that contains
1817:Drivers/STM32F4xx_HAL_Driver/Src/stm32f4xx_hal_rtc_ex.c ****   *                the configuration information for RTC.
1818:Drivers/STM32F4xx_HAL_Driver/Src/stm32f4xx_hal_rtc_ex.c ****   * @retval None
1819:Drivers/STM32F4xx_HAL_Driver/Src/stm32f4xx_hal_rtc_ex.c ****   */
1820:Drivers/STM32F4xx_HAL_Driver/Src/stm32f4xx_hal_rtc_ex.c **** __weak void HAL_RTCEx_AlarmBEventCallback(RTC_HandleTypeDef *hrtc)
1821:Drivers/STM32F4xx_HAL_Driver/Src/stm32f4xx_hal_rtc_ex.c **** {
 3770              		.loc 1 1821 1
 3771              		.cfi_startproc
 3772              		@ args = 0, pretend = 0, frame = 8
 3773              		@ frame_needed = 1, uses_anonymous_args = 0
 3774              		@ link register save eliminated.
 3775 0000 80B4     		push	{r7}
 3776              	.LCFI172:
 3777              		.cfi_def_cfa_offset 4
 3778              		.cfi_offset 7, -4
 3779 0002 83B0     		sub	sp, sp, #12
 3780              	.LCFI173:
 3781              		.cfi_def_cfa_offset 16
 3782 0004 00AF     		add	r7, sp, #0
 3783              	.LCFI174:
 3784              		.cfi_def_cfa_register 7
 3785 0006 7860     		str	r0, [r7, #4]
1822:Drivers/STM32F4xx_HAL_Driver/Src/stm32f4xx_hal_rtc_ex.c ****   /* Prevent unused argument(s) compilation warning */
1823:Drivers/STM32F4xx_HAL_Driver/Src/stm32f4xx_hal_rtc_ex.c ****   UNUSED(hrtc);
1824:Drivers/STM32F4xx_HAL_Driver/Src/stm32f4xx_hal_rtc_ex.c **** 
1825:Drivers/STM32F4xx_HAL_Driver/Src/stm32f4xx_hal_rtc_ex.c ****   /* NOTE: This function should not be modified, when the callback is needed,
1826:Drivers/STM32F4xx_HAL_Driver/Src/stm32f4xx_hal_rtc_ex.c ****            the HAL_RTCEx_AlarmBEventCallback could be implemented in the user file
1827:Drivers/STM32F4xx_HAL_Driver/Src/stm32f4xx_hal_rtc_ex.c ****    */
1828:Drivers/STM32F4xx_HAL_Driver/Src/stm32f4xx_hal_rtc_ex.c **** }
 3786              		.loc 1 1828 1
 3787 0008 00BF     		nop
 3788 000a 0C37     		adds	r7, r7, #12
 3789              	.LCFI175:
ARM GAS  C:\Users\TGSPOC~1\AppData\Local\Temp\ccVI6l15.s 			page 99


 3790              		.cfi_def_cfa_offset 4
 3791 000c BD46     		mov	sp, r7
 3792              	.LCFI176:
 3793              		.cfi_def_cfa_register 13
 3794              		@ sp needed
 3795 000e 5DF8047B 		ldr	r7, [sp], #4
 3796              	.LCFI177:
 3797              		.cfi_restore 7
 3798              		.cfi_def_cfa_offset 0
 3799 0012 7047     		bx	lr
 3800              		.cfi_endproc
 3801              	.LFE165:
 3803              		.section	.text.HAL_RTCEx_PollForAlarmBEvent,"ax",%progbits
 3804              		.align	1
 3805              		.global	HAL_RTCEx_PollForAlarmBEvent
 3806              		.syntax unified
 3807              		.thumb
 3808              		.thumb_func
 3810              	HAL_RTCEx_PollForAlarmBEvent:
 3811              	.LFB166:
1829:Drivers/STM32F4xx_HAL_Driver/Src/stm32f4xx_hal_rtc_ex.c **** 
1830:Drivers/STM32F4xx_HAL_Driver/Src/stm32f4xx_hal_rtc_ex.c **** /**
1831:Drivers/STM32F4xx_HAL_Driver/Src/stm32f4xx_hal_rtc_ex.c ****   * @brief  Handles Alarm B Polling request.
1832:Drivers/STM32F4xx_HAL_Driver/Src/stm32f4xx_hal_rtc_ex.c ****   * @param  hrtc pointer to a RTC_HandleTypeDef structure that contains
1833:Drivers/STM32F4xx_HAL_Driver/Src/stm32f4xx_hal_rtc_ex.c ****   *                the configuration information for RTC.
1834:Drivers/STM32F4xx_HAL_Driver/Src/stm32f4xx_hal_rtc_ex.c ****   * @param  Timeout Timeout duration
1835:Drivers/STM32F4xx_HAL_Driver/Src/stm32f4xx_hal_rtc_ex.c ****   * @retval HAL status
1836:Drivers/STM32F4xx_HAL_Driver/Src/stm32f4xx_hal_rtc_ex.c ****   */
1837:Drivers/STM32F4xx_HAL_Driver/Src/stm32f4xx_hal_rtc_ex.c **** HAL_StatusTypeDef HAL_RTCEx_PollForAlarmBEvent(RTC_HandleTypeDef *hrtc, uint32_t Timeout)
1838:Drivers/STM32F4xx_HAL_Driver/Src/stm32f4xx_hal_rtc_ex.c **** {
 3812              		.loc 1 1838 1
 3813              		.cfi_startproc
 3814              		@ args = 0, pretend = 0, frame = 16
 3815              		@ frame_needed = 1, uses_anonymous_args = 0
 3816 0000 80B5     		push	{r7, lr}
 3817              	.LCFI178:
 3818              		.cfi_def_cfa_offset 8
 3819              		.cfi_offset 7, -8
 3820              		.cfi_offset 14, -4
 3821 0002 84B0     		sub	sp, sp, #16
 3822              	.LCFI179:
 3823              		.cfi_def_cfa_offset 24
 3824 0004 00AF     		add	r7, sp, #0
 3825              	.LCFI180:
 3826              		.cfi_def_cfa_register 7
 3827 0006 7860     		str	r0, [r7, #4]
 3828 0008 3960     		str	r1, [r7]
1839:Drivers/STM32F4xx_HAL_Driver/Src/stm32f4xx_hal_rtc_ex.c ****   uint32_t tickstart = 0U;
 3829              		.loc 1 1839 12
 3830 000a 0023     		movs	r3, #0
 3831 000c FB60     		str	r3, [r7, #12]
1840:Drivers/STM32F4xx_HAL_Driver/Src/stm32f4xx_hal_rtc_ex.c **** 
1841:Drivers/STM32F4xx_HAL_Driver/Src/stm32f4xx_hal_rtc_ex.c ****   /* Get tick */
1842:Drivers/STM32F4xx_HAL_Driver/Src/stm32f4xx_hal_rtc_ex.c ****   tickstart = HAL_GetTick();
 3832              		.loc 1 1842 15
 3833 000e FFF7FEFF 		bl	HAL_GetTick
 3834 0012 F860     		str	r0, [r7, #12]
ARM GAS  C:\Users\TGSPOC~1\AppData\Local\Temp\ccVI6l15.s 			page 100


1843:Drivers/STM32F4xx_HAL_Driver/Src/stm32f4xx_hal_rtc_ex.c **** 
1844:Drivers/STM32F4xx_HAL_Driver/Src/stm32f4xx_hal_rtc_ex.c ****   /* Wait till RTC ALRBF flag is set and if timeout is reached exit */
1845:Drivers/STM32F4xx_HAL_Driver/Src/stm32f4xx_hal_rtc_ex.c ****   while (__HAL_RTC_ALARM_GET_FLAG(hrtc, RTC_FLAG_ALRBF) == 0U)
 3835              		.loc 1 1845 9
 3836 0014 13E0     		b	.L136
 3837              	.L139:
1846:Drivers/STM32F4xx_HAL_Driver/Src/stm32f4xx_hal_rtc_ex.c ****   {
1847:Drivers/STM32F4xx_HAL_Driver/Src/stm32f4xx_hal_rtc_ex.c ****     if (Timeout != HAL_MAX_DELAY)
 3838              		.loc 1 1847 8
 3839 0016 3B68     		ldr	r3, [r7]
 3840 0018 B3F1FF3F 		cmp	r3, #-1
 3841 001c 0FD0     		beq	.L136
1848:Drivers/STM32F4xx_HAL_Driver/Src/stm32f4xx_hal_rtc_ex.c ****     {
1849:Drivers/STM32F4xx_HAL_Driver/Src/stm32f4xx_hal_rtc_ex.c ****       if ((Timeout == 0U) || ((HAL_GetTick() - tickstart) > Timeout))
 3842              		.loc 1 1849 10
 3843 001e 3B68     		ldr	r3, [r7]
 3844 0020 002B     		cmp	r3, #0
 3845 0022 07D0     		beq	.L137
 3846              		.loc 1 1849 32 discriminator 1
 3847 0024 FFF7FEFF 		bl	HAL_GetTick
 3848 0028 0246     		mov	r2, r0
 3849              		.loc 1 1849 46 discriminator 1
 3850 002a FB68     		ldr	r3, [r7, #12]
 3851 002c D31A     		subs	r3, r2, r3
 3852              		.loc 1 1849 27 discriminator 1
 3853 002e 3A68     		ldr	r2, [r7]
 3854 0030 9A42     		cmp	r2, r3
 3855 0032 04D2     		bcs	.L136
 3856              	.L137:
1850:Drivers/STM32F4xx_HAL_Driver/Src/stm32f4xx_hal_rtc_ex.c ****       {
1851:Drivers/STM32F4xx_HAL_Driver/Src/stm32f4xx_hal_rtc_ex.c ****         hrtc->State = HAL_RTC_STATE_TIMEOUT;
 3857              		.loc 1 1851 21
 3858 0034 7B68     		ldr	r3, [r7, #4]
 3859 0036 0322     		movs	r2, #3
 3860 0038 5A77     		strb	r2, [r3, #29]
1852:Drivers/STM32F4xx_HAL_Driver/Src/stm32f4xx_hal_rtc_ex.c ****         return HAL_TIMEOUT;
 3861              		.loc 1 1852 16
 3862 003a 0323     		movs	r3, #3
 3863 003c 13E0     		b	.L138
 3864              	.L136:
1845:Drivers/STM32F4xx_HAL_Driver/Src/stm32f4xx_hal_rtc_ex.c ****   {
 3865              		.loc 1 1845 10
 3866 003e 7B68     		ldr	r3, [r7, #4]
 3867 0040 1B68     		ldr	r3, [r3]
 3868 0042 DB68     		ldr	r3, [r3, #12]
 3869 0044 03F40073 		and	r3, r3, #512
1845:Drivers/STM32F4xx_HAL_Driver/Src/stm32f4xx_hal_rtc_ex.c ****   {
 3870              		.loc 1 1845 57
 3871 0048 002B     		cmp	r3, #0
 3872 004a E4D0     		beq	.L139
1853:Drivers/STM32F4xx_HAL_Driver/Src/stm32f4xx_hal_rtc_ex.c ****       }
1854:Drivers/STM32F4xx_HAL_Driver/Src/stm32f4xx_hal_rtc_ex.c ****     }
1855:Drivers/STM32F4xx_HAL_Driver/Src/stm32f4xx_hal_rtc_ex.c ****   }
1856:Drivers/STM32F4xx_HAL_Driver/Src/stm32f4xx_hal_rtc_ex.c **** 
1857:Drivers/STM32F4xx_HAL_Driver/Src/stm32f4xx_hal_rtc_ex.c ****   /* Clear the Alarm flag */
1858:Drivers/STM32F4xx_HAL_Driver/Src/stm32f4xx_hal_rtc_ex.c ****   __HAL_RTC_ALARM_CLEAR_FLAG(hrtc, RTC_FLAG_ALRBF);
 3873              		.loc 1 1858 3
ARM GAS  C:\Users\TGSPOC~1\AppData\Local\Temp\ccVI6l15.s 			page 101


 3874 004c 7B68     		ldr	r3, [r7, #4]
 3875 004e 1B68     		ldr	r3, [r3]
 3876 0050 DB68     		ldr	r3, [r3, #12]
 3877 0052 DAB2     		uxtb	r2, r3
 3878 0054 7B68     		ldr	r3, [r7, #4]
 3879 0056 1B68     		ldr	r3, [r3]
 3880 0058 62F42072 		orn	r2, r2, #640
 3881 005c DA60     		str	r2, [r3, #12]
1859:Drivers/STM32F4xx_HAL_Driver/Src/stm32f4xx_hal_rtc_ex.c **** 
1860:Drivers/STM32F4xx_HAL_Driver/Src/stm32f4xx_hal_rtc_ex.c ****   /* Change RTC state */
1861:Drivers/STM32F4xx_HAL_Driver/Src/stm32f4xx_hal_rtc_ex.c ****   hrtc->State = HAL_RTC_STATE_READY;
 3882              		.loc 1 1861 15
 3883 005e 7B68     		ldr	r3, [r7, #4]
 3884 0060 0122     		movs	r2, #1
 3885 0062 5A77     		strb	r2, [r3, #29]
1862:Drivers/STM32F4xx_HAL_Driver/Src/stm32f4xx_hal_rtc_ex.c **** 
1863:Drivers/STM32F4xx_HAL_Driver/Src/stm32f4xx_hal_rtc_ex.c ****   return HAL_OK;
 3886              		.loc 1 1863 10
 3887 0064 0023     		movs	r3, #0
 3888              	.L138:
1864:Drivers/STM32F4xx_HAL_Driver/Src/stm32f4xx_hal_rtc_ex.c **** }
 3889              		.loc 1 1864 1
 3890 0066 1846     		mov	r0, r3
 3891 0068 1037     		adds	r7, r7, #16
 3892              	.LCFI181:
 3893              		.cfi_def_cfa_offset 8
 3894 006a BD46     		mov	sp, r7
 3895              	.LCFI182:
 3896              		.cfi_def_cfa_register 13
 3897              		@ sp needed
 3898 006c 80BD     		pop	{r7, pc}
 3899              		.cfi_endproc
 3900              	.LFE166:
 3902              		.text
 3903              	.Letext0:
 3904              		.file 2 "C:/gcc_vsc/arm_gcc/14.2 rel1/arm-none-eabi/include/machine/_default_types.h"
 3905              		.file 3 "C:/gcc_vsc/arm_gcc/14.2 rel1/arm-none-eabi/include/sys/_stdint.h"
 3906              		.file 4 "Drivers/CMSIS/Device/ST/STM32F4xx/Include/stm32f411xe.h"
 3907              		.file 5 "Drivers/STM32F4xx_HAL_Driver/Inc/stm32f4xx_hal_def.h"
 3908              		.file 6 "Drivers/STM32F4xx_HAL_Driver/Inc/stm32f4xx_hal_rtc.h"
 3909              		.file 7 "Drivers/STM32F4xx_HAL_Driver/Inc/stm32f4xx_hal_rtc_ex.h"
 3910              		.file 8 "Drivers/CMSIS/Device/ST/STM32F4xx/Include/system_stm32f4xx.h"
 3911              		.file 9 "Drivers/STM32F4xx_HAL_Driver/Inc/stm32f4xx_hal.h"
ARM GAS  C:\Users\TGSPOC~1\AppData\Local\Temp\ccVI6l15.s 			page 102


DEFINED SYMBOLS
                            *ABS*:00000000 stm32f4xx_hal_rtc_ex.c
C:\Users\TGSPOC~1\AppData\Local\Temp\ccVI6l15.s:21     .text.HAL_RTCEx_SetTimeStamp:00000000 $t
C:\Users\TGSPOC~1\AppData\Local\Temp\ccVI6l15.s:27     .text.HAL_RTCEx_SetTimeStamp:00000000 HAL_RTCEx_SetTimeStamp
C:\Users\TGSPOC~1\AppData\Local\Temp\ccVI6l15.s:180    .text.HAL_RTCEx_SetTimeStamp_IT:00000000 $t
C:\Users\TGSPOC~1\AppData\Local\Temp\ccVI6l15.s:186    .text.HAL_RTCEx_SetTimeStamp_IT:00000000 HAL_RTCEx_SetTimeStamp_IT
C:\Users\TGSPOC~1\AppData\Local\Temp\ccVI6l15.s:358    .text.HAL_RTCEx_SetTimeStamp_IT:000000f8 $d
C:\Users\TGSPOC~1\AppData\Local\Temp\ccVI6l15.s:363    .text.HAL_RTCEx_DeactivateTimeStamp:00000000 $t
C:\Users\TGSPOC~1\AppData\Local\Temp\ccVI6l15.s:369    .text.HAL_RTCEx_DeactivateTimeStamp:00000000 HAL_RTCEx_DeactivateTimeStamp
C:\Users\TGSPOC~1\AppData\Local\Temp\ccVI6l15.s:474    .text.HAL_RTCEx_GetTimeStamp:00000000 $t
C:\Users\TGSPOC~1\AppData\Local\Temp\ccVI6l15.s:480    .text.HAL_RTCEx_GetTimeStamp:00000000 HAL_RTCEx_GetTimeStamp
C:\Users\TGSPOC~1\AppData\Local\Temp\ccVI6l15.s:693    .text.HAL_RTCEx_SetTamper:00000000 $t
C:\Users\TGSPOC~1\AppData\Local\Temp\ccVI6l15.s:699    .text.HAL_RTCEx_SetTamper:00000000 HAL_RTCEx_SetTamper
C:\Users\TGSPOC~1\AppData\Local\Temp\ccVI6l15.s:857    .text.HAL_RTCEx_SetTamper_IT:00000000 $t
C:\Users\TGSPOC~1\AppData\Local\Temp\ccVI6l15.s:863    .text.HAL_RTCEx_SetTamper_IT:00000000 HAL_RTCEx_SetTamper_IT
C:\Users\TGSPOC~1\AppData\Local\Temp\ccVI6l15.s:1032   .text.HAL_RTCEx_SetTamper_IT:000000d4 $d
C:\Users\TGSPOC~1\AppData\Local\Temp\ccVI6l15.s:1037   .text.HAL_RTCEx_DeactivateTamper:00000000 $t
C:\Users\TGSPOC~1\AppData\Local\Temp\ccVI6l15.s:1043   .text.HAL_RTCEx_DeactivateTamper:00000000 HAL_RTCEx_DeactivateTamper
C:\Users\TGSPOC~1\AppData\Local\Temp\ccVI6l15.s:1123   .text.HAL_RTCEx_TamperTimeStampIRQHandler:00000000 $t
C:\Users\TGSPOC~1\AppData\Local\Temp\ccVI6l15.s:1129   .text.HAL_RTCEx_TamperTimeStampIRQHandler:00000000 HAL_RTCEx_TamperTimeStampIRQHandler
C:\Users\TGSPOC~1\AppData\Local\Temp\ccVI6l15.s:1237   .text.HAL_RTCEx_TimeStampEventCallback:00000000 HAL_RTCEx_TimeStampEventCallback
C:\Users\TGSPOC~1\AppData\Local\Temp\ccVI6l15.s:1279   .text.HAL_RTCEx_Tamper1EventCallback:00000000 HAL_RTCEx_Tamper1EventCallback
C:\Users\TGSPOC~1\AppData\Local\Temp\ccVI6l15.s:1226   .text.HAL_RTCEx_TamperTimeStampIRQHandler:00000088 $d
C:\Users\TGSPOC~1\AppData\Local\Temp\ccVI6l15.s:1231   .text.HAL_RTCEx_TimeStampEventCallback:00000000 $t
C:\Users\TGSPOC~1\AppData\Local\Temp\ccVI6l15.s:1273   .text.HAL_RTCEx_Tamper1EventCallback:00000000 $t
C:\Users\TGSPOC~1\AppData\Local\Temp\ccVI6l15.s:1315   .text.HAL_RTCEx_PollForTimeStampEvent:00000000 $t
C:\Users\TGSPOC~1\AppData\Local\Temp\ccVI6l15.s:1321   .text.HAL_RTCEx_PollForTimeStampEvent:00000000 HAL_RTCEx_PollForTimeStampEvent
C:\Users\TGSPOC~1\AppData\Local\Temp\ccVI6l15.s:1430   .text.HAL_RTCEx_PollForTamper1Event:00000000 $t
C:\Users\TGSPOC~1\AppData\Local\Temp\ccVI6l15.s:1436   .text.HAL_RTCEx_PollForTamper1Event:00000000 HAL_RTCEx_PollForTamper1Event
C:\Users\TGSPOC~1\AppData\Local\Temp\ccVI6l15.s:1529   .text.HAL_RTCEx_SetWakeUpTimer:00000000 $t
C:\Users\TGSPOC~1\AppData\Local\Temp\ccVI6l15.s:1535   .text.HAL_RTCEx_SetWakeUpTimer:00000000 HAL_RTCEx_SetWakeUpTimer
C:\Users\TGSPOC~1\AppData\Local\Temp\ccVI6l15.s:1760   .text.HAL_RTCEx_SetWakeUpTimer_IT:00000000 $t
C:\Users\TGSPOC~1\AppData\Local\Temp\ccVI6l15.s:1766   .text.HAL_RTCEx_SetWakeUpTimer_IT:00000000 HAL_RTCEx_SetWakeUpTimer_IT
C:\Users\TGSPOC~1\AppData\Local\Temp\ccVI6l15.s:2025   .text.HAL_RTCEx_SetWakeUpTimer_IT:00000178 $d
C:\Users\TGSPOC~1\AppData\Local\Temp\ccVI6l15.s:2032   .text.HAL_RTCEx_DeactivateWakeUpTimer:00000000 $t
C:\Users\TGSPOC~1\AppData\Local\Temp\ccVI6l15.s:2038   .text.HAL_RTCEx_DeactivateWakeUpTimer:00000000 HAL_RTCEx_DeactivateWakeUpTimer
C:\Users\TGSPOC~1\AppData\Local\Temp\ccVI6l15.s:2172   .text.HAL_RTCEx_GetWakeUpTimer:00000000 $t
C:\Users\TGSPOC~1\AppData\Local\Temp\ccVI6l15.s:2178   .text.HAL_RTCEx_GetWakeUpTimer:00000000 HAL_RTCEx_GetWakeUpTimer
C:\Users\TGSPOC~1\AppData\Local\Temp\ccVI6l15.s:2221   .text.HAL_RTCEx_WakeUpTimerIRQHandler:00000000 $t
C:\Users\TGSPOC~1\AppData\Local\Temp\ccVI6l15.s:2227   .text.HAL_RTCEx_WakeUpTimerIRQHandler:00000000 HAL_RTCEx_WakeUpTimerIRQHandler
C:\Users\TGSPOC~1\AppData\Local\Temp\ccVI6l15.s:2298   .text.HAL_RTCEx_WakeUpTimerEventCallback:00000000 HAL_RTCEx_WakeUpTimerEventCallback
C:\Users\TGSPOC~1\AppData\Local\Temp\ccVI6l15.s:2287   .text.HAL_RTCEx_WakeUpTimerIRQHandler:00000044 $d
C:\Users\TGSPOC~1\AppData\Local\Temp\ccVI6l15.s:2292   .text.HAL_RTCEx_WakeUpTimerEventCallback:00000000 $t
C:\Users\TGSPOC~1\AppData\Local\Temp\ccVI6l15.s:2334   .text.HAL_RTCEx_PollForWakeUpTimerEvent:00000000 $t
C:\Users\TGSPOC~1\AppData\Local\Temp\ccVI6l15.s:2340   .text.HAL_RTCEx_PollForWakeUpTimerEvent:00000000 HAL_RTCEx_PollForWakeUpTimerEvent
C:\Users\TGSPOC~1\AppData\Local\Temp\ccVI6l15.s:2433   .text.HAL_RTCEx_BKUPWrite:00000000 $t
C:\Users\TGSPOC~1\AppData\Local\Temp\ccVI6l15.s:2439   .text.HAL_RTCEx_BKUPWrite:00000000 HAL_RTCEx_BKUPWrite
C:\Users\TGSPOC~1\AppData\Local\Temp\ccVI6l15.s:2499   .text.HAL_RTCEx_BKUPRead:00000000 $t
C:\Users\TGSPOC~1\AppData\Local\Temp\ccVI6l15.s:2505   .text.HAL_RTCEx_BKUPRead:00000000 HAL_RTCEx_BKUPRead
C:\Users\TGSPOC~1\AppData\Local\Temp\ccVI6l15.s:2563   .text.HAL_RTCEx_SetCoarseCalib:00000000 $t
C:\Users\TGSPOC~1\AppData\Local\Temp\ccVI6l15.s:2569   .text.HAL_RTCEx_SetCoarseCalib:00000000 HAL_RTCEx_SetCoarseCalib
C:\Users\TGSPOC~1\AppData\Local\Temp\ccVI6l15.s:2683   .text.HAL_RTCEx_DeactivateCoarseCalib:00000000 $t
C:\Users\TGSPOC~1\AppData\Local\Temp\ccVI6l15.s:2689   .text.HAL_RTCEx_DeactivateCoarseCalib:00000000 HAL_RTCEx_DeactivateCoarseCalib
C:\Users\TGSPOC~1\AppData\Local\Temp\ccVI6l15.s:2792   .text.HAL_RTCEx_SetSmoothCalib:00000000 $t
C:\Users\TGSPOC~1\AppData\Local\Temp\ccVI6l15.s:2798   .text.HAL_RTCEx_SetSmoothCalib:00000000 HAL_RTCEx_SetSmoothCalib
C:\Users\TGSPOC~1\AppData\Local\Temp\ccVI6l15.s:2944   .text.HAL_RTCEx_SetSynchroShift:00000000 $t
C:\Users\TGSPOC~1\AppData\Local\Temp\ccVI6l15.s:2950   .text.HAL_RTCEx_SetSynchroShift:00000000 HAL_RTCEx_SetSynchroShift
ARM GAS  C:\Users\TGSPOC~1\AppData\Local\Temp\ccVI6l15.s 			page 103


C:\Users\TGSPOC~1\AppData\Local\Temp\ccVI6l15.s:3142   .text.HAL_RTCEx_SetCalibrationOutPut:00000000 $t
C:\Users\TGSPOC~1\AppData\Local\Temp\ccVI6l15.s:3148   .text.HAL_RTCEx_SetCalibrationOutPut:00000000 HAL_RTCEx_SetCalibrationOutPut
C:\Users\TGSPOC~1\AppData\Local\Temp\ccVI6l15.s:3259   .text.HAL_RTCEx_DeactivateCalibrationOutPut:00000000 $t
C:\Users\TGSPOC~1\AppData\Local\Temp\ccVI6l15.s:3265   .text.HAL_RTCEx_DeactivateCalibrationOutPut:00000000 HAL_RTCEx_DeactivateCalibrationOutPut
C:\Users\TGSPOC~1\AppData\Local\Temp\ccVI6l15.s:3352   .text.HAL_RTCEx_SetRefClock:00000000 $t
C:\Users\TGSPOC~1\AppData\Local\Temp\ccVI6l15.s:3358   .text.HAL_RTCEx_SetRefClock:00000000 HAL_RTCEx_SetRefClock
C:\Users\TGSPOC~1\AppData\Local\Temp\ccVI6l15.s:3461   .text.HAL_RTCEx_DeactivateRefClock:00000000 $t
C:\Users\TGSPOC~1\AppData\Local\Temp\ccVI6l15.s:3467   .text.HAL_RTCEx_DeactivateRefClock:00000000 HAL_RTCEx_DeactivateRefClock
C:\Users\TGSPOC~1\AppData\Local\Temp\ccVI6l15.s:3570   .text.HAL_RTCEx_EnableBypassShadow:00000000 $t
C:\Users\TGSPOC~1\AppData\Local\Temp\ccVI6l15.s:3576   .text.HAL_RTCEx_EnableBypassShadow:00000000 HAL_RTCEx_EnableBypassShadow
C:\Users\TGSPOC~1\AppData\Local\Temp\ccVI6l15.s:3666   .text.HAL_RTCEx_DisableBypassShadow:00000000 $t
C:\Users\TGSPOC~1\AppData\Local\Temp\ccVI6l15.s:3672   .text.HAL_RTCEx_DisableBypassShadow:00000000 HAL_RTCEx_DisableBypassShadow
C:\Users\TGSPOC~1\AppData\Local\Temp\ccVI6l15.s:3762   .text.HAL_RTCEx_AlarmBEventCallback:00000000 $t
C:\Users\TGSPOC~1\AppData\Local\Temp\ccVI6l15.s:3768   .text.HAL_RTCEx_AlarmBEventCallback:00000000 HAL_RTCEx_AlarmBEventCallback
C:\Users\TGSPOC~1\AppData\Local\Temp\ccVI6l15.s:3804   .text.HAL_RTCEx_PollForAlarmBEvent:00000000 $t
C:\Users\TGSPOC~1\AppData\Local\Temp\ccVI6l15.s:3810   .text.HAL_RTCEx_PollForAlarmBEvent:00000000 HAL_RTCEx_PollForAlarmBEvent

UNDEFINED SYMBOLS
RTC_Bcd2ToByte
HAL_GetTick
SystemCoreClock
RTC_EnterInitMode
RTC_ExitInitMode
HAL_RTC_WaitForSynchro
