ARM GAS  C:\Users\TGSPOC~1\AppData\Local\Temp\ccIyOLT8.s 			page 1


   1              		.cpu cortex-m4
   2              		.arch armv7e-m
   3              		.fpu fpv4-sp-d16
   4              		.eabi_attribute 27, 1
   5              		.eabi_attribute 28, 1
   6              		.eabi_attribute 20, 1
   7              		.eabi_attribute 21, 1
   8              		.eabi_attribute 23, 3
   9              		.eabi_attribute 24, 1
  10              		.eabi_attribute 25, 1
  11              		.eabi_attribute 26, 1
  12              		.eabi_attribute 30, 6
  13              		.eabi_attribute 34, 1
  14              		.eabi_attribute 18, 4
  15              		.file	"stm32f4xx_hal_tim.c"
  16              		.text
  17              	.Ltext0:
  18              		.cfi_sections	.debug_frame
  19              		.file 1 "Drivers/STM32F4xx_HAL_Driver/Src/stm32f4xx_hal_tim.c"
  20              		.section	.text.HAL_TIM_Base_Init,"ax",%progbits
  21              		.align	1
  22              		.global	HAL_TIM_Base_Init
  23              		.syntax unified
  24              		.thumb
  25              		.thumb_func
  27              	HAL_TIM_Base_Init:
  28              	.LFB134:
   1:Drivers/STM32F4xx_HAL_Driver/Src/stm32f4xx_hal_tim.c **** /**
   2:Drivers/STM32F4xx_HAL_Driver/Src/stm32f4xx_hal_tim.c ****   ******************************************************************************
   3:Drivers/STM32F4xx_HAL_Driver/Src/stm32f4xx_hal_tim.c ****   * @file    stm32f4xx_hal_tim.c
   4:Drivers/STM32F4xx_HAL_Driver/Src/stm32f4xx_hal_tim.c ****   * @author  MCD Application Team
   5:Drivers/STM32F4xx_HAL_Driver/Src/stm32f4xx_hal_tim.c ****   * @brief   TIM HAL module driver.
   6:Drivers/STM32F4xx_HAL_Driver/Src/stm32f4xx_hal_tim.c ****   *          This file provides firmware functions to manage the following
   7:Drivers/STM32F4xx_HAL_Driver/Src/stm32f4xx_hal_tim.c ****   *          functionalities of the Timer (TIM) peripheral:
   8:Drivers/STM32F4xx_HAL_Driver/Src/stm32f4xx_hal_tim.c ****   *           + TIM Time Base Initialization
   9:Drivers/STM32F4xx_HAL_Driver/Src/stm32f4xx_hal_tim.c ****   *           + TIM Time Base Start
  10:Drivers/STM32F4xx_HAL_Driver/Src/stm32f4xx_hal_tim.c ****   *           + TIM Time Base Start Interruption
  11:Drivers/STM32F4xx_HAL_Driver/Src/stm32f4xx_hal_tim.c ****   *           + TIM Time Base Start DMA
  12:Drivers/STM32F4xx_HAL_Driver/Src/stm32f4xx_hal_tim.c ****   *           + TIM Output Compare/PWM Initialization
  13:Drivers/STM32F4xx_HAL_Driver/Src/stm32f4xx_hal_tim.c ****   *           + TIM Output Compare/PWM Channel Configuration
  14:Drivers/STM32F4xx_HAL_Driver/Src/stm32f4xx_hal_tim.c ****   *           + TIM Output Compare/PWM  Start
  15:Drivers/STM32F4xx_HAL_Driver/Src/stm32f4xx_hal_tim.c ****   *           + TIM Output Compare/PWM  Start Interruption
  16:Drivers/STM32F4xx_HAL_Driver/Src/stm32f4xx_hal_tim.c ****   *           + TIM Output Compare/PWM Start DMA
  17:Drivers/STM32F4xx_HAL_Driver/Src/stm32f4xx_hal_tim.c ****   *           + TIM Input Capture Initialization
  18:Drivers/STM32F4xx_HAL_Driver/Src/stm32f4xx_hal_tim.c ****   *           + TIM Input Capture Channel Configuration
  19:Drivers/STM32F4xx_HAL_Driver/Src/stm32f4xx_hal_tim.c ****   *           + TIM Input Capture Start
  20:Drivers/STM32F4xx_HAL_Driver/Src/stm32f4xx_hal_tim.c ****   *           + TIM Input Capture Start Interruption
  21:Drivers/STM32F4xx_HAL_Driver/Src/stm32f4xx_hal_tim.c ****   *           + TIM Input Capture Start DMA
  22:Drivers/STM32F4xx_HAL_Driver/Src/stm32f4xx_hal_tim.c ****   *           + TIM One Pulse Initialization
  23:Drivers/STM32F4xx_HAL_Driver/Src/stm32f4xx_hal_tim.c ****   *           + TIM One Pulse Channel Configuration
  24:Drivers/STM32F4xx_HAL_Driver/Src/stm32f4xx_hal_tim.c ****   *           + TIM One Pulse Start
  25:Drivers/STM32F4xx_HAL_Driver/Src/stm32f4xx_hal_tim.c ****   *           + TIM Encoder Interface Initialization
  26:Drivers/STM32F4xx_HAL_Driver/Src/stm32f4xx_hal_tim.c ****   *           + TIM Encoder Interface Start
  27:Drivers/STM32F4xx_HAL_Driver/Src/stm32f4xx_hal_tim.c ****   *           + TIM Encoder Interface Start Interruption
  28:Drivers/STM32F4xx_HAL_Driver/Src/stm32f4xx_hal_tim.c ****   *           + TIM Encoder Interface Start DMA
  29:Drivers/STM32F4xx_HAL_Driver/Src/stm32f4xx_hal_tim.c ****   *           + Commutation Event configuration with Interruption and DMA
  30:Drivers/STM32F4xx_HAL_Driver/Src/stm32f4xx_hal_tim.c ****   *           + TIM OCRef clear configuration
ARM GAS  C:\Users\TGSPOC~1\AppData\Local\Temp\ccIyOLT8.s 			page 2


  31:Drivers/STM32F4xx_HAL_Driver/Src/stm32f4xx_hal_tim.c ****   *           + TIM External Clock configuration
  32:Drivers/STM32F4xx_HAL_Driver/Src/stm32f4xx_hal_tim.c ****   ******************************************************************************
  33:Drivers/STM32F4xx_HAL_Driver/Src/stm32f4xx_hal_tim.c ****   * @attention
  34:Drivers/STM32F4xx_HAL_Driver/Src/stm32f4xx_hal_tim.c ****   *
  35:Drivers/STM32F4xx_HAL_Driver/Src/stm32f4xx_hal_tim.c ****   * Copyright (c) 2016 STMicroelectronics.
  36:Drivers/STM32F4xx_HAL_Driver/Src/stm32f4xx_hal_tim.c ****   * All rights reserved.
  37:Drivers/STM32F4xx_HAL_Driver/Src/stm32f4xx_hal_tim.c ****   *
  38:Drivers/STM32F4xx_HAL_Driver/Src/stm32f4xx_hal_tim.c ****   * This software is licensed under terms that can be found in the LICENSE file
  39:Drivers/STM32F4xx_HAL_Driver/Src/stm32f4xx_hal_tim.c ****   * in the root directory of this software component.
  40:Drivers/STM32F4xx_HAL_Driver/Src/stm32f4xx_hal_tim.c ****   * If no LICENSE file comes with this software, it is provided AS-IS.
  41:Drivers/STM32F4xx_HAL_Driver/Src/stm32f4xx_hal_tim.c ****   *
  42:Drivers/STM32F4xx_HAL_Driver/Src/stm32f4xx_hal_tim.c ****   ******************************************************************************
  43:Drivers/STM32F4xx_HAL_Driver/Src/stm32f4xx_hal_tim.c ****   @verbatim
  44:Drivers/STM32F4xx_HAL_Driver/Src/stm32f4xx_hal_tim.c ****   ==============================================================================
  45:Drivers/STM32F4xx_HAL_Driver/Src/stm32f4xx_hal_tim.c ****                       ##### TIMER Generic features #####
  46:Drivers/STM32F4xx_HAL_Driver/Src/stm32f4xx_hal_tim.c ****   ==============================================================================
  47:Drivers/STM32F4xx_HAL_Driver/Src/stm32f4xx_hal_tim.c ****   [..] The Timer features include:
  48:Drivers/STM32F4xx_HAL_Driver/Src/stm32f4xx_hal_tim.c ****        (#) 16-bit up, down, up/down auto-reload counter.
  49:Drivers/STM32F4xx_HAL_Driver/Src/stm32f4xx_hal_tim.c ****        (#) 16-bit programmable prescaler allowing dividing (also on the fly) the
  50:Drivers/STM32F4xx_HAL_Driver/Src/stm32f4xx_hal_tim.c ****            counter clock frequency either by any factor between 1 and 65536.
  51:Drivers/STM32F4xx_HAL_Driver/Src/stm32f4xx_hal_tim.c ****        (#) Up to 4 independent channels for:
  52:Drivers/STM32F4xx_HAL_Driver/Src/stm32f4xx_hal_tim.c ****            (++) Input Capture
  53:Drivers/STM32F4xx_HAL_Driver/Src/stm32f4xx_hal_tim.c ****            (++) Output Compare
  54:Drivers/STM32F4xx_HAL_Driver/Src/stm32f4xx_hal_tim.c ****            (++) PWM generation (Edge and Center-aligned Mode)
  55:Drivers/STM32F4xx_HAL_Driver/Src/stm32f4xx_hal_tim.c ****            (++) One-pulse mode output
  56:Drivers/STM32F4xx_HAL_Driver/Src/stm32f4xx_hal_tim.c ****        (#) Synchronization circuit to control the timer with external signals and to interconnect
  57:Drivers/STM32F4xx_HAL_Driver/Src/stm32f4xx_hal_tim.c ****             several timers together.
  58:Drivers/STM32F4xx_HAL_Driver/Src/stm32f4xx_hal_tim.c ****        (#) Supports incremental encoder for positioning purposes
  59:Drivers/STM32F4xx_HAL_Driver/Src/stm32f4xx_hal_tim.c **** 
  60:Drivers/STM32F4xx_HAL_Driver/Src/stm32f4xx_hal_tim.c ****             ##### How to use this driver #####
  61:Drivers/STM32F4xx_HAL_Driver/Src/stm32f4xx_hal_tim.c ****   ==============================================================================
  62:Drivers/STM32F4xx_HAL_Driver/Src/stm32f4xx_hal_tim.c ****     [..]
  63:Drivers/STM32F4xx_HAL_Driver/Src/stm32f4xx_hal_tim.c ****      (#) Initialize the TIM low level resources by implementing the following functions
  64:Drivers/STM32F4xx_HAL_Driver/Src/stm32f4xx_hal_tim.c ****          depending on the selected feature:
  65:Drivers/STM32F4xx_HAL_Driver/Src/stm32f4xx_hal_tim.c ****            (++) Time Base : HAL_TIM_Base_MspInit()
  66:Drivers/STM32F4xx_HAL_Driver/Src/stm32f4xx_hal_tim.c ****            (++) Input Capture : HAL_TIM_IC_MspInit()
  67:Drivers/STM32F4xx_HAL_Driver/Src/stm32f4xx_hal_tim.c ****            (++) Output Compare : HAL_TIM_OC_MspInit()
  68:Drivers/STM32F4xx_HAL_Driver/Src/stm32f4xx_hal_tim.c ****            (++) PWM generation : HAL_TIM_PWM_MspInit()
  69:Drivers/STM32F4xx_HAL_Driver/Src/stm32f4xx_hal_tim.c ****            (++) One-pulse mode output : HAL_TIM_OnePulse_MspInit()
  70:Drivers/STM32F4xx_HAL_Driver/Src/stm32f4xx_hal_tim.c ****            (++) Encoder mode output : HAL_TIM_Encoder_MspInit()
  71:Drivers/STM32F4xx_HAL_Driver/Src/stm32f4xx_hal_tim.c **** 
  72:Drivers/STM32F4xx_HAL_Driver/Src/stm32f4xx_hal_tim.c ****      (#) Initialize the TIM low level resources :
  73:Drivers/STM32F4xx_HAL_Driver/Src/stm32f4xx_hal_tim.c ****         (##) Enable the TIM interface clock using __HAL_RCC_TIMx_CLK_ENABLE();
  74:Drivers/STM32F4xx_HAL_Driver/Src/stm32f4xx_hal_tim.c ****         (##) TIM pins configuration
  75:Drivers/STM32F4xx_HAL_Driver/Src/stm32f4xx_hal_tim.c ****             (+++) Enable the clock for the TIM GPIOs using the following function:
  76:Drivers/STM32F4xx_HAL_Driver/Src/stm32f4xx_hal_tim.c ****              __HAL_RCC_GPIOx_CLK_ENABLE();
  77:Drivers/STM32F4xx_HAL_Driver/Src/stm32f4xx_hal_tim.c ****             (+++) Configure these TIM pins in Alternate function mode using HAL_GPIO_Init();
  78:Drivers/STM32F4xx_HAL_Driver/Src/stm32f4xx_hal_tim.c **** 
  79:Drivers/STM32F4xx_HAL_Driver/Src/stm32f4xx_hal_tim.c ****      (#) The external Clock can be configured, if needed (the default clock is the
  80:Drivers/STM32F4xx_HAL_Driver/Src/stm32f4xx_hal_tim.c ****          internal clock from the APBx), using the following function:
  81:Drivers/STM32F4xx_HAL_Driver/Src/stm32f4xx_hal_tim.c ****          HAL_TIM_ConfigClockSource, the clock configuration should be done before
  82:Drivers/STM32F4xx_HAL_Driver/Src/stm32f4xx_hal_tim.c ****          any start function.
  83:Drivers/STM32F4xx_HAL_Driver/Src/stm32f4xx_hal_tim.c **** 
  84:Drivers/STM32F4xx_HAL_Driver/Src/stm32f4xx_hal_tim.c ****      (#) Configure the TIM in the desired functioning mode using one of the
  85:Drivers/STM32F4xx_HAL_Driver/Src/stm32f4xx_hal_tim.c ****        Initialization function of this driver:
  86:Drivers/STM32F4xx_HAL_Driver/Src/stm32f4xx_hal_tim.c ****        (++) HAL_TIM_Base_Init: to use the Timer to generate a simple time base
  87:Drivers/STM32F4xx_HAL_Driver/Src/stm32f4xx_hal_tim.c ****        (++) HAL_TIM_OC_Init and HAL_TIM_OC_ConfigChannel: to use the Timer to generate an
ARM GAS  C:\Users\TGSPOC~1\AppData\Local\Temp\ccIyOLT8.s 			page 3


  88:Drivers/STM32F4xx_HAL_Driver/Src/stm32f4xx_hal_tim.c ****             Output Compare signal.
  89:Drivers/STM32F4xx_HAL_Driver/Src/stm32f4xx_hal_tim.c ****        (++) HAL_TIM_PWM_Init and HAL_TIM_PWM_ConfigChannel: to use the Timer to generate a
  90:Drivers/STM32F4xx_HAL_Driver/Src/stm32f4xx_hal_tim.c ****             PWM signal.
  91:Drivers/STM32F4xx_HAL_Driver/Src/stm32f4xx_hal_tim.c ****        (++) HAL_TIM_IC_Init and HAL_TIM_IC_ConfigChannel: to use the Timer to measure an
  92:Drivers/STM32F4xx_HAL_Driver/Src/stm32f4xx_hal_tim.c ****             external signal.
  93:Drivers/STM32F4xx_HAL_Driver/Src/stm32f4xx_hal_tim.c ****        (++) HAL_TIM_OnePulse_Init and HAL_TIM_OnePulse_ConfigChannel: to use the Timer
  94:Drivers/STM32F4xx_HAL_Driver/Src/stm32f4xx_hal_tim.c ****             in One Pulse Mode.
  95:Drivers/STM32F4xx_HAL_Driver/Src/stm32f4xx_hal_tim.c ****        (++) HAL_TIM_Encoder_Init: to use the Timer Encoder Interface.
  96:Drivers/STM32F4xx_HAL_Driver/Src/stm32f4xx_hal_tim.c **** 
  97:Drivers/STM32F4xx_HAL_Driver/Src/stm32f4xx_hal_tim.c ****      (#) Activate the TIM peripheral using one of the start functions depending from the feature us
  98:Drivers/STM32F4xx_HAL_Driver/Src/stm32f4xx_hal_tim.c ****            (++) Time Base : HAL_TIM_Base_Start(), HAL_TIM_Base_Start_DMA(), HAL_TIM_Base_Start_IT()
  99:Drivers/STM32F4xx_HAL_Driver/Src/stm32f4xx_hal_tim.c ****            (++) Input Capture :  HAL_TIM_IC_Start(), HAL_TIM_IC_Start_DMA(), HAL_TIM_IC_Start_IT()
 100:Drivers/STM32F4xx_HAL_Driver/Src/stm32f4xx_hal_tim.c ****            (++) Output Compare : HAL_TIM_OC_Start(), HAL_TIM_OC_Start_DMA(), HAL_TIM_OC_Start_IT()
 101:Drivers/STM32F4xx_HAL_Driver/Src/stm32f4xx_hal_tim.c ****            (++) PWM generation : HAL_TIM_PWM_Start(), HAL_TIM_PWM_Start_DMA(), HAL_TIM_PWM_Start_IT
 102:Drivers/STM32F4xx_HAL_Driver/Src/stm32f4xx_hal_tim.c ****            (++) One-pulse mode output : HAL_TIM_OnePulse_Start(), HAL_TIM_OnePulse_Start_IT()
 103:Drivers/STM32F4xx_HAL_Driver/Src/stm32f4xx_hal_tim.c ****            (++) Encoder mode output : HAL_TIM_Encoder_Start(), HAL_TIM_Encoder_Start_DMA(), HAL_TIM
 104:Drivers/STM32F4xx_HAL_Driver/Src/stm32f4xx_hal_tim.c **** 
 105:Drivers/STM32F4xx_HAL_Driver/Src/stm32f4xx_hal_tim.c ****      (#) The DMA Burst is managed with the two following functions:
 106:Drivers/STM32F4xx_HAL_Driver/Src/stm32f4xx_hal_tim.c ****          HAL_TIM_DMABurst_WriteStart()
 107:Drivers/STM32F4xx_HAL_Driver/Src/stm32f4xx_hal_tim.c ****          HAL_TIM_DMABurst_ReadStart()
 108:Drivers/STM32F4xx_HAL_Driver/Src/stm32f4xx_hal_tim.c **** 
 109:Drivers/STM32F4xx_HAL_Driver/Src/stm32f4xx_hal_tim.c ****     *** Callback registration ***
 110:Drivers/STM32F4xx_HAL_Driver/Src/stm32f4xx_hal_tim.c ****   =============================================
 111:Drivers/STM32F4xx_HAL_Driver/Src/stm32f4xx_hal_tim.c **** 
 112:Drivers/STM32F4xx_HAL_Driver/Src/stm32f4xx_hal_tim.c ****   [..]
 113:Drivers/STM32F4xx_HAL_Driver/Src/stm32f4xx_hal_tim.c ****   The compilation define  USE_HAL_TIM_REGISTER_CALLBACKS when set to 1
 114:Drivers/STM32F4xx_HAL_Driver/Src/stm32f4xx_hal_tim.c ****   allows the user to configure dynamically the driver callbacks.
 115:Drivers/STM32F4xx_HAL_Driver/Src/stm32f4xx_hal_tim.c **** 
 116:Drivers/STM32F4xx_HAL_Driver/Src/stm32f4xx_hal_tim.c ****   [..]
 117:Drivers/STM32F4xx_HAL_Driver/Src/stm32f4xx_hal_tim.c ****   Use Function HAL_TIM_RegisterCallback() to register a callback.
 118:Drivers/STM32F4xx_HAL_Driver/Src/stm32f4xx_hal_tim.c ****   HAL_TIM_RegisterCallback() takes as parameters the HAL peripheral handle,
 119:Drivers/STM32F4xx_HAL_Driver/Src/stm32f4xx_hal_tim.c ****   the Callback ID and a pointer to the user callback function.
 120:Drivers/STM32F4xx_HAL_Driver/Src/stm32f4xx_hal_tim.c **** 
 121:Drivers/STM32F4xx_HAL_Driver/Src/stm32f4xx_hal_tim.c ****   [..]
 122:Drivers/STM32F4xx_HAL_Driver/Src/stm32f4xx_hal_tim.c ****   Use function HAL_TIM_UnRegisterCallback() to reset a callback to the default
 123:Drivers/STM32F4xx_HAL_Driver/Src/stm32f4xx_hal_tim.c ****   weak function.
 124:Drivers/STM32F4xx_HAL_Driver/Src/stm32f4xx_hal_tim.c ****   HAL_TIM_UnRegisterCallback takes as parameters the HAL peripheral handle,
 125:Drivers/STM32F4xx_HAL_Driver/Src/stm32f4xx_hal_tim.c ****   and the Callback ID.
 126:Drivers/STM32F4xx_HAL_Driver/Src/stm32f4xx_hal_tim.c **** 
 127:Drivers/STM32F4xx_HAL_Driver/Src/stm32f4xx_hal_tim.c ****   [..]
 128:Drivers/STM32F4xx_HAL_Driver/Src/stm32f4xx_hal_tim.c ****   These functions allow to register/unregister following callbacks:
 129:Drivers/STM32F4xx_HAL_Driver/Src/stm32f4xx_hal_tim.c ****     (+) Base_MspInitCallback              : TIM Base Msp Init Callback.
 130:Drivers/STM32F4xx_HAL_Driver/Src/stm32f4xx_hal_tim.c ****     (+) Base_MspDeInitCallback            : TIM Base Msp DeInit Callback.
 131:Drivers/STM32F4xx_HAL_Driver/Src/stm32f4xx_hal_tim.c ****     (+) IC_MspInitCallback                : TIM IC Msp Init Callback.
 132:Drivers/STM32F4xx_HAL_Driver/Src/stm32f4xx_hal_tim.c ****     (+) IC_MspDeInitCallback              : TIM IC Msp DeInit Callback.
 133:Drivers/STM32F4xx_HAL_Driver/Src/stm32f4xx_hal_tim.c ****     (+) OC_MspInitCallback                : TIM OC Msp Init Callback.
 134:Drivers/STM32F4xx_HAL_Driver/Src/stm32f4xx_hal_tim.c ****     (+) OC_MspDeInitCallback              : TIM OC Msp DeInit Callback.
 135:Drivers/STM32F4xx_HAL_Driver/Src/stm32f4xx_hal_tim.c ****     (+) PWM_MspInitCallback               : TIM PWM Msp Init Callback.
 136:Drivers/STM32F4xx_HAL_Driver/Src/stm32f4xx_hal_tim.c ****     (+) PWM_MspDeInitCallback             : TIM PWM Msp DeInit Callback.
 137:Drivers/STM32F4xx_HAL_Driver/Src/stm32f4xx_hal_tim.c ****     (+) OnePulse_MspInitCallback          : TIM One Pulse Msp Init Callback.
 138:Drivers/STM32F4xx_HAL_Driver/Src/stm32f4xx_hal_tim.c ****     (+) OnePulse_MspDeInitCallback        : TIM One Pulse Msp DeInit Callback.
 139:Drivers/STM32F4xx_HAL_Driver/Src/stm32f4xx_hal_tim.c ****     (+) Encoder_MspInitCallback           : TIM Encoder Msp Init Callback.
 140:Drivers/STM32F4xx_HAL_Driver/Src/stm32f4xx_hal_tim.c ****     (+) Encoder_MspDeInitCallback         : TIM Encoder Msp DeInit Callback.
 141:Drivers/STM32F4xx_HAL_Driver/Src/stm32f4xx_hal_tim.c ****     (+) HallSensor_MspInitCallback        : TIM Hall Sensor Msp Init Callback.
 142:Drivers/STM32F4xx_HAL_Driver/Src/stm32f4xx_hal_tim.c ****     (+) HallSensor_MspDeInitCallback      : TIM Hall Sensor Msp DeInit Callback.
 143:Drivers/STM32F4xx_HAL_Driver/Src/stm32f4xx_hal_tim.c ****     (+) PeriodElapsedCallback             : TIM Period Elapsed Callback.
 144:Drivers/STM32F4xx_HAL_Driver/Src/stm32f4xx_hal_tim.c ****     (+) PeriodElapsedHalfCpltCallback     : TIM Period Elapsed half complete Callback.
ARM GAS  C:\Users\TGSPOC~1\AppData\Local\Temp\ccIyOLT8.s 			page 4


 145:Drivers/STM32F4xx_HAL_Driver/Src/stm32f4xx_hal_tim.c ****     (+) TriggerCallback                   : TIM Trigger Callback.
 146:Drivers/STM32F4xx_HAL_Driver/Src/stm32f4xx_hal_tim.c ****     (+) TriggerHalfCpltCallback           : TIM Trigger half complete Callback.
 147:Drivers/STM32F4xx_HAL_Driver/Src/stm32f4xx_hal_tim.c ****     (+) IC_CaptureCallback                : TIM Input Capture Callback.
 148:Drivers/STM32F4xx_HAL_Driver/Src/stm32f4xx_hal_tim.c ****     (+) IC_CaptureHalfCpltCallback        : TIM Input Capture half complete Callback.
 149:Drivers/STM32F4xx_HAL_Driver/Src/stm32f4xx_hal_tim.c ****     (+) OC_DelayElapsedCallback           : TIM Output Compare Delay Elapsed Callback.
 150:Drivers/STM32F4xx_HAL_Driver/Src/stm32f4xx_hal_tim.c ****     (+) PWM_PulseFinishedCallback         : TIM PWM Pulse Finished Callback.
 151:Drivers/STM32F4xx_HAL_Driver/Src/stm32f4xx_hal_tim.c ****     (+) PWM_PulseFinishedHalfCpltCallback : TIM PWM Pulse Finished half complete Callback.
 152:Drivers/STM32F4xx_HAL_Driver/Src/stm32f4xx_hal_tim.c ****     (+) ErrorCallback                     : TIM Error Callback.
 153:Drivers/STM32F4xx_HAL_Driver/Src/stm32f4xx_hal_tim.c ****     (+) CommutationCallback               : TIM Commutation Callback.
 154:Drivers/STM32F4xx_HAL_Driver/Src/stm32f4xx_hal_tim.c ****     (+) CommutationHalfCpltCallback       : TIM Commutation half complete Callback.
 155:Drivers/STM32F4xx_HAL_Driver/Src/stm32f4xx_hal_tim.c ****     (+) BreakCallback                     : TIM Break Callback.
 156:Drivers/STM32F4xx_HAL_Driver/Src/stm32f4xx_hal_tim.c **** 
 157:Drivers/STM32F4xx_HAL_Driver/Src/stm32f4xx_hal_tim.c ****   [..]
 158:Drivers/STM32F4xx_HAL_Driver/Src/stm32f4xx_hal_tim.c **** By default, after the Init and when the state is HAL_TIM_STATE_RESET
 159:Drivers/STM32F4xx_HAL_Driver/Src/stm32f4xx_hal_tim.c **** all interrupt callbacks are set to the corresponding weak functions:
 160:Drivers/STM32F4xx_HAL_Driver/Src/stm32f4xx_hal_tim.c ****   examples HAL_TIM_TriggerCallback(), HAL_TIM_ErrorCallback().
 161:Drivers/STM32F4xx_HAL_Driver/Src/stm32f4xx_hal_tim.c **** 
 162:Drivers/STM32F4xx_HAL_Driver/Src/stm32f4xx_hal_tim.c ****   [..]
 163:Drivers/STM32F4xx_HAL_Driver/Src/stm32f4xx_hal_tim.c ****   Exception done for MspInit and MspDeInit functions that are reset to the legacy weak
 164:Drivers/STM32F4xx_HAL_Driver/Src/stm32f4xx_hal_tim.c ****   functionalities in the Init / DeInit only when these callbacks are null
 165:Drivers/STM32F4xx_HAL_Driver/Src/stm32f4xx_hal_tim.c ****   (not registered beforehand). If not, MspInit or MspDeInit are not null, the Init / DeInit
 166:Drivers/STM32F4xx_HAL_Driver/Src/stm32f4xx_hal_tim.c ****     keep and use the user MspInit / MspDeInit callbacks(registered beforehand)
 167:Drivers/STM32F4xx_HAL_Driver/Src/stm32f4xx_hal_tim.c **** 
 168:Drivers/STM32F4xx_HAL_Driver/Src/stm32f4xx_hal_tim.c ****   [..]
 169:Drivers/STM32F4xx_HAL_Driver/Src/stm32f4xx_hal_tim.c ****     Callbacks can be registered / unregistered in HAL_TIM_STATE_READY state only.
 170:Drivers/STM32F4xx_HAL_Driver/Src/stm32f4xx_hal_tim.c ****     Exception done MspInit / MspDeInit that can be registered / unregistered
 171:Drivers/STM32F4xx_HAL_Driver/Src/stm32f4xx_hal_tim.c ****     in HAL_TIM_STATE_READY or HAL_TIM_STATE_RESET state,
 172:Drivers/STM32F4xx_HAL_Driver/Src/stm32f4xx_hal_tim.c ****     thus registered(user) MspInit / DeInit callbacks can be used during the Init / DeInit.
 173:Drivers/STM32F4xx_HAL_Driver/Src/stm32f4xx_hal_tim.c ****   In that case first register the MspInit/MspDeInit user callbacks
 174:Drivers/STM32F4xx_HAL_Driver/Src/stm32f4xx_hal_tim.c ****       using HAL_TIM_RegisterCallback() before calling DeInit or Init function.
 175:Drivers/STM32F4xx_HAL_Driver/Src/stm32f4xx_hal_tim.c **** 
 176:Drivers/STM32F4xx_HAL_Driver/Src/stm32f4xx_hal_tim.c ****   [..]
 177:Drivers/STM32F4xx_HAL_Driver/Src/stm32f4xx_hal_tim.c ****       When The compilation define USE_HAL_TIM_REGISTER_CALLBACKS is set to 0 or
 178:Drivers/STM32F4xx_HAL_Driver/Src/stm32f4xx_hal_tim.c ****       not defined, the callback registration feature is not available and all callbacks
 179:Drivers/STM32F4xx_HAL_Driver/Src/stm32f4xx_hal_tim.c ****       are set to the corresponding weak functions.
 180:Drivers/STM32F4xx_HAL_Driver/Src/stm32f4xx_hal_tim.c **** 
 181:Drivers/STM32F4xx_HAL_Driver/Src/stm32f4xx_hal_tim.c ****   @endverbatim
 182:Drivers/STM32F4xx_HAL_Driver/Src/stm32f4xx_hal_tim.c ****   ******************************************************************************
 183:Drivers/STM32F4xx_HAL_Driver/Src/stm32f4xx_hal_tim.c ****   */
 184:Drivers/STM32F4xx_HAL_Driver/Src/stm32f4xx_hal_tim.c **** 
 185:Drivers/STM32F4xx_HAL_Driver/Src/stm32f4xx_hal_tim.c **** /* Includes ------------------------------------------------------------------*/
 186:Drivers/STM32F4xx_HAL_Driver/Src/stm32f4xx_hal_tim.c **** #include "stm32f4xx_hal.h"
 187:Drivers/STM32F4xx_HAL_Driver/Src/stm32f4xx_hal_tim.c **** 
 188:Drivers/STM32F4xx_HAL_Driver/Src/stm32f4xx_hal_tim.c **** /** @addtogroup STM32F4xx_HAL_Driver
 189:Drivers/STM32F4xx_HAL_Driver/Src/stm32f4xx_hal_tim.c ****   * @{
 190:Drivers/STM32F4xx_HAL_Driver/Src/stm32f4xx_hal_tim.c ****   */
 191:Drivers/STM32F4xx_HAL_Driver/Src/stm32f4xx_hal_tim.c **** 
 192:Drivers/STM32F4xx_HAL_Driver/Src/stm32f4xx_hal_tim.c **** /** @defgroup TIM TIM
 193:Drivers/STM32F4xx_HAL_Driver/Src/stm32f4xx_hal_tim.c ****   * @brief TIM HAL module driver
 194:Drivers/STM32F4xx_HAL_Driver/Src/stm32f4xx_hal_tim.c ****   * @{
 195:Drivers/STM32F4xx_HAL_Driver/Src/stm32f4xx_hal_tim.c ****   */
 196:Drivers/STM32F4xx_HAL_Driver/Src/stm32f4xx_hal_tim.c **** 
 197:Drivers/STM32F4xx_HAL_Driver/Src/stm32f4xx_hal_tim.c **** #ifdef HAL_TIM_MODULE_ENABLED
 198:Drivers/STM32F4xx_HAL_Driver/Src/stm32f4xx_hal_tim.c **** 
 199:Drivers/STM32F4xx_HAL_Driver/Src/stm32f4xx_hal_tim.c **** /* Private typedef -----------------------------------------------------------*/
 200:Drivers/STM32F4xx_HAL_Driver/Src/stm32f4xx_hal_tim.c **** /* Private define ------------------------------------------------------------*/
 201:Drivers/STM32F4xx_HAL_Driver/Src/stm32f4xx_hal_tim.c **** /* Private macros ------------------------------------------------------------*/
ARM GAS  C:\Users\TGSPOC~1\AppData\Local\Temp\ccIyOLT8.s 			page 5


 202:Drivers/STM32F4xx_HAL_Driver/Src/stm32f4xx_hal_tim.c **** /* Private variables ---------------------------------------------------------*/
 203:Drivers/STM32F4xx_HAL_Driver/Src/stm32f4xx_hal_tim.c **** /* Private function prototypes -----------------------------------------------*/
 204:Drivers/STM32F4xx_HAL_Driver/Src/stm32f4xx_hal_tim.c **** /** @addtogroup TIM_Private_Functions
 205:Drivers/STM32F4xx_HAL_Driver/Src/stm32f4xx_hal_tim.c ****   * @{
 206:Drivers/STM32F4xx_HAL_Driver/Src/stm32f4xx_hal_tim.c ****   */
 207:Drivers/STM32F4xx_HAL_Driver/Src/stm32f4xx_hal_tim.c **** static void TIM_OC1_SetConfig(TIM_TypeDef *TIMx, const TIM_OC_InitTypeDef *OC_Config);
 208:Drivers/STM32F4xx_HAL_Driver/Src/stm32f4xx_hal_tim.c **** static void TIM_OC3_SetConfig(TIM_TypeDef *TIMx, const TIM_OC_InitTypeDef *OC_Config);
 209:Drivers/STM32F4xx_HAL_Driver/Src/stm32f4xx_hal_tim.c **** static void TIM_OC4_SetConfig(TIM_TypeDef *TIMx, const TIM_OC_InitTypeDef *OC_Config);
 210:Drivers/STM32F4xx_HAL_Driver/Src/stm32f4xx_hal_tim.c **** static void TIM_TI1_ConfigInputStage(TIM_TypeDef *TIMx, uint32_t TIM_ICPolarity, uint32_t TIM_ICFil
 211:Drivers/STM32F4xx_HAL_Driver/Src/stm32f4xx_hal_tim.c **** static void TIM_TI2_SetConfig(TIM_TypeDef *TIMx, uint32_t TIM_ICPolarity, uint32_t TIM_ICSelection,
 212:Drivers/STM32F4xx_HAL_Driver/Src/stm32f4xx_hal_tim.c ****                               uint32_t TIM_ICFilter);
 213:Drivers/STM32F4xx_HAL_Driver/Src/stm32f4xx_hal_tim.c **** static void TIM_TI2_ConfigInputStage(TIM_TypeDef *TIMx, uint32_t TIM_ICPolarity, uint32_t TIM_ICFil
 214:Drivers/STM32F4xx_HAL_Driver/Src/stm32f4xx_hal_tim.c **** static void TIM_TI3_SetConfig(TIM_TypeDef *TIMx, uint32_t TIM_ICPolarity, uint32_t TIM_ICSelection,
 215:Drivers/STM32F4xx_HAL_Driver/Src/stm32f4xx_hal_tim.c ****                               uint32_t TIM_ICFilter);
 216:Drivers/STM32F4xx_HAL_Driver/Src/stm32f4xx_hal_tim.c **** static void TIM_TI4_SetConfig(TIM_TypeDef *TIMx, uint32_t TIM_ICPolarity, uint32_t TIM_ICSelection,
 217:Drivers/STM32F4xx_HAL_Driver/Src/stm32f4xx_hal_tim.c ****                               uint32_t TIM_ICFilter);
 218:Drivers/STM32F4xx_HAL_Driver/Src/stm32f4xx_hal_tim.c **** static void TIM_ITRx_SetConfig(TIM_TypeDef *TIMx, uint32_t InputTriggerSource);
 219:Drivers/STM32F4xx_HAL_Driver/Src/stm32f4xx_hal_tim.c **** static void TIM_DMAPeriodElapsedCplt(DMA_HandleTypeDef *hdma);
 220:Drivers/STM32F4xx_HAL_Driver/Src/stm32f4xx_hal_tim.c **** static void TIM_DMAPeriodElapsedHalfCplt(DMA_HandleTypeDef *hdma);
 221:Drivers/STM32F4xx_HAL_Driver/Src/stm32f4xx_hal_tim.c **** static void TIM_DMADelayPulseCplt(DMA_HandleTypeDef *hdma);
 222:Drivers/STM32F4xx_HAL_Driver/Src/stm32f4xx_hal_tim.c **** static void TIM_DMATriggerCplt(DMA_HandleTypeDef *hdma);
 223:Drivers/STM32F4xx_HAL_Driver/Src/stm32f4xx_hal_tim.c **** static void TIM_DMATriggerHalfCplt(DMA_HandleTypeDef *hdma);
 224:Drivers/STM32F4xx_HAL_Driver/Src/stm32f4xx_hal_tim.c **** static HAL_StatusTypeDef TIM_SlaveTimer_SetConfig(TIM_HandleTypeDef *htim,
 225:Drivers/STM32F4xx_HAL_Driver/Src/stm32f4xx_hal_tim.c ****                                                   const TIM_SlaveConfigTypeDef *sSlaveConfig);
 226:Drivers/STM32F4xx_HAL_Driver/Src/stm32f4xx_hal_tim.c **** /**
 227:Drivers/STM32F4xx_HAL_Driver/Src/stm32f4xx_hal_tim.c ****   * @}
 228:Drivers/STM32F4xx_HAL_Driver/Src/stm32f4xx_hal_tim.c ****   */
 229:Drivers/STM32F4xx_HAL_Driver/Src/stm32f4xx_hal_tim.c **** /* Exported functions --------------------------------------------------------*/
 230:Drivers/STM32F4xx_HAL_Driver/Src/stm32f4xx_hal_tim.c **** 
 231:Drivers/STM32F4xx_HAL_Driver/Src/stm32f4xx_hal_tim.c **** /** @defgroup TIM_Exported_Functions TIM Exported Functions
 232:Drivers/STM32F4xx_HAL_Driver/Src/stm32f4xx_hal_tim.c ****   * @{
 233:Drivers/STM32F4xx_HAL_Driver/Src/stm32f4xx_hal_tim.c ****   */
 234:Drivers/STM32F4xx_HAL_Driver/Src/stm32f4xx_hal_tim.c **** 
 235:Drivers/STM32F4xx_HAL_Driver/Src/stm32f4xx_hal_tim.c **** /** @defgroup TIM_Exported_Functions_Group1 TIM Time Base functions
 236:Drivers/STM32F4xx_HAL_Driver/Src/stm32f4xx_hal_tim.c ****   *  @brief    Time Base functions
 237:Drivers/STM32F4xx_HAL_Driver/Src/stm32f4xx_hal_tim.c ****   *
 238:Drivers/STM32F4xx_HAL_Driver/Src/stm32f4xx_hal_tim.c **** @verbatim
 239:Drivers/STM32F4xx_HAL_Driver/Src/stm32f4xx_hal_tim.c ****   ==============================================================================
 240:Drivers/STM32F4xx_HAL_Driver/Src/stm32f4xx_hal_tim.c ****               ##### Time Base functions #####
 241:Drivers/STM32F4xx_HAL_Driver/Src/stm32f4xx_hal_tim.c ****   ==============================================================================
 242:Drivers/STM32F4xx_HAL_Driver/Src/stm32f4xx_hal_tim.c ****   [..]
 243:Drivers/STM32F4xx_HAL_Driver/Src/stm32f4xx_hal_tim.c ****     This section provides functions allowing to:
 244:Drivers/STM32F4xx_HAL_Driver/Src/stm32f4xx_hal_tim.c ****     (+) Initialize and configure the TIM base.
 245:Drivers/STM32F4xx_HAL_Driver/Src/stm32f4xx_hal_tim.c ****     (+) De-initialize the TIM base.
 246:Drivers/STM32F4xx_HAL_Driver/Src/stm32f4xx_hal_tim.c ****     (+) Start the Time Base.
 247:Drivers/STM32F4xx_HAL_Driver/Src/stm32f4xx_hal_tim.c ****     (+) Stop the Time Base.
 248:Drivers/STM32F4xx_HAL_Driver/Src/stm32f4xx_hal_tim.c ****     (+) Start the Time Base and enable interrupt.
 249:Drivers/STM32F4xx_HAL_Driver/Src/stm32f4xx_hal_tim.c ****     (+) Stop the Time Base and disable interrupt.
 250:Drivers/STM32F4xx_HAL_Driver/Src/stm32f4xx_hal_tim.c ****     (+) Start the Time Base and enable DMA transfer.
 251:Drivers/STM32F4xx_HAL_Driver/Src/stm32f4xx_hal_tim.c ****     (+) Stop the Time Base and disable DMA transfer.
 252:Drivers/STM32F4xx_HAL_Driver/Src/stm32f4xx_hal_tim.c **** 
 253:Drivers/STM32F4xx_HAL_Driver/Src/stm32f4xx_hal_tim.c **** @endverbatim
 254:Drivers/STM32F4xx_HAL_Driver/Src/stm32f4xx_hal_tim.c ****   * @{
 255:Drivers/STM32F4xx_HAL_Driver/Src/stm32f4xx_hal_tim.c ****   */
 256:Drivers/STM32F4xx_HAL_Driver/Src/stm32f4xx_hal_tim.c **** /**
 257:Drivers/STM32F4xx_HAL_Driver/Src/stm32f4xx_hal_tim.c ****   * @brief  Initializes the TIM Time base Unit according to the specified
 258:Drivers/STM32F4xx_HAL_Driver/Src/stm32f4xx_hal_tim.c ****   *         parameters in the TIM_HandleTypeDef and initialize the associated handle.
ARM GAS  C:\Users\TGSPOC~1\AppData\Local\Temp\ccIyOLT8.s 			page 6


 259:Drivers/STM32F4xx_HAL_Driver/Src/stm32f4xx_hal_tim.c ****   * @note   Switching from Center Aligned counter mode to Edge counter mode (or reverse)
 260:Drivers/STM32F4xx_HAL_Driver/Src/stm32f4xx_hal_tim.c ****   *         requires a timer reset to avoid unexpected direction
 261:Drivers/STM32F4xx_HAL_Driver/Src/stm32f4xx_hal_tim.c ****   *         due to DIR bit readonly in center aligned mode.
 262:Drivers/STM32F4xx_HAL_Driver/Src/stm32f4xx_hal_tim.c ****   *         Ex: call @ref HAL_TIM_Base_DeInit() before HAL_TIM_Base_Init()
 263:Drivers/STM32F4xx_HAL_Driver/Src/stm32f4xx_hal_tim.c ****   * @param  htim TIM Base handle
 264:Drivers/STM32F4xx_HAL_Driver/Src/stm32f4xx_hal_tim.c ****   * @retval HAL status
 265:Drivers/STM32F4xx_HAL_Driver/Src/stm32f4xx_hal_tim.c ****   */
 266:Drivers/STM32F4xx_HAL_Driver/Src/stm32f4xx_hal_tim.c **** HAL_StatusTypeDef HAL_TIM_Base_Init(TIM_HandleTypeDef *htim)
 267:Drivers/STM32F4xx_HAL_Driver/Src/stm32f4xx_hal_tim.c **** {
  29              		.loc 1 267 1
  30              		.cfi_startproc
  31              		@ args = 0, pretend = 0, frame = 8
  32              		@ frame_needed = 1, uses_anonymous_args = 0
  33 0000 80B5     		push	{r7, lr}
  34              	.LCFI0:
  35              		.cfi_def_cfa_offset 8
  36              		.cfi_offset 7, -8
  37              		.cfi_offset 14, -4
  38 0002 82B0     		sub	sp, sp, #8
  39              	.LCFI1:
  40              		.cfi_def_cfa_offset 16
  41 0004 00AF     		add	r7, sp, #0
  42              	.LCFI2:
  43              		.cfi_def_cfa_register 7
  44 0006 7860     		str	r0, [r7, #4]
 268:Drivers/STM32F4xx_HAL_Driver/Src/stm32f4xx_hal_tim.c ****   /* Check the TIM handle allocation */
 269:Drivers/STM32F4xx_HAL_Driver/Src/stm32f4xx_hal_tim.c ****   if (htim == NULL)
  45              		.loc 1 269 6
  46 0008 7B68     		ldr	r3, [r7, #4]
  47 000a 002B     		cmp	r3, #0
  48 000c 01D1     		bne	.L2
 270:Drivers/STM32F4xx_HAL_Driver/Src/stm32f4xx_hal_tim.c ****   {
 271:Drivers/STM32F4xx_HAL_Driver/Src/stm32f4xx_hal_tim.c ****     return HAL_ERROR;
  49              		.loc 1 271 12
  50 000e 0123     		movs	r3, #1
  51 0010 41E0     		b	.L3
  52              	.L2:
 272:Drivers/STM32F4xx_HAL_Driver/Src/stm32f4xx_hal_tim.c ****   }
 273:Drivers/STM32F4xx_HAL_Driver/Src/stm32f4xx_hal_tim.c **** 
 274:Drivers/STM32F4xx_HAL_Driver/Src/stm32f4xx_hal_tim.c ****   /* Check the parameters */
 275:Drivers/STM32F4xx_HAL_Driver/Src/stm32f4xx_hal_tim.c ****   assert_param(IS_TIM_INSTANCE(htim->Instance));
 276:Drivers/STM32F4xx_HAL_Driver/Src/stm32f4xx_hal_tim.c ****   assert_param(IS_TIM_COUNTER_MODE(htim->Init.CounterMode));
 277:Drivers/STM32F4xx_HAL_Driver/Src/stm32f4xx_hal_tim.c ****   assert_param(IS_TIM_CLOCKDIVISION_DIV(htim->Init.ClockDivision));
 278:Drivers/STM32F4xx_HAL_Driver/Src/stm32f4xx_hal_tim.c ****   assert_param(IS_TIM_PERIOD(htim, htim->Init.Period));
 279:Drivers/STM32F4xx_HAL_Driver/Src/stm32f4xx_hal_tim.c ****   assert_param(IS_TIM_AUTORELOAD_PRELOAD(htim->Init.AutoReloadPreload));
 280:Drivers/STM32F4xx_HAL_Driver/Src/stm32f4xx_hal_tim.c **** 
 281:Drivers/STM32F4xx_HAL_Driver/Src/stm32f4xx_hal_tim.c ****   if (htim->State == HAL_TIM_STATE_RESET)
  53              		.loc 1 281 11
  54 0012 7B68     		ldr	r3, [r7, #4]
  55 0014 93F83D30 		ldrb	r3, [r3, #61]
  56 0018 DBB2     		uxtb	r3, r3
  57              		.loc 1 281 6
  58 001a 002B     		cmp	r3, #0
  59 001c 06D1     		bne	.L4
 282:Drivers/STM32F4xx_HAL_Driver/Src/stm32f4xx_hal_tim.c ****   {
 283:Drivers/STM32F4xx_HAL_Driver/Src/stm32f4xx_hal_tim.c ****     /* Allocate lock resource and initialize it */
 284:Drivers/STM32F4xx_HAL_Driver/Src/stm32f4xx_hal_tim.c ****     htim->Lock = HAL_UNLOCKED;
ARM GAS  C:\Users\TGSPOC~1\AppData\Local\Temp\ccIyOLT8.s 			page 7


  60              		.loc 1 284 16
  61 001e 7B68     		ldr	r3, [r7, #4]
  62 0020 0022     		movs	r2, #0
  63 0022 83F83C20 		strb	r2, [r3, #60]
 285:Drivers/STM32F4xx_HAL_Driver/Src/stm32f4xx_hal_tim.c **** 
 286:Drivers/STM32F4xx_HAL_Driver/Src/stm32f4xx_hal_tim.c **** #if (USE_HAL_TIM_REGISTER_CALLBACKS == 1)
 287:Drivers/STM32F4xx_HAL_Driver/Src/stm32f4xx_hal_tim.c ****     /* Reset interrupt callbacks to legacy weak callbacks */
 288:Drivers/STM32F4xx_HAL_Driver/Src/stm32f4xx_hal_tim.c ****     TIM_ResetCallback(htim);
 289:Drivers/STM32F4xx_HAL_Driver/Src/stm32f4xx_hal_tim.c **** 
 290:Drivers/STM32F4xx_HAL_Driver/Src/stm32f4xx_hal_tim.c ****     if (htim->Base_MspInitCallback == NULL)
 291:Drivers/STM32F4xx_HAL_Driver/Src/stm32f4xx_hal_tim.c ****     {
 292:Drivers/STM32F4xx_HAL_Driver/Src/stm32f4xx_hal_tim.c ****       htim->Base_MspInitCallback = HAL_TIM_Base_MspInit;
 293:Drivers/STM32F4xx_HAL_Driver/Src/stm32f4xx_hal_tim.c ****     }
 294:Drivers/STM32F4xx_HAL_Driver/Src/stm32f4xx_hal_tim.c ****     /* Init the low level hardware : GPIO, CLOCK, NVIC */
 295:Drivers/STM32F4xx_HAL_Driver/Src/stm32f4xx_hal_tim.c ****     htim->Base_MspInitCallback(htim);
 296:Drivers/STM32F4xx_HAL_Driver/Src/stm32f4xx_hal_tim.c **** #else
 297:Drivers/STM32F4xx_HAL_Driver/Src/stm32f4xx_hal_tim.c ****     /* Init the low level hardware : GPIO, CLOCK, NVIC */
 298:Drivers/STM32F4xx_HAL_Driver/Src/stm32f4xx_hal_tim.c ****     HAL_TIM_Base_MspInit(htim);
  64              		.loc 1 298 5
  65 0026 7868     		ldr	r0, [r7, #4]
  66 0028 FFF7FEFF 		bl	HAL_TIM_Base_MspInit
  67              	.L4:
 299:Drivers/STM32F4xx_HAL_Driver/Src/stm32f4xx_hal_tim.c **** #endif /* USE_HAL_TIM_REGISTER_CALLBACKS */
 300:Drivers/STM32F4xx_HAL_Driver/Src/stm32f4xx_hal_tim.c ****   }
 301:Drivers/STM32F4xx_HAL_Driver/Src/stm32f4xx_hal_tim.c **** 
 302:Drivers/STM32F4xx_HAL_Driver/Src/stm32f4xx_hal_tim.c ****   /* Set the TIM state */
 303:Drivers/STM32F4xx_HAL_Driver/Src/stm32f4xx_hal_tim.c ****   htim->State = HAL_TIM_STATE_BUSY;
  68              		.loc 1 303 15
  69 002c 7B68     		ldr	r3, [r7, #4]
  70 002e 0222     		movs	r2, #2
  71 0030 83F83D20 		strb	r2, [r3, #61]
 304:Drivers/STM32F4xx_HAL_Driver/Src/stm32f4xx_hal_tim.c **** 
 305:Drivers/STM32F4xx_HAL_Driver/Src/stm32f4xx_hal_tim.c ****   /* Set the Time Base configuration */
 306:Drivers/STM32F4xx_HAL_Driver/Src/stm32f4xx_hal_tim.c ****   TIM_Base_SetConfig(htim->Instance, &htim->Init);
  72              		.loc 1 306 3
  73 0034 7B68     		ldr	r3, [r7, #4]
  74 0036 1A68     		ldr	r2, [r3]
  75              		.loc 1 306 38
  76 0038 7B68     		ldr	r3, [r7, #4]
  77 003a 0433     		adds	r3, r3, #4
  78              		.loc 1 306 3
  79 003c 1946     		mov	r1, r3
  80 003e 1046     		mov	r0, r2
  81 0040 FFF7FEFF 		bl	TIM_Base_SetConfig
 307:Drivers/STM32F4xx_HAL_Driver/Src/stm32f4xx_hal_tim.c **** 
 308:Drivers/STM32F4xx_HAL_Driver/Src/stm32f4xx_hal_tim.c ****   /* Initialize the DMA burst operation state */
 309:Drivers/STM32F4xx_HAL_Driver/Src/stm32f4xx_hal_tim.c ****   htim->DMABurstState = HAL_DMA_BURST_STATE_READY;
  82              		.loc 1 309 23
  83 0044 7B68     		ldr	r3, [r7, #4]
  84 0046 0122     		movs	r2, #1
  85 0048 83F84620 		strb	r2, [r3, #70]
 310:Drivers/STM32F4xx_HAL_Driver/Src/stm32f4xx_hal_tim.c **** 
 311:Drivers/STM32F4xx_HAL_Driver/Src/stm32f4xx_hal_tim.c ****   /* Initialize the TIM channels state */
 312:Drivers/STM32F4xx_HAL_Driver/Src/stm32f4xx_hal_tim.c ****   TIM_CHANNEL_STATE_SET_ALL(htim, HAL_TIM_CHANNEL_STATE_READY);
  86              		.loc 1 312 3
  87 004c 7B68     		ldr	r3, [r7, #4]
  88 004e 0122     		movs	r2, #1
ARM GAS  C:\Users\TGSPOC~1\AppData\Local\Temp\ccIyOLT8.s 			page 8


  89 0050 83F83E20 		strb	r2, [r3, #62]
  90 0054 7B68     		ldr	r3, [r7, #4]
  91 0056 0122     		movs	r2, #1
  92 0058 83F83F20 		strb	r2, [r3, #63]
  93 005c 7B68     		ldr	r3, [r7, #4]
  94 005e 0122     		movs	r2, #1
  95 0060 83F84020 		strb	r2, [r3, #64]
  96 0064 7B68     		ldr	r3, [r7, #4]
  97 0066 0122     		movs	r2, #1
  98 0068 83F84120 		strb	r2, [r3, #65]
 313:Drivers/STM32F4xx_HAL_Driver/Src/stm32f4xx_hal_tim.c ****   TIM_CHANNEL_N_STATE_SET_ALL(htim, HAL_TIM_CHANNEL_STATE_READY);
  99              		.loc 1 313 3
 100 006c 7B68     		ldr	r3, [r7, #4]
 101 006e 0122     		movs	r2, #1
 102 0070 83F84220 		strb	r2, [r3, #66]
 103 0074 7B68     		ldr	r3, [r7, #4]
 104 0076 0122     		movs	r2, #1
 105 0078 83F84320 		strb	r2, [r3, #67]
 106 007c 7B68     		ldr	r3, [r7, #4]
 107 007e 0122     		movs	r2, #1
 108 0080 83F84420 		strb	r2, [r3, #68]
 109 0084 7B68     		ldr	r3, [r7, #4]
 110 0086 0122     		movs	r2, #1
 111 0088 83F84520 		strb	r2, [r3, #69]
 314:Drivers/STM32F4xx_HAL_Driver/Src/stm32f4xx_hal_tim.c **** 
 315:Drivers/STM32F4xx_HAL_Driver/Src/stm32f4xx_hal_tim.c ****   /* Initialize the TIM state*/
 316:Drivers/STM32F4xx_HAL_Driver/Src/stm32f4xx_hal_tim.c ****   htim->State = HAL_TIM_STATE_READY;
 112              		.loc 1 316 15
 113 008c 7B68     		ldr	r3, [r7, #4]
 114 008e 0122     		movs	r2, #1
 115 0090 83F83D20 		strb	r2, [r3, #61]
 317:Drivers/STM32F4xx_HAL_Driver/Src/stm32f4xx_hal_tim.c **** 
 318:Drivers/STM32F4xx_HAL_Driver/Src/stm32f4xx_hal_tim.c ****   return HAL_OK;
 116              		.loc 1 318 10
 117 0094 0023     		movs	r3, #0
 118              	.L3:
 319:Drivers/STM32F4xx_HAL_Driver/Src/stm32f4xx_hal_tim.c **** }
 119              		.loc 1 319 1
 120 0096 1846     		mov	r0, r3
 121 0098 0837     		adds	r7, r7, #8
 122              	.LCFI3:
 123              		.cfi_def_cfa_offset 8
 124 009a BD46     		mov	sp, r7
 125              	.LCFI4:
 126              		.cfi_def_cfa_register 13
 127              		@ sp needed
 128 009c 80BD     		pop	{r7, pc}
 129              		.cfi_endproc
 130              	.LFE134:
 132              		.section	.text.HAL_TIM_Base_DeInit,"ax",%progbits
 133              		.align	1
 134              		.global	HAL_TIM_Base_DeInit
 135              		.syntax unified
 136              		.thumb
 137              		.thumb_func
 139              	HAL_TIM_Base_DeInit:
 140              	.LFB135:
ARM GAS  C:\Users\TGSPOC~1\AppData\Local\Temp\ccIyOLT8.s 			page 9


 320:Drivers/STM32F4xx_HAL_Driver/Src/stm32f4xx_hal_tim.c **** 
 321:Drivers/STM32F4xx_HAL_Driver/Src/stm32f4xx_hal_tim.c **** /**
 322:Drivers/STM32F4xx_HAL_Driver/Src/stm32f4xx_hal_tim.c ****   * @brief  DeInitializes the TIM Base peripheral
 323:Drivers/STM32F4xx_HAL_Driver/Src/stm32f4xx_hal_tim.c ****   * @param  htim TIM Base handle
 324:Drivers/STM32F4xx_HAL_Driver/Src/stm32f4xx_hal_tim.c ****   * @retval HAL status
 325:Drivers/STM32F4xx_HAL_Driver/Src/stm32f4xx_hal_tim.c ****   */
 326:Drivers/STM32F4xx_HAL_Driver/Src/stm32f4xx_hal_tim.c **** HAL_StatusTypeDef HAL_TIM_Base_DeInit(TIM_HandleTypeDef *htim)
 327:Drivers/STM32F4xx_HAL_Driver/Src/stm32f4xx_hal_tim.c **** {
 141              		.loc 1 327 1
 142              		.cfi_startproc
 143              		@ args = 0, pretend = 0, frame = 8
 144              		@ frame_needed = 1, uses_anonymous_args = 0
 145 0000 80B5     		push	{r7, lr}
 146              	.LCFI5:
 147              		.cfi_def_cfa_offset 8
 148              		.cfi_offset 7, -8
 149              		.cfi_offset 14, -4
 150 0002 82B0     		sub	sp, sp, #8
 151              	.LCFI6:
 152              		.cfi_def_cfa_offset 16
 153 0004 00AF     		add	r7, sp, #0
 154              	.LCFI7:
 155              		.cfi_def_cfa_register 7
 156 0006 7860     		str	r0, [r7, #4]
 328:Drivers/STM32F4xx_HAL_Driver/Src/stm32f4xx_hal_tim.c ****   /* Check the parameters */
 329:Drivers/STM32F4xx_HAL_Driver/Src/stm32f4xx_hal_tim.c ****   assert_param(IS_TIM_INSTANCE(htim->Instance));
 330:Drivers/STM32F4xx_HAL_Driver/Src/stm32f4xx_hal_tim.c **** 
 331:Drivers/STM32F4xx_HAL_Driver/Src/stm32f4xx_hal_tim.c ****   htim->State = HAL_TIM_STATE_BUSY;
 157              		.loc 1 331 15
 158 0008 7B68     		ldr	r3, [r7, #4]
 159 000a 0222     		movs	r2, #2
 160 000c 83F83D20 		strb	r2, [r3, #61]
 332:Drivers/STM32F4xx_HAL_Driver/Src/stm32f4xx_hal_tim.c **** 
 333:Drivers/STM32F4xx_HAL_Driver/Src/stm32f4xx_hal_tim.c ****   /* Disable the TIM Peripheral Clock */
 334:Drivers/STM32F4xx_HAL_Driver/Src/stm32f4xx_hal_tim.c ****   __HAL_TIM_DISABLE(htim);
 161              		.loc 1 334 3
 162 0010 7B68     		ldr	r3, [r7, #4]
 163 0012 1B68     		ldr	r3, [r3]
 164 0014 1A6A     		ldr	r2, [r3, #32]
 165 0016 41F21113 		movw	r3, #4369
 166 001a 1340     		ands	r3, r3, r2
 167 001c 002B     		cmp	r3, #0
 168 001e 0FD1     		bne	.L6
 169              		.loc 1 334 3 is_stmt 0 discriminator 1
 170 0020 7B68     		ldr	r3, [r7, #4]
 171 0022 1B68     		ldr	r3, [r3]
 172 0024 1A6A     		ldr	r2, [r3, #32]
 173 0026 40F24443 		movw	r3, #1092
 174 002a 1340     		ands	r3, r3, r2
 175 002c 002B     		cmp	r3, #0
 176 002e 07D1     		bne	.L6
 177              		.loc 1 334 3 discriminator 2
 178 0030 7B68     		ldr	r3, [r7, #4]
 179 0032 1B68     		ldr	r3, [r3]
 180 0034 1A68     		ldr	r2, [r3]
 181 0036 7B68     		ldr	r3, [r7, #4]
 182 0038 1B68     		ldr	r3, [r3]
ARM GAS  C:\Users\TGSPOC~1\AppData\Local\Temp\ccIyOLT8.s 			page 10


 183 003a 22F00102 		bic	r2, r2, #1
 184 003e 1A60     		str	r2, [r3]
 185              	.L6:
 335:Drivers/STM32F4xx_HAL_Driver/Src/stm32f4xx_hal_tim.c **** 
 336:Drivers/STM32F4xx_HAL_Driver/Src/stm32f4xx_hal_tim.c **** #if (USE_HAL_TIM_REGISTER_CALLBACKS == 1)
 337:Drivers/STM32F4xx_HAL_Driver/Src/stm32f4xx_hal_tim.c ****   if (htim->Base_MspDeInitCallback == NULL)
 338:Drivers/STM32F4xx_HAL_Driver/Src/stm32f4xx_hal_tim.c ****   {
 339:Drivers/STM32F4xx_HAL_Driver/Src/stm32f4xx_hal_tim.c ****     htim->Base_MspDeInitCallback = HAL_TIM_Base_MspDeInit;
 340:Drivers/STM32F4xx_HAL_Driver/Src/stm32f4xx_hal_tim.c ****   }
 341:Drivers/STM32F4xx_HAL_Driver/Src/stm32f4xx_hal_tim.c ****   /* DeInit the low level hardware */
 342:Drivers/STM32F4xx_HAL_Driver/Src/stm32f4xx_hal_tim.c ****   htim->Base_MspDeInitCallback(htim);
 343:Drivers/STM32F4xx_HAL_Driver/Src/stm32f4xx_hal_tim.c **** #else
 344:Drivers/STM32F4xx_HAL_Driver/Src/stm32f4xx_hal_tim.c ****   /* DeInit the low level hardware: GPIO, CLOCK, NVIC */
 345:Drivers/STM32F4xx_HAL_Driver/Src/stm32f4xx_hal_tim.c ****   HAL_TIM_Base_MspDeInit(htim);
 186              		.loc 1 345 3 is_stmt 1
 187 0040 7868     		ldr	r0, [r7, #4]
 188 0042 FFF7FEFF 		bl	HAL_TIM_Base_MspDeInit
 346:Drivers/STM32F4xx_HAL_Driver/Src/stm32f4xx_hal_tim.c **** #endif /* USE_HAL_TIM_REGISTER_CALLBACKS */
 347:Drivers/STM32F4xx_HAL_Driver/Src/stm32f4xx_hal_tim.c **** 
 348:Drivers/STM32F4xx_HAL_Driver/Src/stm32f4xx_hal_tim.c ****   /* Change the DMA burst operation state */
 349:Drivers/STM32F4xx_HAL_Driver/Src/stm32f4xx_hal_tim.c ****   htim->DMABurstState = HAL_DMA_BURST_STATE_RESET;
 189              		.loc 1 349 23
 190 0046 7B68     		ldr	r3, [r7, #4]
 191 0048 0022     		movs	r2, #0
 192 004a 83F84620 		strb	r2, [r3, #70]
 350:Drivers/STM32F4xx_HAL_Driver/Src/stm32f4xx_hal_tim.c **** 
 351:Drivers/STM32F4xx_HAL_Driver/Src/stm32f4xx_hal_tim.c ****   /* Change the TIM channels state */
 352:Drivers/STM32F4xx_HAL_Driver/Src/stm32f4xx_hal_tim.c ****   TIM_CHANNEL_STATE_SET_ALL(htim, HAL_TIM_CHANNEL_STATE_RESET);
 193              		.loc 1 352 3
 194 004e 7B68     		ldr	r3, [r7, #4]
 195 0050 0022     		movs	r2, #0
 196 0052 83F83E20 		strb	r2, [r3, #62]
 197 0056 7B68     		ldr	r3, [r7, #4]
 198 0058 0022     		movs	r2, #0
 199 005a 83F83F20 		strb	r2, [r3, #63]
 200 005e 7B68     		ldr	r3, [r7, #4]
 201 0060 0022     		movs	r2, #0
 202 0062 83F84020 		strb	r2, [r3, #64]
 203 0066 7B68     		ldr	r3, [r7, #4]
 204 0068 0022     		movs	r2, #0
 205 006a 83F84120 		strb	r2, [r3, #65]
 353:Drivers/STM32F4xx_HAL_Driver/Src/stm32f4xx_hal_tim.c ****   TIM_CHANNEL_N_STATE_SET_ALL(htim, HAL_TIM_CHANNEL_STATE_RESET);
 206              		.loc 1 353 3
 207 006e 7B68     		ldr	r3, [r7, #4]
 208 0070 0022     		movs	r2, #0
 209 0072 83F84220 		strb	r2, [r3, #66]
 210 0076 7B68     		ldr	r3, [r7, #4]
 211 0078 0022     		movs	r2, #0
 212 007a 83F84320 		strb	r2, [r3, #67]
 213 007e 7B68     		ldr	r3, [r7, #4]
 214 0080 0022     		movs	r2, #0
 215 0082 83F84420 		strb	r2, [r3, #68]
 216 0086 7B68     		ldr	r3, [r7, #4]
 217 0088 0022     		movs	r2, #0
 218 008a 83F84520 		strb	r2, [r3, #69]
 354:Drivers/STM32F4xx_HAL_Driver/Src/stm32f4xx_hal_tim.c **** 
 355:Drivers/STM32F4xx_HAL_Driver/Src/stm32f4xx_hal_tim.c ****   /* Change TIM state */
ARM GAS  C:\Users\TGSPOC~1\AppData\Local\Temp\ccIyOLT8.s 			page 11


 356:Drivers/STM32F4xx_HAL_Driver/Src/stm32f4xx_hal_tim.c ****   htim->State = HAL_TIM_STATE_RESET;
 219              		.loc 1 356 15
 220 008e 7B68     		ldr	r3, [r7, #4]
 221 0090 0022     		movs	r2, #0
 222 0092 83F83D20 		strb	r2, [r3, #61]
 357:Drivers/STM32F4xx_HAL_Driver/Src/stm32f4xx_hal_tim.c **** 
 358:Drivers/STM32F4xx_HAL_Driver/Src/stm32f4xx_hal_tim.c ****   /* Release Lock */
 359:Drivers/STM32F4xx_HAL_Driver/Src/stm32f4xx_hal_tim.c ****   __HAL_UNLOCK(htim);
 223              		.loc 1 359 3
 224 0096 7B68     		ldr	r3, [r7, #4]
 225 0098 0022     		movs	r2, #0
 226 009a 83F83C20 		strb	r2, [r3, #60]
 360:Drivers/STM32F4xx_HAL_Driver/Src/stm32f4xx_hal_tim.c **** 
 361:Drivers/STM32F4xx_HAL_Driver/Src/stm32f4xx_hal_tim.c ****   return HAL_OK;
 227              		.loc 1 361 10
 228 009e 0023     		movs	r3, #0
 362:Drivers/STM32F4xx_HAL_Driver/Src/stm32f4xx_hal_tim.c **** }
 229              		.loc 1 362 1
 230 00a0 1846     		mov	r0, r3
 231 00a2 0837     		adds	r7, r7, #8
 232              	.LCFI8:
 233              		.cfi_def_cfa_offset 8
 234 00a4 BD46     		mov	sp, r7
 235              	.LCFI9:
 236              		.cfi_def_cfa_register 13
 237              		@ sp needed
 238 00a6 80BD     		pop	{r7, pc}
 239              		.cfi_endproc
 240              	.LFE135:
 242              		.section	.text.HAL_TIM_Base_MspInit,"ax",%progbits
 243              		.align	1
 244              		.weak	HAL_TIM_Base_MspInit
 245              		.syntax unified
 246              		.thumb
 247              		.thumb_func
 249              	HAL_TIM_Base_MspInit:
 250              	.LFB136:
 363:Drivers/STM32F4xx_HAL_Driver/Src/stm32f4xx_hal_tim.c **** 
 364:Drivers/STM32F4xx_HAL_Driver/Src/stm32f4xx_hal_tim.c **** /**
 365:Drivers/STM32F4xx_HAL_Driver/Src/stm32f4xx_hal_tim.c ****   * @brief  Initializes the TIM Base MSP.
 366:Drivers/STM32F4xx_HAL_Driver/Src/stm32f4xx_hal_tim.c ****   * @param  htim TIM Base handle
 367:Drivers/STM32F4xx_HAL_Driver/Src/stm32f4xx_hal_tim.c ****   * @retval None
 368:Drivers/STM32F4xx_HAL_Driver/Src/stm32f4xx_hal_tim.c ****   */
 369:Drivers/STM32F4xx_HAL_Driver/Src/stm32f4xx_hal_tim.c **** __weak void HAL_TIM_Base_MspInit(TIM_HandleTypeDef *htim)
 370:Drivers/STM32F4xx_HAL_Driver/Src/stm32f4xx_hal_tim.c **** {
 251              		.loc 1 370 1
 252              		.cfi_startproc
 253              		@ args = 0, pretend = 0, frame = 8
 254              		@ frame_needed = 1, uses_anonymous_args = 0
 255              		@ link register save eliminated.
 256 0000 80B4     		push	{r7}
 257              	.LCFI10:
 258              		.cfi_def_cfa_offset 4
 259              		.cfi_offset 7, -4
 260 0002 83B0     		sub	sp, sp, #12
 261              	.LCFI11:
 262              		.cfi_def_cfa_offset 16
ARM GAS  C:\Users\TGSPOC~1\AppData\Local\Temp\ccIyOLT8.s 			page 12


 263 0004 00AF     		add	r7, sp, #0
 264              	.LCFI12:
 265              		.cfi_def_cfa_register 7
 266 0006 7860     		str	r0, [r7, #4]
 371:Drivers/STM32F4xx_HAL_Driver/Src/stm32f4xx_hal_tim.c ****   /* Prevent unused argument(s) compilation warning */
 372:Drivers/STM32F4xx_HAL_Driver/Src/stm32f4xx_hal_tim.c ****   UNUSED(htim);
 373:Drivers/STM32F4xx_HAL_Driver/Src/stm32f4xx_hal_tim.c **** 
 374:Drivers/STM32F4xx_HAL_Driver/Src/stm32f4xx_hal_tim.c ****   /* NOTE : This function should not be modified, when the callback is needed,
 375:Drivers/STM32F4xx_HAL_Driver/Src/stm32f4xx_hal_tim.c ****             the HAL_TIM_Base_MspInit could be implemented in the user file
 376:Drivers/STM32F4xx_HAL_Driver/Src/stm32f4xx_hal_tim.c ****    */
 377:Drivers/STM32F4xx_HAL_Driver/Src/stm32f4xx_hal_tim.c **** }
 267              		.loc 1 377 1
 268 0008 00BF     		nop
 269 000a 0C37     		adds	r7, r7, #12
 270              	.LCFI13:
 271              		.cfi_def_cfa_offset 4
 272 000c BD46     		mov	sp, r7
 273              	.LCFI14:
 274              		.cfi_def_cfa_register 13
 275              		@ sp needed
 276 000e 5DF8047B 		ldr	r7, [sp], #4
 277              	.LCFI15:
 278              		.cfi_restore 7
 279              		.cfi_def_cfa_offset 0
 280 0012 7047     		bx	lr
 281              		.cfi_endproc
 282              	.LFE136:
 284              		.section	.text.HAL_TIM_Base_MspDeInit,"ax",%progbits
 285              		.align	1
 286              		.weak	HAL_TIM_Base_MspDeInit
 287              		.syntax unified
 288              		.thumb
 289              		.thumb_func
 291              	HAL_TIM_Base_MspDeInit:
 292              	.LFB137:
 378:Drivers/STM32F4xx_HAL_Driver/Src/stm32f4xx_hal_tim.c **** 
 379:Drivers/STM32F4xx_HAL_Driver/Src/stm32f4xx_hal_tim.c **** /**
 380:Drivers/STM32F4xx_HAL_Driver/Src/stm32f4xx_hal_tim.c ****   * @brief  DeInitializes TIM Base MSP.
 381:Drivers/STM32F4xx_HAL_Driver/Src/stm32f4xx_hal_tim.c ****   * @param  htim TIM Base handle
 382:Drivers/STM32F4xx_HAL_Driver/Src/stm32f4xx_hal_tim.c ****   * @retval None
 383:Drivers/STM32F4xx_HAL_Driver/Src/stm32f4xx_hal_tim.c ****   */
 384:Drivers/STM32F4xx_HAL_Driver/Src/stm32f4xx_hal_tim.c **** __weak void HAL_TIM_Base_MspDeInit(TIM_HandleTypeDef *htim)
 385:Drivers/STM32F4xx_HAL_Driver/Src/stm32f4xx_hal_tim.c **** {
 293              		.loc 1 385 1
 294              		.cfi_startproc
 295              		@ args = 0, pretend = 0, frame = 8
 296              		@ frame_needed = 1, uses_anonymous_args = 0
 297              		@ link register save eliminated.
 298 0000 80B4     		push	{r7}
 299              	.LCFI16:
 300              		.cfi_def_cfa_offset 4
 301              		.cfi_offset 7, -4
 302 0002 83B0     		sub	sp, sp, #12
 303              	.LCFI17:
 304              		.cfi_def_cfa_offset 16
 305 0004 00AF     		add	r7, sp, #0
 306              	.LCFI18:
ARM GAS  C:\Users\TGSPOC~1\AppData\Local\Temp\ccIyOLT8.s 			page 13


 307              		.cfi_def_cfa_register 7
 308 0006 7860     		str	r0, [r7, #4]
 386:Drivers/STM32F4xx_HAL_Driver/Src/stm32f4xx_hal_tim.c ****   /* Prevent unused argument(s) compilation warning */
 387:Drivers/STM32F4xx_HAL_Driver/Src/stm32f4xx_hal_tim.c ****   UNUSED(htim);
 388:Drivers/STM32F4xx_HAL_Driver/Src/stm32f4xx_hal_tim.c **** 
 389:Drivers/STM32F4xx_HAL_Driver/Src/stm32f4xx_hal_tim.c ****   /* NOTE : This function should not be modified, when the callback is needed,
 390:Drivers/STM32F4xx_HAL_Driver/Src/stm32f4xx_hal_tim.c ****             the HAL_TIM_Base_MspDeInit could be implemented in the user file
 391:Drivers/STM32F4xx_HAL_Driver/Src/stm32f4xx_hal_tim.c ****    */
 392:Drivers/STM32F4xx_HAL_Driver/Src/stm32f4xx_hal_tim.c **** }
 309              		.loc 1 392 1
 310 0008 00BF     		nop
 311 000a 0C37     		adds	r7, r7, #12
 312              	.LCFI19:
 313              		.cfi_def_cfa_offset 4
 314 000c BD46     		mov	sp, r7
 315              	.LCFI20:
 316              		.cfi_def_cfa_register 13
 317              		@ sp needed
 318 000e 5DF8047B 		ldr	r7, [sp], #4
 319              	.LCFI21:
 320              		.cfi_restore 7
 321              		.cfi_def_cfa_offset 0
 322 0012 7047     		bx	lr
 323              		.cfi_endproc
 324              	.LFE137:
 326              		.section	.text.HAL_TIM_Base_Start,"ax",%progbits
 327              		.align	1
 328              		.global	HAL_TIM_Base_Start
 329              		.syntax unified
 330              		.thumb
 331              		.thumb_func
 333              	HAL_TIM_Base_Start:
 334              	.LFB138:
 393:Drivers/STM32F4xx_HAL_Driver/Src/stm32f4xx_hal_tim.c **** 
 394:Drivers/STM32F4xx_HAL_Driver/Src/stm32f4xx_hal_tim.c **** 
 395:Drivers/STM32F4xx_HAL_Driver/Src/stm32f4xx_hal_tim.c **** /**
 396:Drivers/STM32F4xx_HAL_Driver/Src/stm32f4xx_hal_tim.c ****   * @brief  Starts the TIM Base generation.
 397:Drivers/STM32F4xx_HAL_Driver/Src/stm32f4xx_hal_tim.c ****   * @param  htim TIM Base handle
 398:Drivers/STM32F4xx_HAL_Driver/Src/stm32f4xx_hal_tim.c ****   * @retval HAL status
 399:Drivers/STM32F4xx_HAL_Driver/Src/stm32f4xx_hal_tim.c ****   */
 400:Drivers/STM32F4xx_HAL_Driver/Src/stm32f4xx_hal_tim.c **** HAL_StatusTypeDef HAL_TIM_Base_Start(TIM_HandleTypeDef *htim)
 401:Drivers/STM32F4xx_HAL_Driver/Src/stm32f4xx_hal_tim.c **** {
 335              		.loc 1 401 1
 336              		.cfi_startproc
 337              		@ args = 0, pretend = 0, frame = 16
 338              		@ frame_needed = 1, uses_anonymous_args = 0
 339              		@ link register save eliminated.
 340 0000 80B4     		push	{r7}
 341              	.LCFI22:
 342              		.cfi_def_cfa_offset 4
 343              		.cfi_offset 7, -4
 344 0002 85B0     		sub	sp, sp, #20
 345              	.LCFI23:
 346              		.cfi_def_cfa_offset 24
 347 0004 00AF     		add	r7, sp, #0
 348              	.LCFI24:
 349              		.cfi_def_cfa_register 7
ARM GAS  C:\Users\TGSPOC~1\AppData\Local\Temp\ccIyOLT8.s 			page 14


 350 0006 7860     		str	r0, [r7, #4]
 402:Drivers/STM32F4xx_HAL_Driver/Src/stm32f4xx_hal_tim.c ****   uint32_t tmpsmcr;
 403:Drivers/STM32F4xx_HAL_Driver/Src/stm32f4xx_hal_tim.c **** 
 404:Drivers/STM32F4xx_HAL_Driver/Src/stm32f4xx_hal_tim.c ****   /* Check the parameters */
 405:Drivers/STM32F4xx_HAL_Driver/Src/stm32f4xx_hal_tim.c ****   assert_param(IS_TIM_INSTANCE(htim->Instance));
 406:Drivers/STM32F4xx_HAL_Driver/Src/stm32f4xx_hal_tim.c **** 
 407:Drivers/STM32F4xx_HAL_Driver/Src/stm32f4xx_hal_tim.c ****   /* Check the TIM state */
 408:Drivers/STM32F4xx_HAL_Driver/Src/stm32f4xx_hal_tim.c ****   if (htim->State != HAL_TIM_STATE_READY)
 351              		.loc 1 408 11
 352 0008 7B68     		ldr	r3, [r7, #4]
 353 000a 93F83D30 		ldrb	r3, [r3, #61]
 354 000e DBB2     		uxtb	r3, r3
 355              		.loc 1 408 6
 356 0010 012B     		cmp	r3, #1
 357 0012 01D0     		beq	.L11
 409:Drivers/STM32F4xx_HAL_Driver/Src/stm32f4xx_hal_tim.c ****   {
 410:Drivers/STM32F4xx_HAL_Driver/Src/stm32f4xx_hal_tim.c ****     return HAL_ERROR;
 358              		.loc 1 410 12
 359 0014 0123     		movs	r3, #1
 360 0016 3CE0     		b	.L12
 361              	.L11:
 411:Drivers/STM32F4xx_HAL_Driver/Src/stm32f4xx_hal_tim.c ****   }
 412:Drivers/STM32F4xx_HAL_Driver/Src/stm32f4xx_hal_tim.c **** 
 413:Drivers/STM32F4xx_HAL_Driver/Src/stm32f4xx_hal_tim.c ****   /* Set the TIM state */
 414:Drivers/STM32F4xx_HAL_Driver/Src/stm32f4xx_hal_tim.c ****   htim->State = HAL_TIM_STATE_BUSY;
 362              		.loc 1 414 15
 363 0018 7B68     		ldr	r3, [r7, #4]
 364 001a 0222     		movs	r2, #2
 365 001c 83F83D20 		strb	r2, [r3, #61]
 415:Drivers/STM32F4xx_HAL_Driver/Src/stm32f4xx_hal_tim.c **** 
 416:Drivers/STM32F4xx_HAL_Driver/Src/stm32f4xx_hal_tim.c ****   /* Enable the Peripheral, except in trigger mode where enable is automatically done with trigger 
 417:Drivers/STM32F4xx_HAL_Driver/Src/stm32f4xx_hal_tim.c ****   if (IS_TIM_SLAVE_INSTANCE(htim->Instance))
 366              		.loc 1 417 7
 367 0020 7B68     		ldr	r3, [r7, #4]
 368 0022 1B68     		ldr	r3, [r3]
 369              		.loc 1 417 6
 370 0024 1E4A     		ldr	r2, .L17
 371 0026 9342     		cmp	r3, r2
 372 0028 18D0     		beq	.L13
 373              		.loc 1 417 7 discriminator 1
 374 002a 7B68     		ldr	r3, [r7, #4]
 375 002c 1B68     		ldr	r3, [r3]
 376 002e B3F1804F 		cmp	r3, #1073741824
 377 0032 13D0     		beq	.L13
 378              		.loc 1 417 7 is_stmt 0 discriminator 2
 379 0034 7B68     		ldr	r3, [r7, #4]
 380 0036 1B68     		ldr	r3, [r3]
 381 0038 1A4A     		ldr	r2, .L17+4
 382 003a 9342     		cmp	r3, r2
 383 003c 0ED0     		beq	.L13
 384              		.loc 1 417 7 discriminator 3
 385 003e 7B68     		ldr	r3, [r7, #4]
 386 0040 1B68     		ldr	r3, [r3]
 387 0042 194A     		ldr	r2, .L17+8
 388 0044 9342     		cmp	r3, r2
 389 0046 09D0     		beq	.L13
 390              		.loc 1 417 7 discriminator 4
ARM GAS  C:\Users\TGSPOC~1\AppData\Local\Temp\ccIyOLT8.s 			page 15


 391 0048 7B68     		ldr	r3, [r7, #4]
 392 004a 1B68     		ldr	r3, [r3]
 393 004c 174A     		ldr	r2, .L17+12
 394 004e 9342     		cmp	r3, r2
 395 0050 04D0     		beq	.L13
 396              		.loc 1 417 7 discriminator 5
 397 0052 7B68     		ldr	r3, [r7, #4]
 398 0054 1B68     		ldr	r3, [r3]
 399 0056 164A     		ldr	r2, .L17+16
 400 0058 9342     		cmp	r3, r2
 401 005a 11D1     		bne	.L14
 402              	.L13:
 418:Drivers/STM32F4xx_HAL_Driver/Src/stm32f4xx_hal_tim.c ****   {
 419:Drivers/STM32F4xx_HAL_Driver/Src/stm32f4xx_hal_tim.c ****     tmpsmcr = htim->Instance->SMCR & TIM_SMCR_SMS;
 403              		.loc 1 419 19 is_stmt 1
 404 005c 7B68     		ldr	r3, [r7, #4]
 405 005e 1B68     		ldr	r3, [r3]
 406              		.loc 1 419 29
 407 0060 9B68     		ldr	r3, [r3, #8]
 408              		.loc 1 419 13
 409 0062 03F00703 		and	r3, r3, #7
 410 0066 FB60     		str	r3, [r7, #12]
 420:Drivers/STM32F4xx_HAL_Driver/Src/stm32f4xx_hal_tim.c ****     if (!IS_TIM_SLAVEMODE_TRIGGER_ENABLED(tmpsmcr))
 411              		.loc 1 420 8
 412 0068 FB68     		ldr	r3, [r7, #12]
 413 006a 062B     		cmp	r3, #6
 414 006c 10D0     		beq	.L16
 421:Drivers/STM32F4xx_HAL_Driver/Src/stm32f4xx_hal_tim.c ****     {
 422:Drivers/STM32F4xx_HAL_Driver/Src/stm32f4xx_hal_tim.c ****       __HAL_TIM_ENABLE(htim);
 415              		.loc 1 422 7
 416 006e 7B68     		ldr	r3, [r7, #4]
 417 0070 1B68     		ldr	r3, [r3]
 418 0072 1A68     		ldr	r2, [r3]
 419 0074 7B68     		ldr	r3, [r7, #4]
 420 0076 1B68     		ldr	r3, [r3]
 421 0078 42F00102 		orr	r2, r2, #1
 422 007c 1A60     		str	r2, [r3]
 420:Drivers/STM32F4xx_HAL_Driver/Src/stm32f4xx_hal_tim.c ****     if (!IS_TIM_SLAVEMODE_TRIGGER_ENABLED(tmpsmcr))
 423              		.loc 1 420 8
 424 007e 07E0     		b	.L16
 425              	.L14:
 423:Drivers/STM32F4xx_HAL_Driver/Src/stm32f4xx_hal_tim.c ****     }
 424:Drivers/STM32F4xx_HAL_Driver/Src/stm32f4xx_hal_tim.c ****   }
 425:Drivers/STM32F4xx_HAL_Driver/Src/stm32f4xx_hal_tim.c ****   else
 426:Drivers/STM32F4xx_HAL_Driver/Src/stm32f4xx_hal_tim.c ****   {
 427:Drivers/STM32F4xx_HAL_Driver/Src/stm32f4xx_hal_tim.c ****     __HAL_TIM_ENABLE(htim);
 426              		.loc 1 427 5
 427 0080 7B68     		ldr	r3, [r7, #4]
 428 0082 1B68     		ldr	r3, [r3]
 429 0084 1A68     		ldr	r2, [r3]
 430 0086 7B68     		ldr	r3, [r7, #4]
 431 0088 1B68     		ldr	r3, [r3]
 432 008a 42F00102 		orr	r2, r2, #1
 433 008e 1A60     		str	r2, [r3]
 434              	.L16:
 428:Drivers/STM32F4xx_HAL_Driver/Src/stm32f4xx_hal_tim.c ****   }
 429:Drivers/STM32F4xx_HAL_Driver/Src/stm32f4xx_hal_tim.c **** 
ARM GAS  C:\Users\TGSPOC~1\AppData\Local\Temp\ccIyOLT8.s 			page 16


 430:Drivers/STM32F4xx_HAL_Driver/Src/stm32f4xx_hal_tim.c ****   /* Return function status */
 431:Drivers/STM32F4xx_HAL_Driver/Src/stm32f4xx_hal_tim.c ****   return HAL_OK;
 435              		.loc 1 431 10
 436 0090 0023     		movs	r3, #0
 437              	.L12:
 432:Drivers/STM32F4xx_HAL_Driver/Src/stm32f4xx_hal_tim.c **** }
 438              		.loc 1 432 1
 439 0092 1846     		mov	r0, r3
 440 0094 1437     		adds	r7, r7, #20
 441              	.LCFI25:
 442              		.cfi_def_cfa_offset 4
 443 0096 BD46     		mov	sp, r7
 444              	.LCFI26:
 445              		.cfi_def_cfa_register 13
 446              		@ sp needed
 447 0098 5DF8047B 		ldr	r7, [sp], #4
 448              	.LCFI27:
 449              		.cfi_restore 7
 450              		.cfi_def_cfa_offset 0
 451 009c 7047     		bx	lr
 452              	.L18:
 453 009e 00BF     		.align	2
 454              	.L17:
 455 00a0 00000140 		.word	1073807360
 456 00a4 00040040 		.word	1073742848
 457 00a8 00080040 		.word	1073743872
 458 00ac 000C0040 		.word	1073744896
 459 00b0 00400140 		.word	1073823744
 460              		.cfi_endproc
 461              	.LFE138:
 463              		.section	.text.HAL_TIM_Base_Stop,"ax",%progbits
 464              		.align	1
 465              		.global	HAL_TIM_Base_Stop
 466              		.syntax unified
 467              		.thumb
 468              		.thumb_func
 470              	HAL_TIM_Base_Stop:
 471              	.LFB139:
 433:Drivers/STM32F4xx_HAL_Driver/Src/stm32f4xx_hal_tim.c **** 
 434:Drivers/STM32F4xx_HAL_Driver/Src/stm32f4xx_hal_tim.c **** /**
 435:Drivers/STM32F4xx_HAL_Driver/Src/stm32f4xx_hal_tim.c ****   * @brief  Stops the TIM Base generation.
 436:Drivers/STM32F4xx_HAL_Driver/Src/stm32f4xx_hal_tim.c ****   * @param  htim TIM Base handle
 437:Drivers/STM32F4xx_HAL_Driver/Src/stm32f4xx_hal_tim.c ****   * @retval HAL status
 438:Drivers/STM32F4xx_HAL_Driver/Src/stm32f4xx_hal_tim.c ****   */
 439:Drivers/STM32F4xx_HAL_Driver/Src/stm32f4xx_hal_tim.c **** HAL_StatusTypeDef HAL_TIM_Base_Stop(TIM_HandleTypeDef *htim)
 440:Drivers/STM32F4xx_HAL_Driver/Src/stm32f4xx_hal_tim.c **** {
 472              		.loc 1 440 1
 473              		.cfi_startproc
 474              		@ args = 0, pretend = 0, frame = 8
 475              		@ frame_needed = 1, uses_anonymous_args = 0
 476              		@ link register save eliminated.
 477 0000 80B4     		push	{r7}
 478              	.LCFI28:
 479              		.cfi_def_cfa_offset 4
 480              		.cfi_offset 7, -4
 481 0002 83B0     		sub	sp, sp, #12
 482              	.LCFI29:
ARM GAS  C:\Users\TGSPOC~1\AppData\Local\Temp\ccIyOLT8.s 			page 17


 483              		.cfi_def_cfa_offset 16
 484 0004 00AF     		add	r7, sp, #0
 485              	.LCFI30:
 486              		.cfi_def_cfa_register 7
 487 0006 7860     		str	r0, [r7, #4]
 441:Drivers/STM32F4xx_HAL_Driver/Src/stm32f4xx_hal_tim.c ****   /* Check the parameters */
 442:Drivers/STM32F4xx_HAL_Driver/Src/stm32f4xx_hal_tim.c ****   assert_param(IS_TIM_INSTANCE(htim->Instance));
 443:Drivers/STM32F4xx_HAL_Driver/Src/stm32f4xx_hal_tim.c **** 
 444:Drivers/STM32F4xx_HAL_Driver/Src/stm32f4xx_hal_tim.c ****   /* Disable the Peripheral */
 445:Drivers/STM32F4xx_HAL_Driver/Src/stm32f4xx_hal_tim.c ****   __HAL_TIM_DISABLE(htim);
 488              		.loc 1 445 3
 489 0008 7B68     		ldr	r3, [r7, #4]
 490 000a 1B68     		ldr	r3, [r3]
 491 000c 1A6A     		ldr	r2, [r3, #32]
 492 000e 41F21113 		movw	r3, #4369
 493 0012 1340     		ands	r3, r3, r2
 494 0014 002B     		cmp	r3, #0
 495 0016 0FD1     		bne	.L20
 496              		.loc 1 445 3 is_stmt 0 discriminator 1
 497 0018 7B68     		ldr	r3, [r7, #4]
 498 001a 1B68     		ldr	r3, [r3]
 499 001c 1A6A     		ldr	r2, [r3, #32]
 500 001e 40F24443 		movw	r3, #1092
 501 0022 1340     		ands	r3, r3, r2
 502 0024 002B     		cmp	r3, #0
 503 0026 07D1     		bne	.L20
 504              		.loc 1 445 3 discriminator 2
 505 0028 7B68     		ldr	r3, [r7, #4]
 506 002a 1B68     		ldr	r3, [r3]
 507 002c 1A68     		ldr	r2, [r3]
 508 002e 7B68     		ldr	r3, [r7, #4]
 509 0030 1B68     		ldr	r3, [r3]
 510 0032 22F00102 		bic	r2, r2, #1
 511 0036 1A60     		str	r2, [r3]
 512              	.L20:
 446:Drivers/STM32F4xx_HAL_Driver/Src/stm32f4xx_hal_tim.c **** 
 447:Drivers/STM32F4xx_HAL_Driver/Src/stm32f4xx_hal_tim.c ****   /* Set the TIM state */
 448:Drivers/STM32F4xx_HAL_Driver/Src/stm32f4xx_hal_tim.c ****   htim->State = HAL_TIM_STATE_READY;
 513              		.loc 1 448 15 is_stmt 1
 514 0038 7B68     		ldr	r3, [r7, #4]
 515 003a 0122     		movs	r2, #1
 516 003c 83F83D20 		strb	r2, [r3, #61]
 449:Drivers/STM32F4xx_HAL_Driver/Src/stm32f4xx_hal_tim.c **** 
 450:Drivers/STM32F4xx_HAL_Driver/Src/stm32f4xx_hal_tim.c ****   /* Return function status */
 451:Drivers/STM32F4xx_HAL_Driver/Src/stm32f4xx_hal_tim.c ****   return HAL_OK;
 517              		.loc 1 451 10
 518 0040 0023     		movs	r3, #0
 452:Drivers/STM32F4xx_HAL_Driver/Src/stm32f4xx_hal_tim.c **** }
 519              		.loc 1 452 1
 520 0042 1846     		mov	r0, r3
 521 0044 0C37     		adds	r7, r7, #12
 522              	.LCFI31:
 523              		.cfi_def_cfa_offset 4
 524 0046 BD46     		mov	sp, r7
 525              	.LCFI32:
 526              		.cfi_def_cfa_register 13
 527              		@ sp needed
ARM GAS  C:\Users\TGSPOC~1\AppData\Local\Temp\ccIyOLT8.s 			page 18


 528 0048 5DF8047B 		ldr	r7, [sp], #4
 529              	.LCFI33:
 530              		.cfi_restore 7
 531              		.cfi_def_cfa_offset 0
 532 004c 7047     		bx	lr
 533              		.cfi_endproc
 534              	.LFE139:
 536              		.section	.text.HAL_TIM_Base_Start_IT,"ax",%progbits
 537              		.align	1
 538              		.global	HAL_TIM_Base_Start_IT
 539              		.syntax unified
 540              		.thumb
 541              		.thumb_func
 543              	HAL_TIM_Base_Start_IT:
 544              	.LFB140:
 453:Drivers/STM32F4xx_HAL_Driver/Src/stm32f4xx_hal_tim.c **** 
 454:Drivers/STM32F4xx_HAL_Driver/Src/stm32f4xx_hal_tim.c **** /**
 455:Drivers/STM32F4xx_HAL_Driver/Src/stm32f4xx_hal_tim.c ****   * @brief  Starts the TIM Base generation in interrupt mode.
 456:Drivers/STM32F4xx_HAL_Driver/Src/stm32f4xx_hal_tim.c ****   * @param  htim TIM Base handle
 457:Drivers/STM32F4xx_HAL_Driver/Src/stm32f4xx_hal_tim.c ****   * @retval HAL status
 458:Drivers/STM32F4xx_HAL_Driver/Src/stm32f4xx_hal_tim.c ****   */
 459:Drivers/STM32F4xx_HAL_Driver/Src/stm32f4xx_hal_tim.c **** HAL_StatusTypeDef HAL_TIM_Base_Start_IT(TIM_HandleTypeDef *htim)
 460:Drivers/STM32F4xx_HAL_Driver/Src/stm32f4xx_hal_tim.c **** {
 545              		.loc 1 460 1
 546              		.cfi_startproc
 547              		@ args = 0, pretend = 0, frame = 16
 548              		@ frame_needed = 1, uses_anonymous_args = 0
 549              		@ link register save eliminated.
 550 0000 80B4     		push	{r7}
 551              	.LCFI34:
 552              		.cfi_def_cfa_offset 4
 553              		.cfi_offset 7, -4
 554 0002 85B0     		sub	sp, sp, #20
 555              	.LCFI35:
 556              		.cfi_def_cfa_offset 24
 557 0004 00AF     		add	r7, sp, #0
 558              	.LCFI36:
 559              		.cfi_def_cfa_register 7
 560 0006 7860     		str	r0, [r7, #4]
 461:Drivers/STM32F4xx_HAL_Driver/Src/stm32f4xx_hal_tim.c ****   uint32_t tmpsmcr;
 462:Drivers/STM32F4xx_HAL_Driver/Src/stm32f4xx_hal_tim.c **** 
 463:Drivers/STM32F4xx_HAL_Driver/Src/stm32f4xx_hal_tim.c ****   /* Check the parameters */
 464:Drivers/STM32F4xx_HAL_Driver/Src/stm32f4xx_hal_tim.c ****   assert_param(IS_TIM_INSTANCE(htim->Instance));
 465:Drivers/STM32F4xx_HAL_Driver/Src/stm32f4xx_hal_tim.c **** 
 466:Drivers/STM32F4xx_HAL_Driver/Src/stm32f4xx_hal_tim.c ****   /* Check the TIM state */
 467:Drivers/STM32F4xx_HAL_Driver/Src/stm32f4xx_hal_tim.c ****   if (htim->State != HAL_TIM_STATE_READY)
 561              		.loc 1 467 11
 562 0008 7B68     		ldr	r3, [r7, #4]
 563 000a 93F83D30 		ldrb	r3, [r3, #61]
 564 000e DBB2     		uxtb	r3, r3
 565              		.loc 1 467 6
 566 0010 012B     		cmp	r3, #1
 567 0012 01D0     		beq	.L23
 468:Drivers/STM32F4xx_HAL_Driver/Src/stm32f4xx_hal_tim.c ****   {
 469:Drivers/STM32F4xx_HAL_Driver/Src/stm32f4xx_hal_tim.c ****     return HAL_ERROR;
 568              		.loc 1 469 12
 569 0014 0123     		movs	r3, #1
ARM GAS  C:\Users\TGSPOC~1\AppData\Local\Temp\ccIyOLT8.s 			page 19


 570 0016 44E0     		b	.L24
 571              	.L23:
 470:Drivers/STM32F4xx_HAL_Driver/Src/stm32f4xx_hal_tim.c ****   }
 471:Drivers/STM32F4xx_HAL_Driver/Src/stm32f4xx_hal_tim.c **** 
 472:Drivers/STM32F4xx_HAL_Driver/Src/stm32f4xx_hal_tim.c ****   /* Set the TIM state */
 473:Drivers/STM32F4xx_HAL_Driver/Src/stm32f4xx_hal_tim.c ****   htim->State = HAL_TIM_STATE_BUSY;
 572              		.loc 1 473 15
 573 0018 7B68     		ldr	r3, [r7, #4]
 574 001a 0222     		movs	r2, #2
 575 001c 83F83D20 		strb	r2, [r3, #61]
 474:Drivers/STM32F4xx_HAL_Driver/Src/stm32f4xx_hal_tim.c **** 
 475:Drivers/STM32F4xx_HAL_Driver/Src/stm32f4xx_hal_tim.c ****   /* Enable the TIM Update interrupt */
 476:Drivers/STM32F4xx_HAL_Driver/Src/stm32f4xx_hal_tim.c ****   __HAL_TIM_ENABLE_IT(htim, TIM_IT_UPDATE);
 576              		.loc 1 476 3
 577 0020 7B68     		ldr	r3, [r7, #4]
 578 0022 1B68     		ldr	r3, [r3]
 579 0024 DA68     		ldr	r2, [r3, #12]
 580 0026 7B68     		ldr	r3, [r7, #4]
 581 0028 1B68     		ldr	r3, [r3]
 582 002a 42F00102 		orr	r2, r2, #1
 583 002e DA60     		str	r2, [r3, #12]
 477:Drivers/STM32F4xx_HAL_Driver/Src/stm32f4xx_hal_tim.c **** 
 478:Drivers/STM32F4xx_HAL_Driver/Src/stm32f4xx_hal_tim.c ****   /* Enable the Peripheral, except in trigger mode where enable is automatically done with trigger 
 479:Drivers/STM32F4xx_HAL_Driver/Src/stm32f4xx_hal_tim.c ****   if (IS_TIM_SLAVE_INSTANCE(htim->Instance))
 584              		.loc 1 479 7
 585 0030 7B68     		ldr	r3, [r7, #4]
 586 0032 1B68     		ldr	r3, [r3]
 587              		.loc 1 479 6
 588 0034 1E4A     		ldr	r2, .L29
 589 0036 9342     		cmp	r3, r2
 590 0038 18D0     		beq	.L25
 591              		.loc 1 479 7 discriminator 1
 592 003a 7B68     		ldr	r3, [r7, #4]
 593 003c 1B68     		ldr	r3, [r3]
 594 003e B3F1804F 		cmp	r3, #1073741824
 595 0042 13D0     		beq	.L25
 596              		.loc 1 479 7 is_stmt 0 discriminator 2
 597 0044 7B68     		ldr	r3, [r7, #4]
 598 0046 1B68     		ldr	r3, [r3]
 599 0048 1A4A     		ldr	r2, .L29+4
 600 004a 9342     		cmp	r3, r2
 601 004c 0ED0     		beq	.L25
 602              		.loc 1 479 7 discriminator 3
 603 004e 7B68     		ldr	r3, [r7, #4]
 604 0050 1B68     		ldr	r3, [r3]
 605 0052 194A     		ldr	r2, .L29+8
 606 0054 9342     		cmp	r3, r2
 607 0056 09D0     		beq	.L25
 608              		.loc 1 479 7 discriminator 4
 609 0058 7B68     		ldr	r3, [r7, #4]
 610 005a 1B68     		ldr	r3, [r3]
 611 005c 174A     		ldr	r2, .L29+12
 612 005e 9342     		cmp	r3, r2
 613 0060 04D0     		beq	.L25
 614              		.loc 1 479 7 discriminator 5
 615 0062 7B68     		ldr	r3, [r7, #4]
 616 0064 1B68     		ldr	r3, [r3]
ARM GAS  C:\Users\TGSPOC~1\AppData\Local\Temp\ccIyOLT8.s 			page 20


 617 0066 164A     		ldr	r2, .L29+16
 618 0068 9342     		cmp	r3, r2
 619 006a 11D1     		bne	.L26
 620              	.L25:
 480:Drivers/STM32F4xx_HAL_Driver/Src/stm32f4xx_hal_tim.c ****   {
 481:Drivers/STM32F4xx_HAL_Driver/Src/stm32f4xx_hal_tim.c ****     tmpsmcr = htim->Instance->SMCR & TIM_SMCR_SMS;
 621              		.loc 1 481 19 is_stmt 1
 622 006c 7B68     		ldr	r3, [r7, #4]
 623 006e 1B68     		ldr	r3, [r3]
 624              		.loc 1 481 29
 625 0070 9B68     		ldr	r3, [r3, #8]
 626              		.loc 1 481 13
 627 0072 03F00703 		and	r3, r3, #7
 628 0076 FB60     		str	r3, [r7, #12]
 482:Drivers/STM32F4xx_HAL_Driver/Src/stm32f4xx_hal_tim.c ****     if (!IS_TIM_SLAVEMODE_TRIGGER_ENABLED(tmpsmcr))
 629              		.loc 1 482 8
 630 0078 FB68     		ldr	r3, [r7, #12]
 631 007a 062B     		cmp	r3, #6
 632 007c 10D0     		beq	.L28
 483:Drivers/STM32F4xx_HAL_Driver/Src/stm32f4xx_hal_tim.c ****     {
 484:Drivers/STM32F4xx_HAL_Driver/Src/stm32f4xx_hal_tim.c ****       __HAL_TIM_ENABLE(htim);
 633              		.loc 1 484 7
 634 007e 7B68     		ldr	r3, [r7, #4]
 635 0080 1B68     		ldr	r3, [r3]
 636 0082 1A68     		ldr	r2, [r3]
 637 0084 7B68     		ldr	r3, [r7, #4]
 638 0086 1B68     		ldr	r3, [r3]
 639 0088 42F00102 		orr	r2, r2, #1
 640 008c 1A60     		str	r2, [r3]
 482:Drivers/STM32F4xx_HAL_Driver/Src/stm32f4xx_hal_tim.c ****     if (!IS_TIM_SLAVEMODE_TRIGGER_ENABLED(tmpsmcr))
 641              		.loc 1 482 8
 642 008e 07E0     		b	.L28
 643              	.L26:
 485:Drivers/STM32F4xx_HAL_Driver/Src/stm32f4xx_hal_tim.c ****     }
 486:Drivers/STM32F4xx_HAL_Driver/Src/stm32f4xx_hal_tim.c ****   }
 487:Drivers/STM32F4xx_HAL_Driver/Src/stm32f4xx_hal_tim.c ****   else
 488:Drivers/STM32F4xx_HAL_Driver/Src/stm32f4xx_hal_tim.c ****   {
 489:Drivers/STM32F4xx_HAL_Driver/Src/stm32f4xx_hal_tim.c ****     __HAL_TIM_ENABLE(htim);
 644              		.loc 1 489 5
 645 0090 7B68     		ldr	r3, [r7, #4]
 646 0092 1B68     		ldr	r3, [r3]
 647 0094 1A68     		ldr	r2, [r3]
 648 0096 7B68     		ldr	r3, [r7, #4]
 649 0098 1B68     		ldr	r3, [r3]
 650 009a 42F00102 		orr	r2, r2, #1
 651 009e 1A60     		str	r2, [r3]
 652              	.L28:
 490:Drivers/STM32F4xx_HAL_Driver/Src/stm32f4xx_hal_tim.c ****   }
 491:Drivers/STM32F4xx_HAL_Driver/Src/stm32f4xx_hal_tim.c **** 
 492:Drivers/STM32F4xx_HAL_Driver/Src/stm32f4xx_hal_tim.c ****   /* Return function status */
 493:Drivers/STM32F4xx_HAL_Driver/Src/stm32f4xx_hal_tim.c ****   return HAL_OK;
 653              		.loc 1 493 10
 654 00a0 0023     		movs	r3, #0
 655              	.L24:
 494:Drivers/STM32F4xx_HAL_Driver/Src/stm32f4xx_hal_tim.c **** }
 656              		.loc 1 494 1
 657 00a2 1846     		mov	r0, r3
ARM GAS  C:\Users\TGSPOC~1\AppData\Local\Temp\ccIyOLT8.s 			page 21


 658 00a4 1437     		adds	r7, r7, #20
 659              	.LCFI37:
 660              		.cfi_def_cfa_offset 4
 661 00a6 BD46     		mov	sp, r7
 662              	.LCFI38:
 663              		.cfi_def_cfa_register 13
 664              		@ sp needed
 665 00a8 5DF8047B 		ldr	r7, [sp], #4
 666              	.LCFI39:
 667              		.cfi_restore 7
 668              		.cfi_def_cfa_offset 0
 669 00ac 7047     		bx	lr
 670              	.L30:
 671 00ae 00BF     		.align	2
 672              	.L29:
 673 00b0 00000140 		.word	1073807360
 674 00b4 00040040 		.word	1073742848
 675 00b8 00080040 		.word	1073743872
 676 00bc 000C0040 		.word	1073744896
 677 00c0 00400140 		.word	1073823744
 678              		.cfi_endproc
 679              	.LFE140:
 681              		.section	.text.HAL_TIM_Base_Stop_IT,"ax",%progbits
 682              		.align	1
 683              		.global	HAL_TIM_Base_Stop_IT
 684              		.syntax unified
 685              		.thumb
 686              		.thumb_func
 688              	HAL_TIM_Base_Stop_IT:
 689              	.LFB141:
 495:Drivers/STM32F4xx_HAL_Driver/Src/stm32f4xx_hal_tim.c **** 
 496:Drivers/STM32F4xx_HAL_Driver/Src/stm32f4xx_hal_tim.c **** /**
 497:Drivers/STM32F4xx_HAL_Driver/Src/stm32f4xx_hal_tim.c ****   * @brief  Stops the TIM Base generation in interrupt mode.
 498:Drivers/STM32F4xx_HAL_Driver/Src/stm32f4xx_hal_tim.c ****   * @param  htim TIM Base handle
 499:Drivers/STM32F4xx_HAL_Driver/Src/stm32f4xx_hal_tim.c ****   * @retval HAL status
 500:Drivers/STM32F4xx_HAL_Driver/Src/stm32f4xx_hal_tim.c ****   */
 501:Drivers/STM32F4xx_HAL_Driver/Src/stm32f4xx_hal_tim.c **** HAL_StatusTypeDef HAL_TIM_Base_Stop_IT(TIM_HandleTypeDef *htim)
 502:Drivers/STM32F4xx_HAL_Driver/Src/stm32f4xx_hal_tim.c **** {
 690              		.loc 1 502 1
 691              		.cfi_startproc
 692              		@ args = 0, pretend = 0, frame = 8
 693              		@ frame_needed = 1, uses_anonymous_args = 0
 694              		@ link register save eliminated.
 695 0000 80B4     		push	{r7}
 696              	.LCFI40:
 697              		.cfi_def_cfa_offset 4
 698              		.cfi_offset 7, -4
 699 0002 83B0     		sub	sp, sp, #12
 700              	.LCFI41:
 701              		.cfi_def_cfa_offset 16
 702 0004 00AF     		add	r7, sp, #0
 703              	.LCFI42:
 704              		.cfi_def_cfa_register 7
 705 0006 7860     		str	r0, [r7, #4]
 503:Drivers/STM32F4xx_HAL_Driver/Src/stm32f4xx_hal_tim.c ****   /* Check the parameters */
 504:Drivers/STM32F4xx_HAL_Driver/Src/stm32f4xx_hal_tim.c ****   assert_param(IS_TIM_INSTANCE(htim->Instance));
 505:Drivers/STM32F4xx_HAL_Driver/Src/stm32f4xx_hal_tim.c **** 
ARM GAS  C:\Users\TGSPOC~1\AppData\Local\Temp\ccIyOLT8.s 			page 22


 506:Drivers/STM32F4xx_HAL_Driver/Src/stm32f4xx_hal_tim.c ****   /* Disable the TIM Update interrupt */
 507:Drivers/STM32F4xx_HAL_Driver/Src/stm32f4xx_hal_tim.c ****   __HAL_TIM_DISABLE_IT(htim, TIM_IT_UPDATE);
 706              		.loc 1 507 3
 707 0008 7B68     		ldr	r3, [r7, #4]
 708 000a 1B68     		ldr	r3, [r3]
 709 000c DA68     		ldr	r2, [r3, #12]
 710 000e 7B68     		ldr	r3, [r7, #4]
 711 0010 1B68     		ldr	r3, [r3]
 712 0012 22F00102 		bic	r2, r2, #1
 713 0016 DA60     		str	r2, [r3, #12]
 508:Drivers/STM32F4xx_HAL_Driver/Src/stm32f4xx_hal_tim.c **** 
 509:Drivers/STM32F4xx_HAL_Driver/Src/stm32f4xx_hal_tim.c ****   /* Disable the Peripheral */
 510:Drivers/STM32F4xx_HAL_Driver/Src/stm32f4xx_hal_tim.c ****   __HAL_TIM_DISABLE(htim);
 714              		.loc 1 510 3
 715 0018 7B68     		ldr	r3, [r7, #4]
 716 001a 1B68     		ldr	r3, [r3]
 717 001c 1A6A     		ldr	r2, [r3, #32]
 718 001e 41F21113 		movw	r3, #4369
 719 0022 1340     		ands	r3, r3, r2
 720 0024 002B     		cmp	r3, #0
 721 0026 0FD1     		bne	.L32
 722              		.loc 1 510 3 is_stmt 0 discriminator 1
 723 0028 7B68     		ldr	r3, [r7, #4]
 724 002a 1B68     		ldr	r3, [r3]
 725 002c 1A6A     		ldr	r2, [r3, #32]
 726 002e 40F24443 		movw	r3, #1092
 727 0032 1340     		ands	r3, r3, r2
 728 0034 002B     		cmp	r3, #0
 729 0036 07D1     		bne	.L32
 730              		.loc 1 510 3 discriminator 2
 731 0038 7B68     		ldr	r3, [r7, #4]
 732 003a 1B68     		ldr	r3, [r3]
 733 003c 1A68     		ldr	r2, [r3]
 734 003e 7B68     		ldr	r3, [r7, #4]
 735 0040 1B68     		ldr	r3, [r3]
 736 0042 22F00102 		bic	r2, r2, #1
 737 0046 1A60     		str	r2, [r3]
 738              	.L32:
 511:Drivers/STM32F4xx_HAL_Driver/Src/stm32f4xx_hal_tim.c **** 
 512:Drivers/STM32F4xx_HAL_Driver/Src/stm32f4xx_hal_tim.c ****   /* Set the TIM state */
 513:Drivers/STM32F4xx_HAL_Driver/Src/stm32f4xx_hal_tim.c ****   htim->State = HAL_TIM_STATE_READY;
 739              		.loc 1 513 15 is_stmt 1
 740 0048 7B68     		ldr	r3, [r7, #4]
 741 004a 0122     		movs	r2, #1
 742 004c 83F83D20 		strb	r2, [r3, #61]
 514:Drivers/STM32F4xx_HAL_Driver/Src/stm32f4xx_hal_tim.c **** 
 515:Drivers/STM32F4xx_HAL_Driver/Src/stm32f4xx_hal_tim.c ****   /* Return function status */
 516:Drivers/STM32F4xx_HAL_Driver/Src/stm32f4xx_hal_tim.c ****   return HAL_OK;
 743              		.loc 1 516 10
 744 0050 0023     		movs	r3, #0
 517:Drivers/STM32F4xx_HAL_Driver/Src/stm32f4xx_hal_tim.c **** }
 745              		.loc 1 517 1
 746 0052 1846     		mov	r0, r3
 747 0054 0C37     		adds	r7, r7, #12
 748              	.LCFI43:
 749              		.cfi_def_cfa_offset 4
 750 0056 BD46     		mov	sp, r7
ARM GAS  C:\Users\TGSPOC~1\AppData\Local\Temp\ccIyOLT8.s 			page 23


 751              	.LCFI44:
 752              		.cfi_def_cfa_register 13
 753              		@ sp needed
 754 0058 5DF8047B 		ldr	r7, [sp], #4
 755              	.LCFI45:
 756              		.cfi_restore 7
 757              		.cfi_def_cfa_offset 0
 758 005c 7047     		bx	lr
 759              		.cfi_endproc
 760              	.LFE141:
 762              		.section	.text.HAL_TIM_Base_Start_DMA,"ax",%progbits
 763              		.align	1
 764              		.global	HAL_TIM_Base_Start_DMA
 765              		.syntax unified
 766              		.thumb
 767              		.thumb_func
 769              	HAL_TIM_Base_Start_DMA:
 770              	.LFB142:
 518:Drivers/STM32F4xx_HAL_Driver/Src/stm32f4xx_hal_tim.c **** 
 519:Drivers/STM32F4xx_HAL_Driver/Src/stm32f4xx_hal_tim.c **** /**
 520:Drivers/STM32F4xx_HAL_Driver/Src/stm32f4xx_hal_tim.c ****   * @brief  Starts the TIM Base generation in DMA mode.
 521:Drivers/STM32F4xx_HAL_Driver/Src/stm32f4xx_hal_tim.c ****   * @param  htim TIM Base handle
 522:Drivers/STM32F4xx_HAL_Driver/Src/stm32f4xx_hal_tim.c ****   * @param  pData The source Buffer address.
 523:Drivers/STM32F4xx_HAL_Driver/Src/stm32f4xx_hal_tim.c ****   * @param  Length The length of data to be transferred from memory to peripheral.
 524:Drivers/STM32F4xx_HAL_Driver/Src/stm32f4xx_hal_tim.c ****   * @retval HAL status
 525:Drivers/STM32F4xx_HAL_Driver/Src/stm32f4xx_hal_tim.c ****   */
 526:Drivers/STM32F4xx_HAL_Driver/Src/stm32f4xx_hal_tim.c **** HAL_StatusTypeDef HAL_TIM_Base_Start_DMA(TIM_HandleTypeDef *htim, const uint32_t *pData, uint16_t L
 527:Drivers/STM32F4xx_HAL_Driver/Src/stm32f4xx_hal_tim.c **** {
 771              		.loc 1 527 1
 772              		.cfi_startproc
 773              		@ args = 0, pretend = 0, frame = 24
 774              		@ frame_needed = 1, uses_anonymous_args = 0
 775 0000 80B5     		push	{r7, lr}
 776              	.LCFI46:
 777              		.cfi_def_cfa_offset 8
 778              		.cfi_offset 7, -8
 779              		.cfi_offset 14, -4
 780 0002 86B0     		sub	sp, sp, #24
 781              	.LCFI47:
 782              		.cfi_def_cfa_offset 32
 783 0004 00AF     		add	r7, sp, #0
 784              	.LCFI48:
 785              		.cfi_def_cfa_register 7
 786 0006 F860     		str	r0, [r7, #12]
 787 0008 B960     		str	r1, [r7, #8]
 788 000a 1346     		mov	r3, r2
 789 000c FB80     		strh	r3, [r7, #6]	@ movhi
 528:Drivers/STM32F4xx_HAL_Driver/Src/stm32f4xx_hal_tim.c ****   uint32_t tmpsmcr;
 529:Drivers/STM32F4xx_HAL_Driver/Src/stm32f4xx_hal_tim.c **** 
 530:Drivers/STM32F4xx_HAL_Driver/Src/stm32f4xx_hal_tim.c ****   /* Check the parameters */
 531:Drivers/STM32F4xx_HAL_Driver/Src/stm32f4xx_hal_tim.c ****   assert_param(IS_TIM_DMA_INSTANCE(htim->Instance));
 532:Drivers/STM32F4xx_HAL_Driver/Src/stm32f4xx_hal_tim.c **** 
 533:Drivers/STM32F4xx_HAL_Driver/Src/stm32f4xx_hal_tim.c ****   /* Set the TIM state */
 534:Drivers/STM32F4xx_HAL_Driver/Src/stm32f4xx_hal_tim.c ****   if (htim->State == HAL_TIM_STATE_BUSY)
 790              		.loc 1 534 11
 791 000e FB68     		ldr	r3, [r7, #12]
 792 0010 93F83D30 		ldrb	r3, [r3, #61]
ARM GAS  C:\Users\TGSPOC~1\AppData\Local\Temp\ccIyOLT8.s 			page 24


 793 0014 DBB2     		uxtb	r3, r3
 794              		.loc 1 534 6
 795 0016 022B     		cmp	r3, #2
 796 0018 01D1     		bne	.L35
 535:Drivers/STM32F4xx_HAL_Driver/Src/stm32f4xx_hal_tim.c ****   {
 536:Drivers/STM32F4xx_HAL_Driver/Src/stm32f4xx_hal_tim.c ****     return HAL_BUSY;
 797              		.loc 1 536 12
 798 001a 0223     		movs	r3, #2
 799 001c 70E0     		b	.L36
 800              	.L35:
 537:Drivers/STM32F4xx_HAL_Driver/Src/stm32f4xx_hal_tim.c ****   }
 538:Drivers/STM32F4xx_HAL_Driver/Src/stm32f4xx_hal_tim.c ****   else if (htim->State == HAL_TIM_STATE_READY)
 801              		.loc 1 538 16
 802 001e FB68     		ldr	r3, [r7, #12]
 803 0020 93F83D30 		ldrb	r3, [r3, #61]
 804 0024 DBB2     		uxtb	r3, r3
 805              		.loc 1 538 11
 806 0026 012B     		cmp	r3, #1
 807 0028 25D1     		bne	.L37
 539:Drivers/STM32F4xx_HAL_Driver/Src/stm32f4xx_hal_tim.c ****   {
 540:Drivers/STM32F4xx_HAL_Driver/Src/stm32f4xx_hal_tim.c ****     if ((pData == NULL) || (Length == 0U))
 808              		.loc 1 540 8
 809 002a BB68     		ldr	r3, [r7, #8]
 810 002c 002B     		cmp	r3, #0
 811 002e 02D0     		beq	.L38
 812              		.loc 1 540 25 discriminator 1
 813 0030 FB88     		ldrh	r3, [r7, #6]
 814 0032 002B     		cmp	r3, #0
 815 0034 01D1     		bne	.L39
 816              	.L38:
 541:Drivers/STM32F4xx_HAL_Driver/Src/stm32f4xx_hal_tim.c ****     {
 542:Drivers/STM32F4xx_HAL_Driver/Src/stm32f4xx_hal_tim.c ****       return HAL_ERROR;
 817              		.loc 1 542 14
 818 0036 0123     		movs	r3, #1
 819 0038 62E0     		b	.L36
 820              	.L39:
 543:Drivers/STM32F4xx_HAL_Driver/Src/stm32f4xx_hal_tim.c ****     }
 544:Drivers/STM32F4xx_HAL_Driver/Src/stm32f4xx_hal_tim.c ****     else
 545:Drivers/STM32F4xx_HAL_Driver/Src/stm32f4xx_hal_tim.c ****     {
 546:Drivers/STM32F4xx_HAL_Driver/Src/stm32f4xx_hal_tim.c ****       htim->State = HAL_TIM_STATE_BUSY;
 821              		.loc 1 546 19
 822 003a FB68     		ldr	r3, [r7, #12]
 823 003c 0222     		movs	r2, #2
 824 003e 83F83D20 		strb	r2, [r3, #61]
 547:Drivers/STM32F4xx_HAL_Driver/Src/stm32f4xx_hal_tim.c ****     }
 548:Drivers/STM32F4xx_HAL_Driver/Src/stm32f4xx_hal_tim.c ****   }
 549:Drivers/STM32F4xx_HAL_Driver/Src/stm32f4xx_hal_tim.c ****   else
 550:Drivers/STM32F4xx_HAL_Driver/Src/stm32f4xx_hal_tim.c ****   {
 551:Drivers/STM32F4xx_HAL_Driver/Src/stm32f4xx_hal_tim.c ****     return HAL_ERROR;
 552:Drivers/STM32F4xx_HAL_Driver/Src/stm32f4xx_hal_tim.c ****   }
 553:Drivers/STM32F4xx_HAL_Driver/Src/stm32f4xx_hal_tim.c **** 
 554:Drivers/STM32F4xx_HAL_Driver/Src/stm32f4xx_hal_tim.c ****   /* Set the DMA Period elapsed callbacks */
 555:Drivers/STM32F4xx_HAL_Driver/Src/stm32f4xx_hal_tim.c ****   htim->hdma[TIM_DMA_ID_UPDATE]->XferCpltCallback = TIM_DMAPeriodElapsedCplt;
 825              		.loc 1 555 13
 826 0042 FB68     		ldr	r3, [r7, #12]
 827 0044 1B6A     		ldr	r3, [r3, #32]
 828              		.loc 1 555 51
ARM GAS  C:\Users\TGSPOC~1\AppData\Local\Temp\ccIyOLT8.s 			page 25


 829 0046 304A     		ldr	r2, .L47
 830 0048 DA63     		str	r2, [r3, #60]
 556:Drivers/STM32F4xx_HAL_Driver/Src/stm32f4xx_hal_tim.c ****   htim->hdma[TIM_DMA_ID_UPDATE]->XferHalfCpltCallback = TIM_DMAPeriodElapsedHalfCplt;
 831              		.loc 1 556 13
 832 004a FB68     		ldr	r3, [r7, #12]
 833 004c 1B6A     		ldr	r3, [r3, #32]
 834              		.loc 1 556 55
 835 004e 2F4A     		ldr	r2, .L47+4
 836 0050 1A64     		str	r2, [r3, #64]
 557:Drivers/STM32F4xx_HAL_Driver/Src/stm32f4xx_hal_tim.c **** 
 558:Drivers/STM32F4xx_HAL_Driver/Src/stm32f4xx_hal_tim.c ****   /* Set the DMA error callback */
 559:Drivers/STM32F4xx_HAL_Driver/Src/stm32f4xx_hal_tim.c ****   htim->hdma[TIM_DMA_ID_UPDATE]->XferErrorCallback = TIM_DMAError ;
 837              		.loc 1 559 13
 838 0052 FB68     		ldr	r3, [r7, #12]
 839 0054 1B6A     		ldr	r3, [r3, #32]
 840              		.loc 1 559 52
 841 0056 2E4A     		ldr	r2, .L47+8
 842 0058 DA64     		str	r2, [r3, #76]
 560:Drivers/STM32F4xx_HAL_Driver/Src/stm32f4xx_hal_tim.c **** 
 561:Drivers/STM32F4xx_HAL_Driver/Src/stm32f4xx_hal_tim.c ****   /* Enable the DMA stream */
 562:Drivers/STM32F4xx_HAL_Driver/Src/stm32f4xx_hal_tim.c ****   if (HAL_DMA_Start_IT(htim->hdma[TIM_DMA_ID_UPDATE], (uint32_t)pData, (uint32_t)&htim->Instance->A
 843              		.loc 1 562 7
 844 005a FB68     		ldr	r3, [r7, #12]
 845 005c 186A     		ldr	r0, [r3, #32]
 846 005e B968     		ldr	r1, [r7, #8]
 847              		.loc 1 562 87
 848 0060 FB68     		ldr	r3, [r7, #12]
 849 0062 1B68     		ldr	r3, [r3]
 850              		.loc 1 562 82
 851 0064 2C33     		adds	r3, r3, #44
 852              		.loc 1 562 7
 853 0066 1A46     		mov	r2, r3
 854 0068 FB88     		ldrh	r3, [r7, #6]
 855 006a FFF7FEFF 		bl	HAL_DMA_Start_IT
 856 006e 0346     		mov	r3, r0
 857              		.loc 1 562 6 discriminator 1
 858 0070 002B     		cmp	r3, #0
 859 0072 04D0     		beq	.L41
 860 0074 01E0     		b	.L46
 861              	.L37:
 551:Drivers/STM32F4xx_HAL_Driver/Src/stm32f4xx_hal_tim.c ****   }
 862              		.loc 1 551 12
 863 0076 0123     		movs	r3, #1
 864 0078 42E0     		b	.L36
 865              	.L46:
 563:Drivers/STM32F4xx_HAL_Driver/Src/stm32f4xx_hal_tim.c ****                        Length) != HAL_OK)
 564:Drivers/STM32F4xx_HAL_Driver/Src/stm32f4xx_hal_tim.c ****   {
 565:Drivers/STM32F4xx_HAL_Driver/Src/stm32f4xx_hal_tim.c ****     /* Return error status */
 566:Drivers/STM32F4xx_HAL_Driver/Src/stm32f4xx_hal_tim.c ****     return HAL_ERROR;
 866              		.loc 1 566 12
 867 007a 0123     		movs	r3, #1
 868 007c 40E0     		b	.L36
 869              	.L41:
 567:Drivers/STM32F4xx_HAL_Driver/Src/stm32f4xx_hal_tim.c ****   }
 568:Drivers/STM32F4xx_HAL_Driver/Src/stm32f4xx_hal_tim.c **** 
 569:Drivers/STM32F4xx_HAL_Driver/Src/stm32f4xx_hal_tim.c ****   /* Enable the TIM Update DMA request */
 570:Drivers/STM32F4xx_HAL_Driver/Src/stm32f4xx_hal_tim.c ****   __HAL_TIM_ENABLE_DMA(htim, TIM_DMA_UPDATE);
ARM GAS  C:\Users\TGSPOC~1\AppData\Local\Temp\ccIyOLT8.s 			page 26


 870              		.loc 1 570 3
 871 007e FB68     		ldr	r3, [r7, #12]
 872 0080 1B68     		ldr	r3, [r3]
 873 0082 DA68     		ldr	r2, [r3, #12]
 874 0084 FB68     		ldr	r3, [r7, #12]
 875 0086 1B68     		ldr	r3, [r3]
 876 0088 42F48072 		orr	r2, r2, #256
 877 008c DA60     		str	r2, [r3, #12]
 571:Drivers/STM32F4xx_HAL_Driver/Src/stm32f4xx_hal_tim.c **** 
 572:Drivers/STM32F4xx_HAL_Driver/Src/stm32f4xx_hal_tim.c ****   /* Enable the Peripheral, except in trigger mode where enable is automatically done with trigger 
 573:Drivers/STM32F4xx_HAL_Driver/Src/stm32f4xx_hal_tim.c ****   if (IS_TIM_SLAVE_INSTANCE(htim->Instance))
 878              		.loc 1 573 7
 879 008e FB68     		ldr	r3, [r7, #12]
 880 0090 1B68     		ldr	r3, [r3]
 881              		.loc 1 573 6
 882 0092 204A     		ldr	r2, .L47+12
 883 0094 9342     		cmp	r3, r2
 884 0096 18D0     		beq	.L42
 885              		.loc 1 573 7 discriminator 1
 886 0098 FB68     		ldr	r3, [r7, #12]
 887 009a 1B68     		ldr	r3, [r3]
 888 009c B3F1804F 		cmp	r3, #1073741824
 889 00a0 13D0     		beq	.L42
 890              		.loc 1 573 7 is_stmt 0 discriminator 2
 891 00a2 FB68     		ldr	r3, [r7, #12]
 892 00a4 1B68     		ldr	r3, [r3]
 893 00a6 1C4A     		ldr	r2, .L47+16
 894 00a8 9342     		cmp	r3, r2
 895 00aa 0ED0     		beq	.L42
 896              		.loc 1 573 7 discriminator 3
 897 00ac FB68     		ldr	r3, [r7, #12]
 898 00ae 1B68     		ldr	r3, [r3]
 899 00b0 1A4A     		ldr	r2, .L47+20
 900 00b2 9342     		cmp	r3, r2
 901 00b4 09D0     		beq	.L42
 902              		.loc 1 573 7 discriminator 4
 903 00b6 FB68     		ldr	r3, [r7, #12]
 904 00b8 1B68     		ldr	r3, [r3]
 905 00ba 194A     		ldr	r2, .L47+24
 906 00bc 9342     		cmp	r3, r2
 907 00be 04D0     		beq	.L42
 908              		.loc 1 573 7 discriminator 5
 909 00c0 FB68     		ldr	r3, [r7, #12]
 910 00c2 1B68     		ldr	r3, [r3]
 911 00c4 174A     		ldr	r2, .L47+28
 912 00c6 9342     		cmp	r3, r2
 913 00c8 11D1     		bne	.L43
 914              	.L42:
 574:Drivers/STM32F4xx_HAL_Driver/Src/stm32f4xx_hal_tim.c ****   {
 575:Drivers/STM32F4xx_HAL_Driver/Src/stm32f4xx_hal_tim.c ****     tmpsmcr = htim->Instance->SMCR & TIM_SMCR_SMS;
 915              		.loc 1 575 19 is_stmt 1
 916 00ca FB68     		ldr	r3, [r7, #12]
 917 00cc 1B68     		ldr	r3, [r3]
 918              		.loc 1 575 29
 919 00ce 9B68     		ldr	r3, [r3, #8]
 920              		.loc 1 575 13
 921 00d0 03F00703 		and	r3, r3, #7
ARM GAS  C:\Users\TGSPOC~1\AppData\Local\Temp\ccIyOLT8.s 			page 27


 922 00d4 7B61     		str	r3, [r7, #20]
 576:Drivers/STM32F4xx_HAL_Driver/Src/stm32f4xx_hal_tim.c ****     if (!IS_TIM_SLAVEMODE_TRIGGER_ENABLED(tmpsmcr))
 923              		.loc 1 576 8
 924 00d6 7B69     		ldr	r3, [r7, #20]
 925 00d8 062B     		cmp	r3, #6
 926 00da 10D0     		beq	.L45
 577:Drivers/STM32F4xx_HAL_Driver/Src/stm32f4xx_hal_tim.c ****     {
 578:Drivers/STM32F4xx_HAL_Driver/Src/stm32f4xx_hal_tim.c ****       __HAL_TIM_ENABLE(htim);
 927              		.loc 1 578 7
 928 00dc FB68     		ldr	r3, [r7, #12]
 929 00de 1B68     		ldr	r3, [r3]
 930 00e0 1A68     		ldr	r2, [r3]
 931 00e2 FB68     		ldr	r3, [r7, #12]
 932 00e4 1B68     		ldr	r3, [r3]
 933 00e6 42F00102 		orr	r2, r2, #1
 934 00ea 1A60     		str	r2, [r3]
 576:Drivers/STM32F4xx_HAL_Driver/Src/stm32f4xx_hal_tim.c ****     if (!IS_TIM_SLAVEMODE_TRIGGER_ENABLED(tmpsmcr))
 935              		.loc 1 576 8
 936 00ec 07E0     		b	.L45
 937              	.L43:
 579:Drivers/STM32F4xx_HAL_Driver/Src/stm32f4xx_hal_tim.c ****     }
 580:Drivers/STM32F4xx_HAL_Driver/Src/stm32f4xx_hal_tim.c ****   }
 581:Drivers/STM32F4xx_HAL_Driver/Src/stm32f4xx_hal_tim.c ****   else
 582:Drivers/STM32F4xx_HAL_Driver/Src/stm32f4xx_hal_tim.c ****   {
 583:Drivers/STM32F4xx_HAL_Driver/Src/stm32f4xx_hal_tim.c ****     __HAL_TIM_ENABLE(htim);
 938              		.loc 1 583 5
 939 00ee FB68     		ldr	r3, [r7, #12]
 940 00f0 1B68     		ldr	r3, [r3]
 941 00f2 1A68     		ldr	r2, [r3]
 942 00f4 FB68     		ldr	r3, [r7, #12]
 943 00f6 1B68     		ldr	r3, [r3]
 944 00f8 42F00102 		orr	r2, r2, #1
 945 00fc 1A60     		str	r2, [r3]
 946              	.L45:
 584:Drivers/STM32F4xx_HAL_Driver/Src/stm32f4xx_hal_tim.c ****   }
 585:Drivers/STM32F4xx_HAL_Driver/Src/stm32f4xx_hal_tim.c **** 
 586:Drivers/STM32F4xx_HAL_Driver/Src/stm32f4xx_hal_tim.c ****   /* Return function status */
 587:Drivers/STM32F4xx_HAL_Driver/Src/stm32f4xx_hal_tim.c ****   return HAL_OK;
 947              		.loc 1 587 10
 948 00fe 0023     		movs	r3, #0
 949              	.L36:
 588:Drivers/STM32F4xx_HAL_Driver/Src/stm32f4xx_hal_tim.c **** }
 950              		.loc 1 588 1
 951 0100 1846     		mov	r0, r3
 952 0102 1837     		adds	r7, r7, #24
 953              	.LCFI49:
 954              		.cfi_def_cfa_offset 8
 955 0104 BD46     		mov	sp, r7
 956              	.LCFI50:
 957              		.cfi_def_cfa_register 13
 958              		@ sp needed
 959 0106 80BD     		pop	{r7, pc}
 960              	.L48:
 961              		.align	2
 962              	.L47:
 963 0108 00000000 		.word	TIM_DMAPeriodElapsedCplt
 964 010c 00000000 		.word	TIM_DMAPeriodElapsedHalfCplt
ARM GAS  C:\Users\TGSPOC~1\AppData\Local\Temp\ccIyOLT8.s 			page 28


 965 0110 00000000 		.word	TIM_DMAError
 966 0114 00000140 		.word	1073807360
 967 0118 00040040 		.word	1073742848
 968 011c 00080040 		.word	1073743872
 969 0120 000C0040 		.word	1073744896
 970 0124 00400140 		.word	1073823744
 971              		.cfi_endproc
 972              	.LFE142:
 974              		.section	.text.HAL_TIM_Base_Stop_DMA,"ax",%progbits
 975              		.align	1
 976              		.global	HAL_TIM_Base_Stop_DMA
 977              		.syntax unified
 978              		.thumb
 979              		.thumb_func
 981              	HAL_TIM_Base_Stop_DMA:
 982              	.LFB143:
 589:Drivers/STM32F4xx_HAL_Driver/Src/stm32f4xx_hal_tim.c **** 
 590:Drivers/STM32F4xx_HAL_Driver/Src/stm32f4xx_hal_tim.c **** /**
 591:Drivers/STM32F4xx_HAL_Driver/Src/stm32f4xx_hal_tim.c ****   * @brief  Stops the TIM Base generation in DMA mode.
 592:Drivers/STM32F4xx_HAL_Driver/Src/stm32f4xx_hal_tim.c ****   * @param  htim TIM Base handle
 593:Drivers/STM32F4xx_HAL_Driver/Src/stm32f4xx_hal_tim.c ****   * @retval HAL status
 594:Drivers/STM32F4xx_HAL_Driver/Src/stm32f4xx_hal_tim.c ****   */
 595:Drivers/STM32F4xx_HAL_Driver/Src/stm32f4xx_hal_tim.c **** HAL_StatusTypeDef HAL_TIM_Base_Stop_DMA(TIM_HandleTypeDef *htim)
 596:Drivers/STM32F4xx_HAL_Driver/Src/stm32f4xx_hal_tim.c **** {
 983              		.loc 1 596 1
 984              		.cfi_startproc
 985              		@ args = 0, pretend = 0, frame = 8
 986              		@ frame_needed = 1, uses_anonymous_args = 0
 987 0000 80B5     		push	{r7, lr}
 988              	.LCFI51:
 989              		.cfi_def_cfa_offset 8
 990              		.cfi_offset 7, -8
 991              		.cfi_offset 14, -4
 992 0002 82B0     		sub	sp, sp, #8
 993              	.LCFI52:
 994              		.cfi_def_cfa_offset 16
 995 0004 00AF     		add	r7, sp, #0
 996              	.LCFI53:
 997              		.cfi_def_cfa_register 7
 998 0006 7860     		str	r0, [r7, #4]
 597:Drivers/STM32F4xx_HAL_Driver/Src/stm32f4xx_hal_tim.c ****   /* Check the parameters */
 598:Drivers/STM32F4xx_HAL_Driver/Src/stm32f4xx_hal_tim.c ****   assert_param(IS_TIM_DMA_INSTANCE(htim->Instance));
 599:Drivers/STM32F4xx_HAL_Driver/Src/stm32f4xx_hal_tim.c **** 
 600:Drivers/STM32F4xx_HAL_Driver/Src/stm32f4xx_hal_tim.c ****   /* Disable the TIM Update DMA request */
 601:Drivers/STM32F4xx_HAL_Driver/Src/stm32f4xx_hal_tim.c ****   __HAL_TIM_DISABLE_DMA(htim, TIM_DMA_UPDATE);
 999              		.loc 1 601 3
 1000 0008 7B68     		ldr	r3, [r7, #4]
 1001 000a 1B68     		ldr	r3, [r3]
 1002 000c DA68     		ldr	r2, [r3, #12]
 1003 000e 7B68     		ldr	r3, [r7, #4]
 1004 0010 1B68     		ldr	r3, [r3]
 1005 0012 22F48072 		bic	r2, r2, #256
 1006 0016 DA60     		str	r2, [r3, #12]
 602:Drivers/STM32F4xx_HAL_Driver/Src/stm32f4xx_hal_tim.c **** 
 603:Drivers/STM32F4xx_HAL_Driver/Src/stm32f4xx_hal_tim.c ****   (void)HAL_DMA_Abort_IT(htim->hdma[TIM_DMA_ID_UPDATE]);
 1007              		.loc 1 603 9
 1008 0018 7B68     		ldr	r3, [r7, #4]
ARM GAS  C:\Users\TGSPOC~1\AppData\Local\Temp\ccIyOLT8.s 			page 29


 1009 001a 1B6A     		ldr	r3, [r3, #32]
 1010 001c 1846     		mov	r0, r3
 1011 001e FFF7FEFF 		bl	HAL_DMA_Abort_IT
 604:Drivers/STM32F4xx_HAL_Driver/Src/stm32f4xx_hal_tim.c **** 
 605:Drivers/STM32F4xx_HAL_Driver/Src/stm32f4xx_hal_tim.c ****   /* Disable the Peripheral */
 606:Drivers/STM32F4xx_HAL_Driver/Src/stm32f4xx_hal_tim.c ****   __HAL_TIM_DISABLE(htim);
 1012              		.loc 1 606 3
 1013 0022 7B68     		ldr	r3, [r7, #4]
 1014 0024 1B68     		ldr	r3, [r3]
 1015 0026 1A6A     		ldr	r2, [r3, #32]
 1016 0028 41F21113 		movw	r3, #4369
 1017 002c 1340     		ands	r3, r3, r2
 1018 002e 002B     		cmp	r3, #0
 1019 0030 0FD1     		bne	.L50
 1020              		.loc 1 606 3 is_stmt 0 discriminator 1
 1021 0032 7B68     		ldr	r3, [r7, #4]
 1022 0034 1B68     		ldr	r3, [r3]
 1023 0036 1A6A     		ldr	r2, [r3, #32]
 1024 0038 40F24443 		movw	r3, #1092
 1025 003c 1340     		ands	r3, r3, r2
 1026 003e 002B     		cmp	r3, #0
 1027 0040 07D1     		bne	.L50
 1028              		.loc 1 606 3 discriminator 2
 1029 0042 7B68     		ldr	r3, [r7, #4]
 1030 0044 1B68     		ldr	r3, [r3]
 1031 0046 1A68     		ldr	r2, [r3]
 1032 0048 7B68     		ldr	r3, [r7, #4]
 1033 004a 1B68     		ldr	r3, [r3]
 1034 004c 22F00102 		bic	r2, r2, #1
 1035 0050 1A60     		str	r2, [r3]
 1036              	.L50:
 607:Drivers/STM32F4xx_HAL_Driver/Src/stm32f4xx_hal_tim.c **** 
 608:Drivers/STM32F4xx_HAL_Driver/Src/stm32f4xx_hal_tim.c ****   /* Set the TIM state */
 609:Drivers/STM32F4xx_HAL_Driver/Src/stm32f4xx_hal_tim.c ****   htim->State = HAL_TIM_STATE_READY;
 1037              		.loc 1 609 15 is_stmt 1
 1038 0052 7B68     		ldr	r3, [r7, #4]
 1039 0054 0122     		movs	r2, #1
 1040 0056 83F83D20 		strb	r2, [r3, #61]
 610:Drivers/STM32F4xx_HAL_Driver/Src/stm32f4xx_hal_tim.c **** 
 611:Drivers/STM32F4xx_HAL_Driver/Src/stm32f4xx_hal_tim.c ****   /* Return function status */
 612:Drivers/STM32F4xx_HAL_Driver/Src/stm32f4xx_hal_tim.c ****   return HAL_OK;
 1041              		.loc 1 612 10
 1042 005a 0023     		movs	r3, #0
 613:Drivers/STM32F4xx_HAL_Driver/Src/stm32f4xx_hal_tim.c **** }
 1043              		.loc 1 613 1
 1044 005c 1846     		mov	r0, r3
 1045 005e 0837     		adds	r7, r7, #8
 1046              	.LCFI54:
 1047              		.cfi_def_cfa_offset 8
 1048 0060 BD46     		mov	sp, r7
 1049              	.LCFI55:
 1050              		.cfi_def_cfa_register 13
 1051              		@ sp needed
 1052 0062 80BD     		pop	{r7, pc}
 1053              		.cfi_endproc
 1054              	.LFE143:
 1056              		.section	.text.HAL_TIM_OC_Init,"ax",%progbits
ARM GAS  C:\Users\TGSPOC~1\AppData\Local\Temp\ccIyOLT8.s 			page 30


 1057              		.align	1
 1058              		.global	HAL_TIM_OC_Init
 1059              		.syntax unified
 1060              		.thumb
 1061              		.thumb_func
 1063              	HAL_TIM_OC_Init:
 1064              	.LFB144:
 614:Drivers/STM32F4xx_HAL_Driver/Src/stm32f4xx_hal_tim.c **** 
 615:Drivers/STM32F4xx_HAL_Driver/Src/stm32f4xx_hal_tim.c **** /**
 616:Drivers/STM32F4xx_HAL_Driver/Src/stm32f4xx_hal_tim.c ****   * @}
 617:Drivers/STM32F4xx_HAL_Driver/Src/stm32f4xx_hal_tim.c ****   */
 618:Drivers/STM32F4xx_HAL_Driver/Src/stm32f4xx_hal_tim.c **** 
 619:Drivers/STM32F4xx_HAL_Driver/Src/stm32f4xx_hal_tim.c **** /** @defgroup TIM_Exported_Functions_Group2 TIM Output Compare functions
 620:Drivers/STM32F4xx_HAL_Driver/Src/stm32f4xx_hal_tim.c ****   *  @brief    TIM Output Compare functions
 621:Drivers/STM32F4xx_HAL_Driver/Src/stm32f4xx_hal_tim.c ****   *
 622:Drivers/STM32F4xx_HAL_Driver/Src/stm32f4xx_hal_tim.c **** @verbatim
 623:Drivers/STM32F4xx_HAL_Driver/Src/stm32f4xx_hal_tim.c ****   ==============================================================================
 624:Drivers/STM32F4xx_HAL_Driver/Src/stm32f4xx_hal_tim.c ****                   ##### TIM Output Compare functions #####
 625:Drivers/STM32F4xx_HAL_Driver/Src/stm32f4xx_hal_tim.c ****   ==============================================================================
 626:Drivers/STM32F4xx_HAL_Driver/Src/stm32f4xx_hal_tim.c ****   [..]
 627:Drivers/STM32F4xx_HAL_Driver/Src/stm32f4xx_hal_tim.c ****     This section provides functions allowing to:
 628:Drivers/STM32F4xx_HAL_Driver/Src/stm32f4xx_hal_tim.c ****     (+) Initialize and configure the TIM Output Compare.
 629:Drivers/STM32F4xx_HAL_Driver/Src/stm32f4xx_hal_tim.c ****     (+) De-initialize the TIM Output Compare.
 630:Drivers/STM32F4xx_HAL_Driver/Src/stm32f4xx_hal_tim.c ****     (+) Start the TIM Output Compare.
 631:Drivers/STM32F4xx_HAL_Driver/Src/stm32f4xx_hal_tim.c ****     (+) Stop the TIM Output Compare.
 632:Drivers/STM32F4xx_HAL_Driver/Src/stm32f4xx_hal_tim.c ****     (+) Start the TIM Output Compare and enable interrupt.
 633:Drivers/STM32F4xx_HAL_Driver/Src/stm32f4xx_hal_tim.c ****     (+) Stop the TIM Output Compare and disable interrupt.
 634:Drivers/STM32F4xx_HAL_Driver/Src/stm32f4xx_hal_tim.c ****     (+) Start the TIM Output Compare and enable DMA transfer.
 635:Drivers/STM32F4xx_HAL_Driver/Src/stm32f4xx_hal_tim.c ****     (+) Stop the TIM Output Compare and disable DMA transfer.
 636:Drivers/STM32F4xx_HAL_Driver/Src/stm32f4xx_hal_tim.c **** 
 637:Drivers/STM32F4xx_HAL_Driver/Src/stm32f4xx_hal_tim.c **** @endverbatim
 638:Drivers/STM32F4xx_HAL_Driver/Src/stm32f4xx_hal_tim.c ****   * @{
 639:Drivers/STM32F4xx_HAL_Driver/Src/stm32f4xx_hal_tim.c ****   */
 640:Drivers/STM32F4xx_HAL_Driver/Src/stm32f4xx_hal_tim.c **** /**
 641:Drivers/STM32F4xx_HAL_Driver/Src/stm32f4xx_hal_tim.c ****   * @brief  Initializes the TIM Output Compare according to the specified
 642:Drivers/STM32F4xx_HAL_Driver/Src/stm32f4xx_hal_tim.c ****   *         parameters in the TIM_HandleTypeDef and initializes the associated handle.
 643:Drivers/STM32F4xx_HAL_Driver/Src/stm32f4xx_hal_tim.c ****   * @note   Switching from Center Aligned counter mode to Edge counter mode (or reverse)
 644:Drivers/STM32F4xx_HAL_Driver/Src/stm32f4xx_hal_tim.c ****   *         requires a timer reset to avoid unexpected direction
 645:Drivers/STM32F4xx_HAL_Driver/Src/stm32f4xx_hal_tim.c ****   *         due to DIR bit readonly in center aligned mode.
 646:Drivers/STM32F4xx_HAL_Driver/Src/stm32f4xx_hal_tim.c ****   *         Ex: call @ref HAL_TIM_OC_DeInit() before HAL_TIM_OC_Init()
 647:Drivers/STM32F4xx_HAL_Driver/Src/stm32f4xx_hal_tim.c ****   * @param  htim TIM Output Compare handle
 648:Drivers/STM32F4xx_HAL_Driver/Src/stm32f4xx_hal_tim.c ****   * @retval HAL status
 649:Drivers/STM32F4xx_HAL_Driver/Src/stm32f4xx_hal_tim.c ****   */
 650:Drivers/STM32F4xx_HAL_Driver/Src/stm32f4xx_hal_tim.c **** HAL_StatusTypeDef HAL_TIM_OC_Init(TIM_HandleTypeDef *htim)
 651:Drivers/STM32F4xx_HAL_Driver/Src/stm32f4xx_hal_tim.c **** {
 1065              		.loc 1 651 1
 1066              		.cfi_startproc
 1067              		@ args = 0, pretend = 0, frame = 8
 1068              		@ frame_needed = 1, uses_anonymous_args = 0
 1069 0000 80B5     		push	{r7, lr}
 1070              	.LCFI56:
 1071              		.cfi_def_cfa_offset 8
 1072              		.cfi_offset 7, -8
 1073              		.cfi_offset 14, -4
 1074 0002 82B0     		sub	sp, sp, #8
 1075              	.LCFI57:
 1076              		.cfi_def_cfa_offset 16
ARM GAS  C:\Users\TGSPOC~1\AppData\Local\Temp\ccIyOLT8.s 			page 31


 1077 0004 00AF     		add	r7, sp, #0
 1078              	.LCFI58:
 1079              		.cfi_def_cfa_register 7
 1080 0006 7860     		str	r0, [r7, #4]
 652:Drivers/STM32F4xx_HAL_Driver/Src/stm32f4xx_hal_tim.c ****   /* Check the TIM handle allocation */
 653:Drivers/STM32F4xx_HAL_Driver/Src/stm32f4xx_hal_tim.c ****   if (htim == NULL)
 1081              		.loc 1 653 6
 1082 0008 7B68     		ldr	r3, [r7, #4]
 1083 000a 002B     		cmp	r3, #0
 1084 000c 01D1     		bne	.L53
 654:Drivers/STM32F4xx_HAL_Driver/Src/stm32f4xx_hal_tim.c ****   {
 655:Drivers/STM32F4xx_HAL_Driver/Src/stm32f4xx_hal_tim.c ****     return HAL_ERROR;
 1085              		.loc 1 655 12
 1086 000e 0123     		movs	r3, #1
 1087 0010 41E0     		b	.L54
 1088              	.L53:
 656:Drivers/STM32F4xx_HAL_Driver/Src/stm32f4xx_hal_tim.c ****   }
 657:Drivers/STM32F4xx_HAL_Driver/Src/stm32f4xx_hal_tim.c **** 
 658:Drivers/STM32F4xx_HAL_Driver/Src/stm32f4xx_hal_tim.c ****   /* Check the parameters */
 659:Drivers/STM32F4xx_HAL_Driver/Src/stm32f4xx_hal_tim.c ****   assert_param(IS_TIM_INSTANCE(htim->Instance));
 660:Drivers/STM32F4xx_HAL_Driver/Src/stm32f4xx_hal_tim.c ****   assert_param(IS_TIM_COUNTER_MODE(htim->Init.CounterMode));
 661:Drivers/STM32F4xx_HAL_Driver/Src/stm32f4xx_hal_tim.c ****   assert_param(IS_TIM_CLOCKDIVISION_DIV(htim->Init.ClockDivision));
 662:Drivers/STM32F4xx_HAL_Driver/Src/stm32f4xx_hal_tim.c ****   assert_param(IS_TIM_PERIOD(htim, htim->Init.Period));
 663:Drivers/STM32F4xx_HAL_Driver/Src/stm32f4xx_hal_tim.c ****   assert_param(IS_TIM_AUTORELOAD_PRELOAD(htim->Init.AutoReloadPreload));
 664:Drivers/STM32F4xx_HAL_Driver/Src/stm32f4xx_hal_tim.c **** 
 665:Drivers/STM32F4xx_HAL_Driver/Src/stm32f4xx_hal_tim.c ****   if (htim->State == HAL_TIM_STATE_RESET)
 1089              		.loc 1 665 11
 1090 0012 7B68     		ldr	r3, [r7, #4]
 1091 0014 93F83D30 		ldrb	r3, [r3, #61]
 1092 0018 DBB2     		uxtb	r3, r3
 1093              		.loc 1 665 6
 1094 001a 002B     		cmp	r3, #0
 1095 001c 06D1     		bne	.L55
 666:Drivers/STM32F4xx_HAL_Driver/Src/stm32f4xx_hal_tim.c ****   {
 667:Drivers/STM32F4xx_HAL_Driver/Src/stm32f4xx_hal_tim.c ****     /* Allocate lock resource and initialize it */
 668:Drivers/STM32F4xx_HAL_Driver/Src/stm32f4xx_hal_tim.c ****     htim->Lock = HAL_UNLOCKED;
 1096              		.loc 1 668 16
 1097 001e 7B68     		ldr	r3, [r7, #4]
 1098 0020 0022     		movs	r2, #0
 1099 0022 83F83C20 		strb	r2, [r3, #60]
 669:Drivers/STM32F4xx_HAL_Driver/Src/stm32f4xx_hal_tim.c **** 
 670:Drivers/STM32F4xx_HAL_Driver/Src/stm32f4xx_hal_tim.c **** #if (USE_HAL_TIM_REGISTER_CALLBACKS == 1)
 671:Drivers/STM32F4xx_HAL_Driver/Src/stm32f4xx_hal_tim.c ****     /* Reset interrupt callbacks to legacy weak callbacks */
 672:Drivers/STM32F4xx_HAL_Driver/Src/stm32f4xx_hal_tim.c ****     TIM_ResetCallback(htim);
 673:Drivers/STM32F4xx_HAL_Driver/Src/stm32f4xx_hal_tim.c **** 
 674:Drivers/STM32F4xx_HAL_Driver/Src/stm32f4xx_hal_tim.c ****     if (htim->OC_MspInitCallback == NULL)
 675:Drivers/STM32F4xx_HAL_Driver/Src/stm32f4xx_hal_tim.c ****     {
 676:Drivers/STM32F4xx_HAL_Driver/Src/stm32f4xx_hal_tim.c ****       htim->OC_MspInitCallback = HAL_TIM_OC_MspInit;
 677:Drivers/STM32F4xx_HAL_Driver/Src/stm32f4xx_hal_tim.c ****     }
 678:Drivers/STM32F4xx_HAL_Driver/Src/stm32f4xx_hal_tim.c ****     /* Init the low level hardware : GPIO, CLOCK, NVIC */
 679:Drivers/STM32F4xx_HAL_Driver/Src/stm32f4xx_hal_tim.c ****     htim->OC_MspInitCallback(htim);
 680:Drivers/STM32F4xx_HAL_Driver/Src/stm32f4xx_hal_tim.c **** #else
 681:Drivers/STM32F4xx_HAL_Driver/Src/stm32f4xx_hal_tim.c ****     /* Init the low level hardware : GPIO, CLOCK, NVIC and DMA */
 682:Drivers/STM32F4xx_HAL_Driver/Src/stm32f4xx_hal_tim.c ****     HAL_TIM_OC_MspInit(htim);
 1100              		.loc 1 682 5
 1101 0026 7868     		ldr	r0, [r7, #4]
 1102 0028 FFF7FEFF 		bl	HAL_TIM_OC_MspInit
ARM GAS  C:\Users\TGSPOC~1\AppData\Local\Temp\ccIyOLT8.s 			page 32


 1103              	.L55:
 683:Drivers/STM32F4xx_HAL_Driver/Src/stm32f4xx_hal_tim.c **** #endif /* USE_HAL_TIM_REGISTER_CALLBACKS */
 684:Drivers/STM32F4xx_HAL_Driver/Src/stm32f4xx_hal_tim.c ****   }
 685:Drivers/STM32F4xx_HAL_Driver/Src/stm32f4xx_hal_tim.c **** 
 686:Drivers/STM32F4xx_HAL_Driver/Src/stm32f4xx_hal_tim.c ****   /* Set the TIM state */
 687:Drivers/STM32F4xx_HAL_Driver/Src/stm32f4xx_hal_tim.c ****   htim->State = HAL_TIM_STATE_BUSY;
 1104              		.loc 1 687 15
 1105 002c 7B68     		ldr	r3, [r7, #4]
 1106 002e 0222     		movs	r2, #2
 1107 0030 83F83D20 		strb	r2, [r3, #61]
 688:Drivers/STM32F4xx_HAL_Driver/Src/stm32f4xx_hal_tim.c **** 
 689:Drivers/STM32F4xx_HAL_Driver/Src/stm32f4xx_hal_tim.c ****   /* Init the base time for the Output Compare */
 690:Drivers/STM32F4xx_HAL_Driver/Src/stm32f4xx_hal_tim.c ****   TIM_Base_SetConfig(htim->Instance,  &htim->Init);
 1108              		.loc 1 690 3
 1109 0034 7B68     		ldr	r3, [r7, #4]
 1110 0036 1A68     		ldr	r2, [r3]
 1111              		.loc 1 690 39
 1112 0038 7B68     		ldr	r3, [r7, #4]
 1113 003a 0433     		adds	r3, r3, #4
 1114              		.loc 1 690 3
 1115 003c 1946     		mov	r1, r3
 1116 003e 1046     		mov	r0, r2
 1117 0040 FFF7FEFF 		bl	TIM_Base_SetConfig
 691:Drivers/STM32F4xx_HAL_Driver/Src/stm32f4xx_hal_tim.c **** 
 692:Drivers/STM32F4xx_HAL_Driver/Src/stm32f4xx_hal_tim.c ****   /* Initialize the DMA burst operation state */
 693:Drivers/STM32F4xx_HAL_Driver/Src/stm32f4xx_hal_tim.c ****   htim->DMABurstState = HAL_DMA_BURST_STATE_READY;
 1118              		.loc 1 693 23
 1119 0044 7B68     		ldr	r3, [r7, #4]
 1120 0046 0122     		movs	r2, #1
 1121 0048 83F84620 		strb	r2, [r3, #70]
 694:Drivers/STM32F4xx_HAL_Driver/Src/stm32f4xx_hal_tim.c **** 
 695:Drivers/STM32F4xx_HAL_Driver/Src/stm32f4xx_hal_tim.c ****   /* Initialize the TIM channels state */
 696:Drivers/STM32F4xx_HAL_Driver/Src/stm32f4xx_hal_tim.c ****   TIM_CHANNEL_STATE_SET_ALL(htim, HAL_TIM_CHANNEL_STATE_READY);
 1122              		.loc 1 696 3
 1123 004c 7B68     		ldr	r3, [r7, #4]
 1124 004e 0122     		movs	r2, #1
 1125 0050 83F83E20 		strb	r2, [r3, #62]
 1126 0054 7B68     		ldr	r3, [r7, #4]
 1127 0056 0122     		movs	r2, #1
 1128 0058 83F83F20 		strb	r2, [r3, #63]
 1129 005c 7B68     		ldr	r3, [r7, #4]
 1130 005e 0122     		movs	r2, #1
 1131 0060 83F84020 		strb	r2, [r3, #64]
 1132 0064 7B68     		ldr	r3, [r7, #4]
 1133 0066 0122     		movs	r2, #1
 1134 0068 83F84120 		strb	r2, [r3, #65]
 697:Drivers/STM32F4xx_HAL_Driver/Src/stm32f4xx_hal_tim.c ****   TIM_CHANNEL_N_STATE_SET_ALL(htim, HAL_TIM_CHANNEL_STATE_READY);
 1135              		.loc 1 697 3
 1136 006c 7B68     		ldr	r3, [r7, #4]
 1137 006e 0122     		movs	r2, #1
 1138 0070 83F84220 		strb	r2, [r3, #66]
 1139 0074 7B68     		ldr	r3, [r7, #4]
 1140 0076 0122     		movs	r2, #1
 1141 0078 83F84320 		strb	r2, [r3, #67]
 1142 007c 7B68     		ldr	r3, [r7, #4]
 1143 007e 0122     		movs	r2, #1
 1144 0080 83F84420 		strb	r2, [r3, #68]
ARM GAS  C:\Users\TGSPOC~1\AppData\Local\Temp\ccIyOLT8.s 			page 33


 1145 0084 7B68     		ldr	r3, [r7, #4]
 1146 0086 0122     		movs	r2, #1
 1147 0088 83F84520 		strb	r2, [r3, #69]
 698:Drivers/STM32F4xx_HAL_Driver/Src/stm32f4xx_hal_tim.c **** 
 699:Drivers/STM32F4xx_HAL_Driver/Src/stm32f4xx_hal_tim.c ****   /* Initialize the TIM state*/
 700:Drivers/STM32F4xx_HAL_Driver/Src/stm32f4xx_hal_tim.c ****   htim->State = HAL_TIM_STATE_READY;
 1148              		.loc 1 700 15
 1149 008c 7B68     		ldr	r3, [r7, #4]
 1150 008e 0122     		movs	r2, #1
 1151 0090 83F83D20 		strb	r2, [r3, #61]
 701:Drivers/STM32F4xx_HAL_Driver/Src/stm32f4xx_hal_tim.c **** 
 702:Drivers/STM32F4xx_HAL_Driver/Src/stm32f4xx_hal_tim.c ****   return HAL_OK;
 1152              		.loc 1 702 10
 1153 0094 0023     		movs	r3, #0
 1154              	.L54:
 703:Drivers/STM32F4xx_HAL_Driver/Src/stm32f4xx_hal_tim.c **** }
 1155              		.loc 1 703 1
 1156 0096 1846     		mov	r0, r3
 1157 0098 0837     		adds	r7, r7, #8
 1158              	.LCFI59:
 1159              		.cfi_def_cfa_offset 8
 1160 009a BD46     		mov	sp, r7
 1161              	.LCFI60:
 1162              		.cfi_def_cfa_register 13
 1163              		@ sp needed
 1164 009c 80BD     		pop	{r7, pc}
 1165              		.cfi_endproc
 1166              	.LFE144:
 1168              		.section	.text.HAL_TIM_OC_DeInit,"ax",%progbits
 1169              		.align	1
 1170              		.global	HAL_TIM_OC_DeInit
 1171              		.syntax unified
 1172              		.thumb
 1173              		.thumb_func
 1175              	HAL_TIM_OC_DeInit:
 1176              	.LFB145:
 704:Drivers/STM32F4xx_HAL_Driver/Src/stm32f4xx_hal_tim.c **** 
 705:Drivers/STM32F4xx_HAL_Driver/Src/stm32f4xx_hal_tim.c **** /**
 706:Drivers/STM32F4xx_HAL_Driver/Src/stm32f4xx_hal_tim.c ****   * @brief  DeInitializes the TIM peripheral
 707:Drivers/STM32F4xx_HAL_Driver/Src/stm32f4xx_hal_tim.c ****   * @param  htim TIM Output Compare handle
 708:Drivers/STM32F4xx_HAL_Driver/Src/stm32f4xx_hal_tim.c ****   * @retval HAL status
 709:Drivers/STM32F4xx_HAL_Driver/Src/stm32f4xx_hal_tim.c ****   */
 710:Drivers/STM32F4xx_HAL_Driver/Src/stm32f4xx_hal_tim.c **** HAL_StatusTypeDef HAL_TIM_OC_DeInit(TIM_HandleTypeDef *htim)
 711:Drivers/STM32F4xx_HAL_Driver/Src/stm32f4xx_hal_tim.c **** {
 1177              		.loc 1 711 1
 1178              		.cfi_startproc
 1179              		@ args = 0, pretend = 0, frame = 8
 1180              		@ frame_needed = 1, uses_anonymous_args = 0
 1181 0000 80B5     		push	{r7, lr}
 1182              	.LCFI61:
 1183              		.cfi_def_cfa_offset 8
 1184              		.cfi_offset 7, -8
 1185              		.cfi_offset 14, -4
 1186 0002 82B0     		sub	sp, sp, #8
 1187              	.LCFI62:
 1188              		.cfi_def_cfa_offset 16
 1189 0004 00AF     		add	r7, sp, #0
ARM GAS  C:\Users\TGSPOC~1\AppData\Local\Temp\ccIyOLT8.s 			page 34


 1190              	.LCFI63:
 1191              		.cfi_def_cfa_register 7
 1192 0006 7860     		str	r0, [r7, #4]
 712:Drivers/STM32F4xx_HAL_Driver/Src/stm32f4xx_hal_tim.c ****   /* Check the parameters */
 713:Drivers/STM32F4xx_HAL_Driver/Src/stm32f4xx_hal_tim.c ****   assert_param(IS_TIM_INSTANCE(htim->Instance));
 714:Drivers/STM32F4xx_HAL_Driver/Src/stm32f4xx_hal_tim.c **** 
 715:Drivers/STM32F4xx_HAL_Driver/Src/stm32f4xx_hal_tim.c ****   htim->State = HAL_TIM_STATE_BUSY;
 1193              		.loc 1 715 15
 1194 0008 7B68     		ldr	r3, [r7, #4]
 1195 000a 0222     		movs	r2, #2
 1196 000c 83F83D20 		strb	r2, [r3, #61]
 716:Drivers/STM32F4xx_HAL_Driver/Src/stm32f4xx_hal_tim.c **** 
 717:Drivers/STM32F4xx_HAL_Driver/Src/stm32f4xx_hal_tim.c ****   /* Disable the TIM Peripheral Clock */
 718:Drivers/STM32F4xx_HAL_Driver/Src/stm32f4xx_hal_tim.c ****   __HAL_TIM_DISABLE(htim);
 1197              		.loc 1 718 3
 1198 0010 7B68     		ldr	r3, [r7, #4]
 1199 0012 1B68     		ldr	r3, [r3]
 1200 0014 1A6A     		ldr	r2, [r3, #32]
 1201 0016 41F21113 		movw	r3, #4369
 1202 001a 1340     		ands	r3, r3, r2
 1203 001c 002B     		cmp	r3, #0
 1204 001e 0FD1     		bne	.L57
 1205              		.loc 1 718 3 is_stmt 0 discriminator 1
 1206 0020 7B68     		ldr	r3, [r7, #4]
 1207 0022 1B68     		ldr	r3, [r3]
 1208 0024 1A6A     		ldr	r2, [r3, #32]
 1209 0026 40F24443 		movw	r3, #1092
 1210 002a 1340     		ands	r3, r3, r2
 1211 002c 002B     		cmp	r3, #0
 1212 002e 07D1     		bne	.L57
 1213              		.loc 1 718 3 discriminator 2
 1214 0030 7B68     		ldr	r3, [r7, #4]
 1215 0032 1B68     		ldr	r3, [r3]
 1216 0034 1A68     		ldr	r2, [r3]
 1217 0036 7B68     		ldr	r3, [r7, #4]
 1218 0038 1B68     		ldr	r3, [r3]
 1219 003a 22F00102 		bic	r2, r2, #1
 1220 003e 1A60     		str	r2, [r3]
 1221              	.L57:
 719:Drivers/STM32F4xx_HAL_Driver/Src/stm32f4xx_hal_tim.c **** 
 720:Drivers/STM32F4xx_HAL_Driver/Src/stm32f4xx_hal_tim.c **** #if (USE_HAL_TIM_REGISTER_CALLBACKS == 1)
 721:Drivers/STM32F4xx_HAL_Driver/Src/stm32f4xx_hal_tim.c ****   if (htim->OC_MspDeInitCallback == NULL)
 722:Drivers/STM32F4xx_HAL_Driver/Src/stm32f4xx_hal_tim.c ****   {
 723:Drivers/STM32F4xx_HAL_Driver/Src/stm32f4xx_hal_tim.c ****     htim->OC_MspDeInitCallback = HAL_TIM_OC_MspDeInit;
 724:Drivers/STM32F4xx_HAL_Driver/Src/stm32f4xx_hal_tim.c ****   }
 725:Drivers/STM32F4xx_HAL_Driver/Src/stm32f4xx_hal_tim.c ****   /* DeInit the low level hardware */
 726:Drivers/STM32F4xx_HAL_Driver/Src/stm32f4xx_hal_tim.c ****   htim->OC_MspDeInitCallback(htim);
 727:Drivers/STM32F4xx_HAL_Driver/Src/stm32f4xx_hal_tim.c **** #else
 728:Drivers/STM32F4xx_HAL_Driver/Src/stm32f4xx_hal_tim.c ****   /* DeInit the low level hardware: GPIO, CLOCK, NVIC and DMA */
 729:Drivers/STM32F4xx_HAL_Driver/Src/stm32f4xx_hal_tim.c ****   HAL_TIM_OC_MspDeInit(htim);
 1222              		.loc 1 729 3 is_stmt 1
 1223 0040 7868     		ldr	r0, [r7, #4]
 1224 0042 FFF7FEFF 		bl	HAL_TIM_OC_MspDeInit
 730:Drivers/STM32F4xx_HAL_Driver/Src/stm32f4xx_hal_tim.c **** #endif /* USE_HAL_TIM_REGISTER_CALLBACKS */
 731:Drivers/STM32F4xx_HAL_Driver/Src/stm32f4xx_hal_tim.c **** 
 732:Drivers/STM32F4xx_HAL_Driver/Src/stm32f4xx_hal_tim.c ****   /* Change the DMA burst operation state */
 733:Drivers/STM32F4xx_HAL_Driver/Src/stm32f4xx_hal_tim.c ****   htim->DMABurstState = HAL_DMA_BURST_STATE_RESET;
ARM GAS  C:\Users\TGSPOC~1\AppData\Local\Temp\ccIyOLT8.s 			page 35


 1225              		.loc 1 733 23
 1226 0046 7B68     		ldr	r3, [r7, #4]
 1227 0048 0022     		movs	r2, #0
 1228 004a 83F84620 		strb	r2, [r3, #70]
 734:Drivers/STM32F4xx_HAL_Driver/Src/stm32f4xx_hal_tim.c **** 
 735:Drivers/STM32F4xx_HAL_Driver/Src/stm32f4xx_hal_tim.c ****   /* Change the TIM channels state */
 736:Drivers/STM32F4xx_HAL_Driver/Src/stm32f4xx_hal_tim.c ****   TIM_CHANNEL_STATE_SET_ALL(htim, HAL_TIM_CHANNEL_STATE_RESET);
 1229              		.loc 1 736 3
 1230 004e 7B68     		ldr	r3, [r7, #4]
 1231 0050 0022     		movs	r2, #0
 1232 0052 83F83E20 		strb	r2, [r3, #62]
 1233 0056 7B68     		ldr	r3, [r7, #4]
 1234 0058 0022     		movs	r2, #0
 1235 005a 83F83F20 		strb	r2, [r3, #63]
 1236 005e 7B68     		ldr	r3, [r7, #4]
 1237 0060 0022     		movs	r2, #0
 1238 0062 83F84020 		strb	r2, [r3, #64]
 1239 0066 7B68     		ldr	r3, [r7, #4]
 1240 0068 0022     		movs	r2, #0
 1241 006a 83F84120 		strb	r2, [r3, #65]
 737:Drivers/STM32F4xx_HAL_Driver/Src/stm32f4xx_hal_tim.c ****   TIM_CHANNEL_N_STATE_SET_ALL(htim, HAL_TIM_CHANNEL_STATE_RESET);
 1242              		.loc 1 737 3
 1243 006e 7B68     		ldr	r3, [r7, #4]
 1244 0070 0022     		movs	r2, #0
 1245 0072 83F84220 		strb	r2, [r3, #66]
 1246 0076 7B68     		ldr	r3, [r7, #4]
 1247 0078 0022     		movs	r2, #0
 1248 007a 83F84320 		strb	r2, [r3, #67]
 1249 007e 7B68     		ldr	r3, [r7, #4]
 1250 0080 0022     		movs	r2, #0
 1251 0082 83F84420 		strb	r2, [r3, #68]
 1252 0086 7B68     		ldr	r3, [r7, #4]
 1253 0088 0022     		movs	r2, #0
 1254 008a 83F84520 		strb	r2, [r3, #69]
 738:Drivers/STM32F4xx_HAL_Driver/Src/stm32f4xx_hal_tim.c **** 
 739:Drivers/STM32F4xx_HAL_Driver/Src/stm32f4xx_hal_tim.c ****   /* Change TIM state */
 740:Drivers/STM32F4xx_HAL_Driver/Src/stm32f4xx_hal_tim.c ****   htim->State = HAL_TIM_STATE_RESET;
 1255              		.loc 1 740 15
 1256 008e 7B68     		ldr	r3, [r7, #4]
 1257 0090 0022     		movs	r2, #0
 1258 0092 83F83D20 		strb	r2, [r3, #61]
 741:Drivers/STM32F4xx_HAL_Driver/Src/stm32f4xx_hal_tim.c **** 
 742:Drivers/STM32F4xx_HAL_Driver/Src/stm32f4xx_hal_tim.c ****   /* Release Lock */
 743:Drivers/STM32F4xx_HAL_Driver/Src/stm32f4xx_hal_tim.c ****   __HAL_UNLOCK(htim);
 1259              		.loc 1 743 3
 1260 0096 7B68     		ldr	r3, [r7, #4]
 1261 0098 0022     		movs	r2, #0
 1262 009a 83F83C20 		strb	r2, [r3, #60]
 744:Drivers/STM32F4xx_HAL_Driver/Src/stm32f4xx_hal_tim.c **** 
 745:Drivers/STM32F4xx_HAL_Driver/Src/stm32f4xx_hal_tim.c ****   return HAL_OK;
 1263              		.loc 1 745 10
 1264 009e 0023     		movs	r3, #0
 746:Drivers/STM32F4xx_HAL_Driver/Src/stm32f4xx_hal_tim.c **** }
 1265              		.loc 1 746 1
 1266 00a0 1846     		mov	r0, r3
 1267 00a2 0837     		adds	r7, r7, #8
 1268              	.LCFI64:
ARM GAS  C:\Users\TGSPOC~1\AppData\Local\Temp\ccIyOLT8.s 			page 36


 1269              		.cfi_def_cfa_offset 8
 1270 00a4 BD46     		mov	sp, r7
 1271              	.LCFI65:
 1272              		.cfi_def_cfa_register 13
 1273              		@ sp needed
 1274 00a6 80BD     		pop	{r7, pc}
 1275              		.cfi_endproc
 1276              	.LFE145:
 1278              		.section	.text.HAL_TIM_OC_MspInit,"ax",%progbits
 1279              		.align	1
 1280              		.weak	HAL_TIM_OC_MspInit
 1281              		.syntax unified
 1282              		.thumb
 1283              		.thumb_func
 1285              	HAL_TIM_OC_MspInit:
 1286              	.LFB146:
 747:Drivers/STM32F4xx_HAL_Driver/Src/stm32f4xx_hal_tim.c **** 
 748:Drivers/STM32F4xx_HAL_Driver/Src/stm32f4xx_hal_tim.c **** /**
 749:Drivers/STM32F4xx_HAL_Driver/Src/stm32f4xx_hal_tim.c ****   * @brief  Initializes the TIM Output Compare MSP.
 750:Drivers/STM32F4xx_HAL_Driver/Src/stm32f4xx_hal_tim.c ****   * @param  htim TIM Output Compare handle
 751:Drivers/STM32F4xx_HAL_Driver/Src/stm32f4xx_hal_tim.c ****   * @retval None
 752:Drivers/STM32F4xx_HAL_Driver/Src/stm32f4xx_hal_tim.c ****   */
 753:Drivers/STM32F4xx_HAL_Driver/Src/stm32f4xx_hal_tim.c **** __weak void HAL_TIM_OC_MspInit(TIM_HandleTypeDef *htim)
 754:Drivers/STM32F4xx_HAL_Driver/Src/stm32f4xx_hal_tim.c **** {
 1287              		.loc 1 754 1
 1288              		.cfi_startproc
 1289              		@ args = 0, pretend = 0, frame = 8
 1290              		@ frame_needed = 1, uses_anonymous_args = 0
 1291              		@ link register save eliminated.
 1292 0000 80B4     		push	{r7}
 1293              	.LCFI66:
 1294              		.cfi_def_cfa_offset 4
 1295              		.cfi_offset 7, -4
 1296 0002 83B0     		sub	sp, sp, #12
 1297              	.LCFI67:
 1298              		.cfi_def_cfa_offset 16
 1299 0004 00AF     		add	r7, sp, #0
 1300              	.LCFI68:
 1301              		.cfi_def_cfa_register 7
 1302 0006 7860     		str	r0, [r7, #4]
 755:Drivers/STM32F4xx_HAL_Driver/Src/stm32f4xx_hal_tim.c ****   /* Prevent unused argument(s) compilation warning */
 756:Drivers/STM32F4xx_HAL_Driver/Src/stm32f4xx_hal_tim.c ****   UNUSED(htim);
 757:Drivers/STM32F4xx_HAL_Driver/Src/stm32f4xx_hal_tim.c **** 
 758:Drivers/STM32F4xx_HAL_Driver/Src/stm32f4xx_hal_tim.c ****   /* NOTE : This function should not be modified, when the callback is needed,
 759:Drivers/STM32F4xx_HAL_Driver/Src/stm32f4xx_hal_tim.c ****             the HAL_TIM_OC_MspInit could be implemented in the user file
 760:Drivers/STM32F4xx_HAL_Driver/Src/stm32f4xx_hal_tim.c ****    */
 761:Drivers/STM32F4xx_HAL_Driver/Src/stm32f4xx_hal_tim.c **** }
 1303              		.loc 1 761 1
 1304 0008 00BF     		nop
 1305 000a 0C37     		adds	r7, r7, #12
 1306              	.LCFI69:
 1307              		.cfi_def_cfa_offset 4
 1308 000c BD46     		mov	sp, r7
 1309              	.LCFI70:
 1310              		.cfi_def_cfa_register 13
 1311              		@ sp needed
 1312 000e 5DF8047B 		ldr	r7, [sp], #4
ARM GAS  C:\Users\TGSPOC~1\AppData\Local\Temp\ccIyOLT8.s 			page 37


 1313              	.LCFI71:
 1314              		.cfi_restore 7
 1315              		.cfi_def_cfa_offset 0
 1316 0012 7047     		bx	lr
 1317              		.cfi_endproc
 1318              	.LFE146:
 1320              		.section	.text.HAL_TIM_OC_MspDeInit,"ax",%progbits
 1321              		.align	1
 1322              		.weak	HAL_TIM_OC_MspDeInit
 1323              		.syntax unified
 1324              		.thumb
 1325              		.thumb_func
 1327              	HAL_TIM_OC_MspDeInit:
 1328              	.LFB147:
 762:Drivers/STM32F4xx_HAL_Driver/Src/stm32f4xx_hal_tim.c **** 
 763:Drivers/STM32F4xx_HAL_Driver/Src/stm32f4xx_hal_tim.c **** /**
 764:Drivers/STM32F4xx_HAL_Driver/Src/stm32f4xx_hal_tim.c ****   * @brief  DeInitializes TIM Output Compare MSP.
 765:Drivers/STM32F4xx_HAL_Driver/Src/stm32f4xx_hal_tim.c ****   * @param  htim TIM Output Compare handle
 766:Drivers/STM32F4xx_HAL_Driver/Src/stm32f4xx_hal_tim.c ****   * @retval None
 767:Drivers/STM32F4xx_HAL_Driver/Src/stm32f4xx_hal_tim.c ****   */
 768:Drivers/STM32F4xx_HAL_Driver/Src/stm32f4xx_hal_tim.c **** __weak void HAL_TIM_OC_MspDeInit(TIM_HandleTypeDef *htim)
 769:Drivers/STM32F4xx_HAL_Driver/Src/stm32f4xx_hal_tim.c **** {
 1329              		.loc 1 769 1
 1330              		.cfi_startproc
 1331              		@ args = 0, pretend = 0, frame = 8
 1332              		@ frame_needed = 1, uses_anonymous_args = 0
 1333              		@ link register save eliminated.
 1334 0000 80B4     		push	{r7}
 1335              	.LCFI72:
 1336              		.cfi_def_cfa_offset 4
 1337              		.cfi_offset 7, -4
 1338 0002 83B0     		sub	sp, sp, #12
 1339              	.LCFI73:
 1340              		.cfi_def_cfa_offset 16
 1341 0004 00AF     		add	r7, sp, #0
 1342              	.LCFI74:
 1343              		.cfi_def_cfa_register 7
 1344 0006 7860     		str	r0, [r7, #4]
 770:Drivers/STM32F4xx_HAL_Driver/Src/stm32f4xx_hal_tim.c ****   /* Prevent unused argument(s) compilation warning */
 771:Drivers/STM32F4xx_HAL_Driver/Src/stm32f4xx_hal_tim.c ****   UNUSED(htim);
 772:Drivers/STM32F4xx_HAL_Driver/Src/stm32f4xx_hal_tim.c **** 
 773:Drivers/STM32F4xx_HAL_Driver/Src/stm32f4xx_hal_tim.c ****   /* NOTE : This function should not be modified, when the callback is needed,
 774:Drivers/STM32F4xx_HAL_Driver/Src/stm32f4xx_hal_tim.c ****             the HAL_TIM_OC_MspDeInit could be implemented in the user file
 775:Drivers/STM32F4xx_HAL_Driver/Src/stm32f4xx_hal_tim.c ****    */
 776:Drivers/STM32F4xx_HAL_Driver/Src/stm32f4xx_hal_tim.c **** }
 1345              		.loc 1 776 1
 1346 0008 00BF     		nop
 1347 000a 0C37     		adds	r7, r7, #12
 1348              	.LCFI75:
 1349              		.cfi_def_cfa_offset 4
 1350 000c BD46     		mov	sp, r7
 1351              	.LCFI76:
 1352              		.cfi_def_cfa_register 13
 1353              		@ sp needed
 1354 000e 5DF8047B 		ldr	r7, [sp], #4
 1355              	.LCFI77:
 1356              		.cfi_restore 7
ARM GAS  C:\Users\TGSPOC~1\AppData\Local\Temp\ccIyOLT8.s 			page 38


 1357              		.cfi_def_cfa_offset 0
 1358 0012 7047     		bx	lr
 1359              		.cfi_endproc
 1360              	.LFE147:
 1362              		.section	.text.HAL_TIM_OC_Start,"ax",%progbits
 1363              		.align	1
 1364              		.global	HAL_TIM_OC_Start
 1365              		.syntax unified
 1366              		.thumb
 1367              		.thumb_func
 1369              	HAL_TIM_OC_Start:
 1370              	.LFB148:
 777:Drivers/STM32F4xx_HAL_Driver/Src/stm32f4xx_hal_tim.c **** 
 778:Drivers/STM32F4xx_HAL_Driver/Src/stm32f4xx_hal_tim.c **** /**
 779:Drivers/STM32F4xx_HAL_Driver/Src/stm32f4xx_hal_tim.c ****   * @brief  Starts the TIM Output Compare signal generation.
 780:Drivers/STM32F4xx_HAL_Driver/Src/stm32f4xx_hal_tim.c ****   * @param  htim TIM Output Compare handle
 781:Drivers/STM32F4xx_HAL_Driver/Src/stm32f4xx_hal_tim.c ****   * @param  Channel TIM Channel to be enabled
 782:Drivers/STM32F4xx_HAL_Driver/Src/stm32f4xx_hal_tim.c ****   *          This parameter can be one of the following values:
 783:Drivers/STM32F4xx_HAL_Driver/Src/stm32f4xx_hal_tim.c ****   *            @arg TIM_CHANNEL_1: TIM Channel 1 selected
 784:Drivers/STM32F4xx_HAL_Driver/Src/stm32f4xx_hal_tim.c ****   *            @arg TIM_CHANNEL_2: TIM Channel 2 selected
 785:Drivers/STM32F4xx_HAL_Driver/Src/stm32f4xx_hal_tim.c ****   *            @arg TIM_CHANNEL_3: TIM Channel 3 selected
 786:Drivers/STM32F4xx_HAL_Driver/Src/stm32f4xx_hal_tim.c ****   *            @arg TIM_CHANNEL_4: TIM Channel 4 selected
 787:Drivers/STM32F4xx_HAL_Driver/Src/stm32f4xx_hal_tim.c ****   * @retval HAL status
 788:Drivers/STM32F4xx_HAL_Driver/Src/stm32f4xx_hal_tim.c ****   */
 789:Drivers/STM32F4xx_HAL_Driver/Src/stm32f4xx_hal_tim.c **** HAL_StatusTypeDef HAL_TIM_OC_Start(TIM_HandleTypeDef *htim, uint32_t Channel)
 790:Drivers/STM32F4xx_HAL_Driver/Src/stm32f4xx_hal_tim.c **** {
 1371              		.loc 1 790 1
 1372              		.cfi_startproc
 1373              		@ args = 0, pretend = 0, frame = 16
 1374              		@ frame_needed = 1, uses_anonymous_args = 0
 1375 0000 80B5     		push	{r7, lr}
 1376              	.LCFI78:
 1377              		.cfi_def_cfa_offset 8
 1378              		.cfi_offset 7, -8
 1379              		.cfi_offset 14, -4
 1380 0002 84B0     		sub	sp, sp, #16
 1381              	.LCFI79:
 1382              		.cfi_def_cfa_offset 24
 1383 0004 00AF     		add	r7, sp, #0
 1384              	.LCFI80:
 1385              		.cfi_def_cfa_register 7
 1386 0006 7860     		str	r0, [r7, #4]
 1387 0008 3960     		str	r1, [r7]
 791:Drivers/STM32F4xx_HAL_Driver/Src/stm32f4xx_hal_tim.c ****   uint32_t tmpsmcr;
 792:Drivers/STM32F4xx_HAL_Driver/Src/stm32f4xx_hal_tim.c **** 
 793:Drivers/STM32F4xx_HAL_Driver/Src/stm32f4xx_hal_tim.c ****   /* Check the parameters */
 794:Drivers/STM32F4xx_HAL_Driver/Src/stm32f4xx_hal_tim.c ****   assert_param(IS_TIM_CCX_INSTANCE(htim->Instance, Channel));
 795:Drivers/STM32F4xx_HAL_Driver/Src/stm32f4xx_hal_tim.c **** 
 796:Drivers/STM32F4xx_HAL_Driver/Src/stm32f4xx_hal_tim.c ****   /* Check the TIM channel state */
 797:Drivers/STM32F4xx_HAL_Driver/Src/stm32f4xx_hal_tim.c ****   if (TIM_CHANNEL_STATE_GET(htim, Channel) != HAL_TIM_CHANNEL_STATE_READY)
 1388              		.loc 1 797 44
 1389 000a 3B68     		ldr	r3, [r7]
 1390 000c 002B     		cmp	r3, #0
 1391 000e 09D1     		bne	.L62
 1392              		.loc 1 797 7 discriminator 1
 1393 0010 7B68     		ldr	r3, [r7, #4]
 1394 0012 93F83E30 		ldrb	r3, [r3, #62]
ARM GAS  C:\Users\TGSPOC~1\AppData\Local\Temp\ccIyOLT8.s 			page 39


 1395 0016 DBB2     		uxtb	r3, r3
 1396              		.loc 1 797 44 discriminator 1
 1397 0018 012B     		cmp	r3, #1
 1398 001a 14BF     		ite	ne
 1399 001c 0123     		movne	r3, #1
 1400 001e 0023     		moveq	r3, #0
 1401 0020 DBB2     		uxtb	r3, r3
 1402 0022 22E0     		b	.L63
 1403              	.L62:
 1404              		.loc 1 797 44 is_stmt 0 discriminator 2
 1405 0024 3B68     		ldr	r3, [r7]
 1406 0026 042B     		cmp	r3, #4
 1407 0028 09D1     		bne	.L64
 1408              		.loc 1 797 7 is_stmt 1 discriminator 4
 1409 002a 7B68     		ldr	r3, [r7, #4]
 1410 002c 93F83F30 		ldrb	r3, [r3, #63]
 1411 0030 DBB2     		uxtb	r3, r3
 1412              		.loc 1 797 44 discriminator 4
 1413 0032 012B     		cmp	r3, #1
 1414 0034 14BF     		ite	ne
 1415 0036 0123     		movne	r3, #1
 1416 0038 0023     		moveq	r3, #0
 1417 003a DBB2     		uxtb	r3, r3
 1418 003c 15E0     		b	.L63
 1419              	.L64:
 1420              		.loc 1 797 44 is_stmt 0 discriminator 5
 1421 003e 3B68     		ldr	r3, [r7]
 1422 0040 082B     		cmp	r3, #8
 1423 0042 09D1     		bne	.L66
 1424              		.loc 1 797 7 is_stmt 1 discriminator 7
 1425 0044 7B68     		ldr	r3, [r7, #4]
 1426 0046 93F84030 		ldrb	r3, [r3, #64]
 1427 004a DBB2     		uxtb	r3, r3
 1428              		.loc 1 797 44 discriminator 7
 1429 004c 012B     		cmp	r3, #1
 1430 004e 14BF     		ite	ne
 1431 0050 0123     		movne	r3, #1
 1432 0052 0023     		moveq	r3, #0
 1433 0054 DBB2     		uxtb	r3, r3
 1434 0056 08E0     		b	.L63
 1435              	.L66:
 1436              		.loc 1 797 7 discriminator 8
 1437 0058 7B68     		ldr	r3, [r7, #4]
 1438 005a 93F84130 		ldrb	r3, [r3, #65]
 1439 005e DBB2     		uxtb	r3, r3
 1440              		.loc 1 797 44 discriminator 8
 1441 0060 012B     		cmp	r3, #1
 1442 0062 14BF     		ite	ne
 1443 0064 0123     		movne	r3, #1
 1444 0066 0023     		moveq	r3, #0
 1445 0068 DBB2     		uxtb	r3, r3
 1446              	.L63:
 1447              		.loc 1 797 6 discriminator 12
 1448 006a 002B     		cmp	r3, #0
 1449 006c 01D0     		beq	.L68
 798:Drivers/STM32F4xx_HAL_Driver/Src/stm32f4xx_hal_tim.c ****   {
 799:Drivers/STM32F4xx_HAL_Driver/Src/stm32f4xx_hal_tim.c ****     return HAL_ERROR;
ARM GAS  C:\Users\TGSPOC~1\AppData\Local\Temp\ccIyOLT8.s 			page 40


 1450              		.loc 1 799 12
 1451 006e 0123     		movs	r3, #1
 1452 0070 68E0     		b	.L69
 1453              	.L68:
 800:Drivers/STM32F4xx_HAL_Driver/Src/stm32f4xx_hal_tim.c ****   }
 801:Drivers/STM32F4xx_HAL_Driver/Src/stm32f4xx_hal_tim.c **** 
 802:Drivers/STM32F4xx_HAL_Driver/Src/stm32f4xx_hal_tim.c ****   /* Set the TIM channel state */
 803:Drivers/STM32F4xx_HAL_Driver/Src/stm32f4xx_hal_tim.c ****   TIM_CHANNEL_STATE_SET(htim, Channel, HAL_TIM_CHANNEL_STATE_BUSY);
 1454              		.loc 1 803 3
 1455 0072 3B68     		ldr	r3, [r7]
 1456 0074 002B     		cmp	r3, #0
 1457 0076 04D1     		bne	.L70
 1458              		.loc 1 803 3 is_stmt 0 discriminator 1
 1459 0078 7B68     		ldr	r3, [r7, #4]
 1460 007a 0222     		movs	r2, #2
 1461 007c 83F83E20 		strb	r2, [r3, #62]
 1462 0080 13E0     		b	.L71
 1463              	.L70:
 1464              		.loc 1 803 3 discriminator 2
 1465 0082 3B68     		ldr	r3, [r7]
 1466 0084 042B     		cmp	r3, #4
 1467 0086 04D1     		bne	.L72
 1468              		.loc 1 803 3 discriminator 3
 1469 0088 7B68     		ldr	r3, [r7, #4]
 1470 008a 0222     		movs	r2, #2
 1471 008c 83F83F20 		strb	r2, [r3, #63]
 1472 0090 0BE0     		b	.L71
 1473              	.L72:
 1474              		.loc 1 803 3 discriminator 4
 1475 0092 3B68     		ldr	r3, [r7]
 1476 0094 082B     		cmp	r3, #8
 1477 0096 04D1     		bne	.L74
 1478              		.loc 1 803 3 discriminator 6
 1479 0098 7B68     		ldr	r3, [r7, #4]
 1480 009a 0222     		movs	r2, #2
 1481 009c 83F84020 		strb	r2, [r3, #64]
 1482 00a0 03E0     		b	.L71
 1483              	.L74:
 1484              		.loc 1 803 3 discriminator 7
 1485 00a2 7B68     		ldr	r3, [r7, #4]
 1486 00a4 0222     		movs	r2, #2
 1487 00a6 83F84120 		strb	r2, [r3, #65]
 1488              	.L71:
 804:Drivers/STM32F4xx_HAL_Driver/Src/stm32f4xx_hal_tim.c **** 
 805:Drivers/STM32F4xx_HAL_Driver/Src/stm32f4xx_hal_tim.c ****   /* Enable the Output compare channel */
 806:Drivers/STM32F4xx_HAL_Driver/Src/stm32f4xx_hal_tim.c ****   TIM_CCxChannelCmd(htim->Instance, Channel, TIM_CCx_ENABLE);
 1489              		.loc 1 806 3 is_stmt 1
 1490 00aa 7B68     		ldr	r3, [r7, #4]
 1491 00ac 1B68     		ldr	r3, [r3]
 1492 00ae 0122     		movs	r2, #1
 1493 00b0 3968     		ldr	r1, [r7]
 1494 00b2 1846     		mov	r0, r3
 1495 00b4 FFF7FEFF 		bl	TIM_CCxChannelCmd
 807:Drivers/STM32F4xx_HAL_Driver/Src/stm32f4xx_hal_tim.c **** 
 808:Drivers/STM32F4xx_HAL_Driver/Src/stm32f4xx_hal_tim.c ****   if (IS_TIM_BREAK_INSTANCE(htim->Instance) != RESET)
 1496              		.loc 1 808 7
 1497 00b8 7B68     		ldr	r3, [r7, #4]
ARM GAS  C:\Users\TGSPOC~1\AppData\Local\Temp\ccIyOLT8.s 			page 41


 1498 00ba 1B68     		ldr	r3, [r3]
 1499              		.loc 1 808 6
 1500 00bc 234A     		ldr	r2, .L81
 1501 00be 9342     		cmp	r3, r2
 1502 00c0 07D1     		bne	.L76
 809:Drivers/STM32F4xx_HAL_Driver/Src/stm32f4xx_hal_tim.c ****   {
 810:Drivers/STM32F4xx_HAL_Driver/Src/stm32f4xx_hal_tim.c ****     /* Enable the main output */
 811:Drivers/STM32F4xx_HAL_Driver/Src/stm32f4xx_hal_tim.c ****     __HAL_TIM_MOE_ENABLE(htim);
 1503              		.loc 1 811 5
 1504 00c2 7B68     		ldr	r3, [r7, #4]
 1505 00c4 1B68     		ldr	r3, [r3]
 1506 00c6 5A6C     		ldr	r2, [r3, #68]
 1507 00c8 7B68     		ldr	r3, [r7, #4]
 1508 00ca 1B68     		ldr	r3, [r3]
 1509 00cc 42F40042 		orr	r2, r2, #32768
 1510 00d0 5A64     		str	r2, [r3, #68]
 1511              	.L76:
 812:Drivers/STM32F4xx_HAL_Driver/Src/stm32f4xx_hal_tim.c ****   }
 813:Drivers/STM32F4xx_HAL_Driver/Src/stm32f4xx_hal_tim.c **** 
 814:Drivers/STM32F4xx_HAL_Driver/Src/stm32f4xx_hal_tim.c ****   /* Enable the Peripheral, except in trigger mode where enable is automatically done with trigger 
 815:Drivers/STM32F4xx_HAL_Driver/Src/stm32f4xx_hal_tim.c ****   if (IS_TIM_SLAVE_INSTANCE(htim->Instance))
 1512              		.loc 1 815 7
 1513 00d2 7B68     		ldr	r3, [r7, #4]
 1514 00d4 1B68     		ldr	r3, [r3]
 1515              		.loc 1 815 6
 1516 00d6 1D4A     		ldr	r2, .L81
 1517 00d8 9342     		cmp	r3, r2
 1518 00da 18D0     		beq	.L77
 1519              		.loc 1 815 7 discriminator 1
 1520 00dc 7B68     		ldr	r3, [r7, #4]
 1521 00de 1B68     		ldr	r3, [r3]
 1522 00e0 B3F1804F 		cmp	r3, #1073741824
 1523 00e4 13D0     		beq	.L77
 1524              		.loc 1 815 7 is_stmt 0 discriminator 2
 1525 00e6 7B68     		ldr	r3, [r7, #4]
 1526 00e8 1B68     		ldr	r3, [r3]
 1527 00ea 194A     		ldr	r2, .L81+4
 1528 00ec 9342     		cmp	r3, r2
 1529 00ee 0ED0     		beq	.L77
 1530              		.loc 1 815 7 discriminator 3
 1531 00f0 7B68     		ldr	r3, [r7, #4]
 1532 00f2 1B68     		ldr	r3, [r3]
 1533 00f4 174A     		ldr	r2, .L81+8
 1534 00f6 9342     		cmp	r3, r2
 1535 00f8 09D0     		beq	.L77
 1536              		.loc 1 815 7 discriminator 4
 1537 00fa 7B68     		ldr	r3, [r7, #4]
 1538 00fc 1B68     		ldr	r3, [r3]
 1539 00fe 164A     		ldr	r2, .L81+12
 1540 0100 9342     		cmp	r3, r2
 1541 0102 04D0     		beq	.L77
 1542              		.loc 1 815 7 discriminator 5
 1543 0104 7B68     		ldr	r3, [r7, #4]
 1544 0106 1B68     		ldr	r3, [r3]
 1545 0108 144A     		ldr	r2, .L81+16
 1546 010a 9342     		cmp	r3, r2
 1547 010c 11D1     		bne	.L78
ARM GAS  C:\Users\TGSPOC~1\AppData\Local\Temp\ccIyOLT8.s 			page 42


 1548              	.L77:
 816:Drivers/STM32F4xx_HAL_Driver/Src/stm32f4xx_hal_tim.c ****   {
 817:Drivers/STM32F4xx_HAL_Driver/Src/stm32f4xx_hal_tim.c ****     tmpsmcr = htim->Instance->SMCR & TIM_SMCR_SMS;
 1549              		.loc 1 817 19 is_stmt 1
 1550 010e 7B68     		ldr	r3, [r7, #4]
 1551 0110 1B68     		ldr	r3, [r3]
 1552              		.loc 1 817 29
 1553 0112 9B68     		ldr	r3, [r3, #8]
 1554              		.loc 1 817 13
 1555 0114 03F00703 		and	r3, r3, #7
 1556 0118 FB60     		str	r3, [r7, #12]
 818:Drivers/STM32F4xx_HAL_Driver/Src/stm32f4xx_hal_tim.c ****     if (!IS_TIM_SLAVEMODE_TRIGGER_ENABLED(tmpsmcr))
 1557              		.loc 1 818 8
 1558 011a FB68     		ldr	r3, [r7, #12]
 1559 011c 062B     		cmp	r3, #6
 1560 011e 10D0     		beq	.L80
 819:Drivers/STM32F4xx_HAL_Driver/Src/stm32f4xx_hal_tim.c ****     {
 820:Drivers/STM32F4xx_HAL_Driver/Src/stm32f4xx_hal_tim.c ****       __HAL_TIM_ENABLE(htim);
 1561              		.loc 1 820 7
 1562 0120 7B68     		ldr	r3, [r7, #4]
 1563 0122 1B68     		ldr	r3, [r3]
 1564 0124 1A68     		ldr	r2, [r3]
 1565 0126 7B68     		ldr	r3, [r7, #4]
 1566 0128 1B68     		ldr	r3, [r3]
 1567 012a 42F00102 		orr	r2, r2, #1
 1568 012e 1A60     		str	r2, [r3]
 818:Drivers/STM32F4xx_HAL_Driver/Src/stm32f4xx_hal_tim.c ****     if (!IS_TIM_SLAVEMODE_TRIGGER_ENABLED(tmpsmcr))
 1569              		.loc 1 818 8
 1570 0130 07E0     		b	.L80
 1571              	.L78:
 821:Drivers/STM32F4xx_HAL_Driver/Src/stm32f4xx_hal_tim.c ****     }
 822:Drivers/STM32F4xx_HAL_Driver/Src/stm32f4xx_hal_tim.c ****   }
 823:Drivers/STM32F4xx_HAL_Driver/Src/stm32f4xx_hal_tim.c ****   else
 824:Drivers/STM32F4xx_HAL_Driver/Src/stm32f4xx_hal_tim.c ****   {
 825:Drivers/STM32F4xx_HAL_Driver/Src/stm32f4xx_hal_tim.c ****     __HAL_TIM_ENABLE(htim);
 1572              		.loc 1 825 5
 1573 0132 7B68     		ldr	r3, [r7, #4]
 1574 0134 1B68     		ldr	r3, [r3]
 1575 0136 1A68     		ldr	r2, [r3]
 1576 0138 7B68     		ldr	r3, [r7, #4]
 1577 013a 1B68     		ldr	r3, [r3]
 1578 013c 42F00102 		orr	r2, r2, #1
 1579 0140 1A60     		str	r2, [r3]
 1580              	.L80:
 826:Drivers/STM32F4xx_HAL_Driver/Src/stm32f4xx_hal_tim.c ****   }
 827:Drivers/STM32F4xx_HAL_Driver/Src/stm32f4xx_hal_tim.c **** 
 828:Drivers/STM32F4xx_HAL_Driver/Src/stm32f4xx_hal_tim.c ****   /* Return function status */
 829:Drivers/STM32F4xx_HAL_Driver/Src/stm32f4xx_hal_tim.c ****   return HAL_OK;
 1581              		.loc 1 829 10
 1582 0142 0023     		movs	r3, #0
 1583              	.L69:
 830:Drivers/STM32F4xx_HAL_Driver/Src/stm32f4xx_hal_tim.c **** }
 1584              		.loc 1 830 1
 1585 0144 1846     		mov	r0, r3
 1586 0146 1037     		adds	r7, r7, #16
 1587              	.LCFI81:
 1588              		.cfi_def_cfa_offset 8
ARM GAS  C:\Users\TGSPOC~1\AppData\Local\Temp\ccIyOLT8.s 			page 43


 1589 0148 BD46     		mov	sp, r7
 1590              	.LCFI82:
 1591              		.cfi_def_cfa_register 13
 1592              		@ sp needed
 1593 014a 80BD     		pop	{r7, pc}
 1594              	.L82:
 1595              		.align	2
 1596              	.L81:
 1597 014c 00000140 		.word	1073807360
 1598 0150 00040040 		.word	1073742848
 1599 0154 00080040 		.word	1073743872
 1600 0158 000C0040 		.word	1073744896
 1601 015c 00400140 		.word	1073823744
 1602              		.cfi_endproc
 1603              	.LFE148:
 1605              		.section	.text.HAL_TIM_OC_Stop,"ax",%progbits
 1606              		.align	1
 1607              		.global	HAL_TIM_OC_Stop
 1608              		.syntax unified
 1609              		.thumb
 1610              		.thumb_func
 1612              	HAL_TIM_OC_Stop:
 1613              	.LFB149:
 831:Drivers/STM32F4xx_HAL_Driver/Src/stm32f4xx_hal_tim.c **** 
 832:Drivers/STM32F4xx_HAL_Driver/Src/stm32f4xx_hal_tim.c **** /**
 833:Drivers/STM32F4xx_HAL_Driver/Src/stm32f4xx_hal_tim.c ****   * @brief  Stops the TIM Output Compare signal generation.
 834:Drivers/STM32F4xx_HAL_Driver/Src/stm32f4xx_hal_tim.c ****   * @param  htim TIM Output Compare handle
 835:Drivers/STM32F4xx_HAL_Driver/Src/stm32f4xx_hal_tim.c ****   * @param  Channel TIM Channel to be disabled
 836:Drivers/STM32F4xx_HAL_Driver/Src/stm32f4xx_hal_tim.c ****   *          This parameter can be one of the following values:
 837:Drivers/STM32F4xx_HAL_Driver/Src/stm32f4xx_hal_tim.c ****   *            @arg TIM_CHANNEL_1: TIM Channel 1 selected
 838:Drivers/STM32F4xx_HAL_Driver/Src/stm32f4xx_hal_tim.c ****   *            @arg TIM_CHANNEL_2: TIM Channel 2 selected
 839:Drivers/STM32F4xx_HAL_Driver/Src/stm32f4xx_hal_tim.c ****   *            @arg TIM_CHANNEL_3: TIM Channel 3 selected
 840:Drivers/STM32F4xx_HAL_Driver/Src/stm32f4xx_hal_tim.c ****   *            @arg TIM_CHANNEL_4: TIM Channel 4 selected
 841:Drivers/STM32F4xx_HAL_Driver/Src/stm32f4xx_hal_tim.c ****   * @retval HAL status
 842:Drivers/STM32F4xx_HAL_Driver/Src/stm32f4xx_hal_tim.c ****   */
 843:Drivers/STM32F4xx_HAL_Driver/Src/stm32f4xx_hal_tim.c **** HAL_StatusTypeDef HAL_TIM_OC_Stop(TIM_HandleTypeDef *htim, uint32_t Channel)
 844:Drivers/STM32F4xx_HAL_Driver/Src/stm32f4xx_hal_tim.c **** {
 1614              		.loc 1 844 1
 1615              		.cfi_startproc
 1616              		@ args = 0, pretend = 0, frame = 8
 1617              		@ frame_needed = 1, uses_anonymous_args = 0
 1618 0000 80B5     		push	{r7, lr}
 1619              	.LCFI83:
 1620              		.cfi_def_cfa_offset 8
 1621              		.cfi_offset 7, -8
 1622              		.cfi_offset 14, -4
 1623 0002 82B0     		sub	sp, sp, #8
 1624              	.LCFI84:
 1625              		.cfi_def_cfa_offset 16
 1626 0004 00AF     		add	r7, sp, #0
 1627              	.LCFI85:
 1628              		.cfi_def_cfa_register 7
 1629 0006 7860     		str	r0, [r7, #4]
 1630 0008 3960     		str	r1, [r7]
 845:Drivers/STM32F4xx_HAL_Driver/Src/stm32f4xx_hal_tim.c ****   /* Check the parameters */
 846:Drivers/STM32F4xx_HAL_Driver/Src/stm32f4xx_hal_tim.c ****   assert_param(IS_TIM_CCX_INSTANCE(htim->Instance, Channel));
 847:Drivers/STM32F4xx_HAL_Driver/Src/stm32f4xx_hal_tim.c **** 
ARM GAS  C:\Users\TGSPOC~1\AppData\Local\Temp\ccIyOLT8.s 			page 44


 848:Drivers/STM32F4xx_HAL_Driver/Src/stm32f4xx_hal_tim.c ****   /* Disable the Output compare channel */
 849:Drivers/STM32F4xx_HAL_Driver/Src/stm32f4xx_hal_tim.c ****   TIM_CCxChannelCmd(htim->Instance, Channel, TIM_CCx_DISABLE);
 1631              		.loc 1 849 3
 1632 000a 7B68     		ldr	r3, [r7, #4]
 1633 000c 1B68     		ldr	r3, [r3]
 1634 000e 0022     		movs	r2, #0
 1635 0010 3968     		ldr	r1, [r7]
 1636 0012 1846     		mov	r0, r3
 1637 0014 FFF7FEFF 		bl	TIM_CCxChannelCmd
 850:Drivers/STM32F4xx_HAL_Driver/Src/stm32f4xx_hal_tim.c **** 
 851:Drivers/STM32F4xx_HAL_Driver/Src/stm32f4xx_hal_tim.c ****   if (IS_TIM_BREAK_INSTANCE(htim->Instance) != RESET)
 1638              		.loc 1 851 7
 1639 0018 7B68     		ldr	r3, [r7, #4]
 1640 001a 1B68     		ldr	r3, [r3]
 1641              		.loc 1 851 6
 1642 001c 294A     		ldr	r2, .L93
 1643 001e 9342     		cmp	r3, r2
 1644 0020 17D1     		bne	.L84
 852:Drivers/STM32F4xx_HAL_Driver/Src/stm32f4xx_hal_tim.c ****   {
 853:Drivers/STM32F4xx_HAL_Driver/Src/stm32f4xx_hal_tim.c ****     /* Disable the Main Output */
 854:Drivers/STM32F4xx_HAL_Driver/Src/stm32f4xx_hal_tim.c ****     __HAL_TIM_MOE_DISABLE(htim);
 1645              		.loc 1 854 5
 1646 0022 7B68     		ldr	r3, [r7, #4]
 1647 0024 1B68     		ldr	r3, [r3]
 1648 0026 1A6A     		ldr	r2, [r3, #32]
 1649 0028 41F21113 		movw	r3, #4369
 1650 002c 1340     		ands	r3, r3, r2
 1651 002e 002B     		cmp	r3, #0
 1652 0030 0FD1     		bne	.L84
 1653              		.loc 1 854 5 is_stmt 0 discriminator 1
 1654 0032 7B68     		ldr	r3, [r7, #4]
 1655 0034 1B68     		ldr	r3, [r3]
 1656 0036 1A6A     		ldr	r2, [r3, #32]
 1657 0038 40F24443 		movw	r3, #1092
 1658 003c 1340     		ands	r3, r3, r2
 1659 003e 002B     		cmp	r3, #0
 1660 0040 07D1     		bne	.L84
 1661              		.loc 1 854 5 discriminator 2
 1662 0042 7B68     		ldr	r3, [r7, #4]
 1663 0044 1B68     		ldr	r3, [r3]
 1664 0046 5A6C     		ldr	r2, [r3, #68]
 1665 0048 7B68     		ldr	r3, [r7, #4]
 1666 004a 1B68     		ldr	r3, [r3]
 1667 004c 22F40042 		bic	r2, r2, #32768
 1668 0050 5A64     		str	r2, [r3, #68]
 1669              	.L84:
 855:Drivers/STM32F4xx_HAL_Driver/Src/stm32f4xx_hal_tim.c ****   }
 856:Drivers/STM32F4xx_HAL_Driver/Src/stm32f4xx_hal_tim.c **** 
 857:Drivers/STM32F4xx_HAL_Driver/Src/stm32f4xx_hal_tim.c ****   /* Disable the Peripheral */
 858:Drivers/STM32F4xx_HAL_Driver/Src/stm32f4xx_hal_tim.c ****   __HAL_TIM_DISABLE(htim);
 1670              		.loc 1 858 3 is_stmt 1
 1671 0052 7B68     		ldr	r3, [r7, #4]
 1672 0054 1B68     		ldr	r3, [r3]
 1673 0056 1A6A     		ldr	r2, [r3, #32]
 1674 0058 41F21113 		movw	r3, #4369
 1675 005c 1340     		ands	r3, r3, r2
 1676 005e 002B     		cmp	r3, #0
ARM GAS  C:\Users\TGSPOC~1\AppData\Local\Temp\ccIyOLT8.s 			page 45


 1677 0060 0FD1     		bne	.L85
 1678              		.loc 1 858 3 is_stmt 0 discriminator 1
 1679 0062 7B68     		ldr	r3, [r7, #4]
 1680 0064 1B68     		ldr	r3, [r3]
 1681 0066 1A6A     		ldr	r2, [r3, #32]
 1682 0068 40F24443 		movw	r3, #1092
 1683 006c 1340     		ands	r3, r3, r2
 1684 006e 002B     		cmp	r3, #0
 1685 0070 07D1     		bne	.L85
 1686              		.loc 1 858 3 discriminator 2
 1687 0072 7B68     		ldr	r3, [r7, #4]
 1688 0074 1B68     		ldr	r3, [r3]
 1689 0076 1A68     		ldr	r2, [r3]
 1690 0078 7B68     		ldr	r3, [r7, #4]
 1691 007a 1B68     		ldr	r3, [r3]
 1692 007c 22F00102 		bic	r2, r2, #1
 1693 0080 1A60     		str	r2, [r3]
 1694              	.L85:
 859:Drivers/STM32F4xx_HAL_Driver/Src/stm32f4xx_hal_tim.c **** 
 860:Drivers/STM32F4xx_HAL_Driver/Src/stm32f4xx_hal_tim.c ****   /* Set the TIM channel state */
 861:Drivers/STM32F4xx_HAL_Driver/Src/stm32f4xx_hal_tim.c ****   TIM_CHANNEL_STATE_SET(htim, Channel, HAL_TIM_CHANNEL_STATE_READY);
 1695              		.loc 1 861 3 is_stmt 1
 1696 0082 3B68     		ldr	r3, [r7]
 1697 0084 002B     		cmp	r3, #0
 1698 0086 04D1     		bne	.L86
 1699              		.loc 1 861 3 is_stmt 0 discriminator 1
 1700 0088 7B68     		ldr	r3, [r7, #4]
 1701 008a 0122     		movs	r2, #1
 1702 008c 83F83E20 		strb	r2, [r3, #62]
 1703 0090 13E0     		b	.L87
 1704              	.L86:
 1705              		.loc 1 861 3 discriminator 2
 1706 0092 3B68     		ldr	r3, [r7]
 1707 0094 042B     		cmp	r3, #4
 1708 0096 04D1     		bne	.L88
 1709              		.loc 1 861 3 discriminator 3
 1710 0098 7B68     		ldr	r3, [r7, #4]
 1711 009a 0122     		movs	r2, #1
 1712 009c 83F83F20 		strb	r2, [r3, #63]
 1713 00a0 0BE0     		b	.L87
 1714              	.L88:
 1715              		.loc 1 861 3 discriminator 4
 1716 00a2 3B68     		ldr	r3, [r7]
 1717 00a4 082B     		cmp	r3, #8
 1718 00a6 04D1     		bne	.L90
 1719              		.loc 1 861 3 discriminator 6
 1720 00a8 7B68     		ldr	r3, [r7, #4]
 1721 00aa 0122     		movs	r2, #1
 1722 00ac 83F84020 		strb	r2, [r3, #64]
 1723 00b0 03E0     		b	.L87
 1724              	.L90:
 1725              		.loc 1 861 3 discriminator 7
 1726 00b2 7B68     		ldr	r3, [r7, #4]
 1727 00b4 0122     		movs	r2, #1
 1728 00b6 83F84120 		strb	r2, [r3, #65]
 1729              	.L87:
 862:Drivers/STM32F4xx_HAL_Driver/Src/stm32f4xx_hal_tim.c **** 
ARM GAS  C:\Users\TGSPOC~1\AppData\Local\Temp\ccIyOLT8.s 			page 46


 863:Drivers/STM32F4xx_HAL_Driver/Src/stm32f4xx_hal_tim.c ****   /* Return function status */
 864:Drivers/STM32F4xx_HAL_Driver/Src/stm32f4xx_hal_tim.c ****   return HAL_OK;
 1730              		.loc 1 864 10 is_stmt 1
 1731 00ba 0023     		movs	r3, #0
 865:Drivers/STM32F4xx_HAL_Driver/Src/stm32f4xx_hal_tim.c **** }
 1732              		.loc 1 865 1
 1733 00bc 1846     		mov	r0, r3
 1734 00be 0837     		adds	r7, r7, #8
 1735              	.LCFI86:
 1736              		.cfi_def_cfa_offset 8
 1737 00c0 BD46     		mov	sp, r7
 1738              	.LCFI87:
 1739              		.cfi_def_cfa_register 13
 1740              		@ sp needed
 1741 00c2 80BD     		pop	{r7, pc}
 1742              	.L94:
 1743              		.align	2
 1744              	.L93:
 1745 00c4 00000140 		.word	1073807360
 1746              		.cfi_endproc
 1747              	.LFE149:
 1749              		.section	.text.HAL_TIM_OC_Start_IT,"ax",%progbits
 1750              		.align	1
 1751              		.global	HAL_TIM_OC_Start_IT
 1752              		.syntax unified
 1753              		.thumb
 1754              		.thumb_func
 1756              	HAL_TIM_OC_Start_IT:
 1757              	.LFB150:
 866:Drivers/STM32F4xx_HAL_Driver/Src/stm32f4xx_hal_tim.c **** 
 867:Drivers/STM32F4xx_HAL_Driver/Src/stm32f4xx_hal_tim.c **** /**
 868:Drivers/STM32F4xx_HAL_Driver/Src/stm32f4xx_hal_tim.c ****   * @brief  Starts the TIM Output Compare signal generation in interrupt mode.
 869:Drivers/STM32F4xx_HAL_Driver/Src/stm32f4xx_hal_tim.c ****   * @param  htim TIM Output Compare handle
 870:Drivers/STM32F4xx_HAL_Driver/Src/stm32f4xx_hal_tim.c ****   * @param  Channel TIM Channel to be enabled
 871:Drivers/STM32F4xx_HAL_Driver/Src/stm32f4xx_hal_tim.c ****   *          This parameter can be one of the following values:
 872:Drivers/STM32F4xx_HAL_Driver/Src/stm32f4xx_hal_tim.c ****   *            @arg TIM_CHANNEL_1: TIM Channel 1 selected
 873:Drivers/STM32F4xx_HAL_Driver/Src/stm32f4xx_hal_tim.c ****   *            @arg TIM_CHANNEL_2: TIM Channel 2 selected
 874:Drivers/STM32F4xx_HAL_Driver/Src/stm32f4xx_hal_tim.c ****   *            @arg TIM_CHANNEL_3: TIM Channel 3 selected
 875:Drivers/STM32F4xx_HAL_Driver/Src/stm32f4xx_hal_tim.c ****   *            @arg TIM_CHANNEL_4: TIM Channel 4 selected
 876:Drivers/STM32F4xx_HAL_Driver/Src/stm32f4xx_hal_tim.c ****   * @retval HAL status
 877:Drivers/STM32F4xx_HAL_Driver/Src/stm32f4xx_hal_tim.c ****   */
 878:Drivers/STM32F4xx_HAL_Driver/Src/stm32f4xx_hal_tim.c **** HAL_StatusTypeDef HAL_TIM_OC_Start_IT(TIM_HandleTypeDef *htim, uint32_t Channel)
 879:Drivers/STM32F4xx_HAL_Driver/Src/stm32f4xx_hal_tim.c **** {
 1758              		.loc 1 879 1
 1759              		.cfi_startproc
 1760              		@ args = 0, pretend = 0, frame = 16
 1761              		@ frame_needed = 1, uses_anonymous_args = 0
 1762 0000 80B5     		push	{r7, lr}
 1763              	.LCFI88:
 1764              		.cfi_def_cfa_offset 8
 1765              		.cfi_offset 7, -8
 1766              		.cfi_offset 14, -4
 1767 0002 84B0     		sub	sp, sp, #16
 1768              	.LCFI89:
 1769              		.cfi_def_cfa_offset 24
 1770 0004 00AF     		add	r7, sp, #0
 1771              	.LCFI90:
ARM GAS  C:\Users\TGSPOC~1\AppData\Local\Temp\ccIyOLT8.s 			page 47


 1772              		.cfi_def_cfa_register 7
 1773 0006 7860     		str	r0, [r7, #4]
 1774 0008 3960     		str	r1, [r7]
 880:Drivers/STM32F4xx_HAL_Driver/Src/stm32f4xx_hal_tim.c ****   HAL_StatusTypeDef status = HAL_OK;
 1775              		.loc 1 880 21
 1776 000a 0023     		movs	r3, #0
 1777 000c FB73     		strb	r3, [r7, #15]
 881:Drivers/STM32F4xx_HAL_Driver/Src/stm32f4xx_hal_tim.c ****   uint32_t tmpsmcr;
 882:Drivers/STM32F4xx_HAL_Driver/Src/stm32f4xx_hal_tim.c **** 
 883:Drivers/STM32F4xx_HAL_Driver/Src/stm32f4xx_hal_tim.c ****   /* Check the parameters */
 884:Drivers/STM32F4xx_HAL_Driver/Src/stm32f4xx_hal_tim.c ****   assert_param(IS_TIM_CCX_INSTANCE(htim->Instance, Channel));
 885:Drivers/STM32F4xx_HAL_Driver/Src/stm32f4xx_hal_tim.c **** 
 886:Drivers/STM32F4xx_HAL_Driver/Src/stm32f4xx_hal_tim.c ****   /* Check the TIM channel state */
 887:Drivers/STM32F4xx_HAL_Driver/Src/stm32f4xx_hal_tim.c ****   if (TIM_CHANNEL_STATE_GET(htim, Channel) != HAL_TIM_CHANNEL_STATE_READY)
 1778              		.loc 1 887 44
 1779 000e 3B68     		ldr	r3, [r7]
 1780 0010 002B     		cmp	r3, #0
 1781 0012 09D1     		bne	.L96
 1782              		.loc 1 887 7 discriminator 1
 1783 0014 7B68     		ldr	r3, [r7, #4]
 1784 0016 93F83E30 		ldrb	r3, [r3, #62]
 1785 001a DBB2     		uxtb	r3, r3
 1786              		.loc 1 887 44 discriminator 1
 1787 001c 012B     		cmp	r3, #1
 1788 001e 14BF     		ite	ne
 1789 0020 0123     		movne	r3, #1
 1790 0022 0023     		moveq	r3, #0
 1791 0024 DBB2     		uxtb	r3, r3
 1792 0026 22E0     		b	.L97
 1793              	.L96:
 1794              		.loc 1 887 44 is_stmt 0 discriminator 2
 1795 0028 3B68     		ldr	r3, [r7]
 1796 002a 042B     		cmp	r3, #4
 1797 002c 09D1     		bne	.L98
 1798              		.loc 1 887 7 is_stmt 1 discriminator 4
 1799 002e 7B68     		ldr	r3, [r7, #4]
 1800 0030 93F83F30 		ldrb	r3, [r3, #63]
 1801 0034 DBB2     		uxtb	r3, r3
 1802              		.loc 1 887 44 discriminator 4
 1803 0036 012B     		cmp	r3, #1
 1804 0038 14BF     		ite	ne
 1805 003a 0123     		movne	r3, #1
 1806 003c 0023     		moveq	r3, #0
 1807 003e DBB2     		uxtb	r3, r3
 1808 0040 15E0     		b	.L97
 1809              	.L98:
 1810              		.loc 1 887 44 is_stmt 0 discriminator 5
 1811 0042 3B68     		ldr	r3, [r7]
 1812 0044 082B     		cmp	r3, #8
 1813 0046 09D1     		bne	.L100
 1814              		.loc 1 887 7 is_stmt 1 discriminator 7
 1815 0048 7B68     		ldr	r3, [r7, #4]
 1816 004a 93F84030 		ldrb	r3, [r3, #64]
 1817 004e DBB2     		uxtb	r3, r3
 1818              		.loc 1 887 44 discriminator 7
 1819 0050 012B     		cmp	r3, #1
 1820 0052 14BF     		ite	ne
ARM GAS  C:\Users\TGSPOC~1\AppData\Local\Temp\ccIyOLT8.s 			page 48


 1821 0054 0123     		movne	r3, #1
 1822 0056 0023     		moveq	r3, #0
 1823 0058 DBB2     		uxtb	r3, r3
 1824 005a 08E0     		b	.L97
 1825              	.L100:
 1826              		.loc 1 887 7 discriminator 8
 1827 005c 7B68     		ldr	r3, [r7, #4]
 1828 005e 93F84130 		ldrb	r3, [r3, #65]
 1829 0062 DBB2     		uxtb	r3, r3
 1830              		.loc 1 887 44 discriminator 8
 1831 0064 012B     		cmp	r3, #1
 1832 0066 14BF     		ite	ne
 1833 0068 0123     		movne	r3, #1
 1834 006a 0023     		moveq	r3, #0
 1835 006c DBB2     		uxtb	r3, r3
 1836              	.L97:
 1837              		.loc 1 887 6 discriminator 12
 1838 006e 002B     		cmp	r3, #0
 1839 0070 01D0     		beq	.L102
 888:Drivers/STM32F4xx_HAL_Driver/Src/stm32f4xx_hal_tim.c ****   {
 889:Drivers/STM32F4xx_HAL_Driver/Src/stm32f4xx_hal_tim.c ****     return HAL_ERROR;
 1840              		.loc 1 889 12
 1841 0072 0123     		movs	r3, #1
 1842 0074 B3E0     		b	.L103
 1843              	.L102:
 890:Drivers/STM32F4xx_HAL_Driver/Src/stm32f4xx_hal_tim.c ****   }
 891:Drivers/STM32F4xx_HAL_Driver/Src/stm32f4xx_hal_tim.c **** 
 892:Drivers/STM32F4xx_HAL_Driver/Src/stm32f4xx_hal_tim.c ****   /* Set the TIM channel state */
 893:Drivers/STM32F4xx_HAL_Driver/Src/stm32f4xx_hal_tim.c ****   TIM_CHANNEL_STATE_SET(htim, Channel, HAL_TIM_CHANNEL_STATE_BUSY);
 1844              		.loc 1 893 3
 1845 0076 3B68     		ldr	r3, [r7]
 1846 0078 002B     		cmp	r3, #0
 1847 007a 04D1     		bne	.L104
 1848              		.loc 1 893 3 is_stmt 0 discriminator 1
 1849 007c 7B68     		ldr	r3, [r7, #4]
 1850 007e 0222     		movs	r2, #2
 1851 0080 83F83E20 		strb	r2, [r3, #62]
 1852 0084 13E0     		b	.L105
 1853              	.L104:
 1854              		.loc 1 893 3 discriminator 2
 1855 0086 3B68     		ldr	r3, [r7]
 1856 0088 042B     		cmp	r3, #4
 1857 008a 04D1     		bne	.L106
 1858              		.loc 1 893 3 discriminator 3
 1859 008c 7B68     		ldr	r3, [r7, #4]
 1860 008e 0222     		movs	r2, #2
 1861 0090 83F83F20 		strb	r2, [r3, #63]
 1862 0094 0BE0     		b	.L105
 1863              	.L106:
 1864              		.loc 1 893 3 discriminator 4
 1865 0096 3B68     		ldr	r3, [r7]
 1866 0098 082B     		cmp	r3, #8
 1867 009a 04D1     		bne	.L108
 1868              		.loc 1 893 3 discriminator 6
 1869 009c 7B68     		ldr	r3, [r7, #4]
 1870 009e 0222     		movs	r2, #2
 1871 00a0 83F84020 		strb	r2, [r3, #64]
ARM GAS  C:\Users\TGSPOC~1\AppData\Local\Temp\ccIyOLT8.s 			page 49


 1872 00a4 03E0     		b	.L105
 1873              	.L108:
 1874              		.loc 1 893 3 discriminator 7
 1875 00a6 7B68     		ldr	r3, [r7, #4]
 1876 00a8 0222     		movs	r2, #2
 1877 00aa 83F84120 		strb	r2, [r3, #65]
 1878              	.L105:
 894:Drivers/STM32F4xx_HAL_Driver/Src/stm32f4xx_hal_tim.c **** 
 895:Drivers/STM32F4xx_HAL_Driver/Src/stm32f4xx_hal_tim.c ****   switch (Channel)
 1879              		.loc 1 895 3 is_stmt 1
 1880 00ae 3B68     		ldr	r3, [r7]
 1881 00b0 0C2B     		cmp	r3, #12
 1882 00b2 41D8     		bhi	.L110
 1883 00b4 01A2     		adr	r2, .L112
 1884 00b6 52F823F0 		ldr	pc, [r2, r3, lsl #2]
 1885 00ba 00BF     		.p2align 2
 1886              	.L112:
 1887 00bc F1000000 		.word	.L115+1
 1888 00c0 39010000 		.word	.L110+1
 1889 00c4 39010000 		.word	.L110+1
 1890 00c8 39010000 		.word	.L110+1
 1891 00cc 03010000 		.word	.L114+1
 1892 00d0 39010000 		.word	.L110+1
 1893 00d4 39010000 		.word	.L110+1
 1894 00d8 39010000 		.word	.L110+1
 1895 00dc 15010000 		.word	.L113+1
 1896 00e0 39010000 		.word	.L110+1
 1897 00e4 39010000 		.word	.L110+1
 1898 00e8 39010000 		.word	.L110+1
 1899 00ec 27010000 		.word	.L111+1
 1900              		.p2align 1
 1901              	.L115:
 896:Drivers/STM32F4xx_HAL_Driver/Src/stm32f4xx_hal_tim.c ****   {
 897:Drivers/STM32F4xx_HAL_Driver/Src/stm32f4xx_hal_tim.c ****     case TIM_CHANNEL_1:
 898:Drivers/STM32F4xx_HAL_Driver/Src/stm32f4xx_hal_tim.c ****     {
 899:Drivers/STM32F4xx_HAL_Driver/Src/stm32f4xx_hal_tim.c ****       /* Enable the TIM Capture/Compare 1 interrupt */
 900:Drivers/STM32F4xx_HAL_Driver/Src/stm32f4xx_hal_tim.c ****       __HAL_TIM_ENABLE_IT(htim, TIM_IT_CC1);
 1902              		.loc 1 900 7
 1903 00f0 7B68     		ldr	r3, [r7, #4]
 1904 00f2 1B68     		ldr	r3, [r3]
 1905 00f4 DA68     		ldr	r2, [r3, #12]
 1906 00f6 7B68     		ldr	r3, [r7, #4]
 1907 00f8 1B68     		ldr	r3, [r3]
 1908 00fa 42F00202 		orr	r2, r2, #2
 1909 00fe DA60     		str	r2, [r3, #12]
 901:Drivers/STM32F4xx_HAL_Driver/Src/stm32f4xx_hal_tim.c ****       break;
 1910              		.loc 1 901 7
 1911 0100 1DE0     		b	.L116
 1912              	.L114:
 902:Drivers/STM32F4xx_HAL_Driver/Src/stm32f4xx_hal_tim.c ****     }
 903:Drivers/STM32F4xx_HAL_Driver/Src/stm32f4xx_hal_tim.c **** 
 904:Drivers/STM32F4xx_HAL_Driver/Src/stm32f4xx_hal_tim.c ****     case TIM_CHANNEL_2:
 905:Drivers/STM32F4xx_HAL_Driver/Src/stm32f4xx_hal_tim.c ****     {
 906:Drivers/STM32F4xx_HAL_Driver/Src/stm32f4xx_hal_tim.c ****       /* Enable the TIM Capture/Compare 2 interrupt */
 907:Drivers/STM32F4xx_HAL_Driver/Src/stm32f4xx_hal_tim.c ****       __HAL_TIM_ENABLE_IT(htim, TIM_IT_CC2);
 1913              		.loc 1 907 7
 1914 0102 7B68     		ldr	r3, [r7, #4]
ARM GAS  C:\Users\TGSPOC~1\AppData\Local\Temp\ccIyOLT8.s 			page 50


 1915 0104 1B68     		ldr	r3, [r3]
 1916 0106 DA68     		ldr	r2, [r3, #12]
 1917 0108 7B68     		ldr	r3, [r7, #4]
 1918 010a 1B68     		ldr	r3, [r3]
 1919 010c 42F00402 		orr	r2, r2, #4
 1920 0110 DA60     		str	r2, [r3, #12]
 908:Drivers/STM32F4xx_HAL_Driver/Src/stm32f4xx_hal_tim.c ****       break;
 1921              		.loc 1 908 7
 1922 0112 14E0     		b	.L116
 1923              	.L113:
 909:Drivers/STM32F4xx_HAL_Driver/Src/stm32f4xx_hal_tim.c ****     }
 910:Drivers/STM32F4xx_HAL_Driver/Src/stm32f4xx_hal_tim.c **** 
 911:Drivers/STM32F4xx_HAL_Driver/Src/stm32f4xx_hal_tim.c ****     case TIM_CHANNEL_3:
 912:Drivers/STM32F4xx_HAL_Driver/Src/stm32f4xx_hal_tim.c ****     {
 913:Drivers/STM32F4xx_HAL_Driver/Src/stm32f4xx_hal_tim.c ****       /* Enable the TIM Capture/Compare 3 interrupt */
 914:Drivers/STM32F4xx_HAL_Driver/Src/stm32f4xx_hal_tim.c ****       __HAL_TIM_ENABLE_IT(htim, TIM_IT_CC3);
 1924              		.loc 1 914 7
 1925 0114 7B68     		ldr	r3, [r7, #4]
 1926 0116 1B68     		ldr	r3, [r3]
 1927 0118 DA68     		ldr	r2, [r3, #12]
 1928 011a 7B68     		ldr	r3, [r7, #4]
 1929 011c 1B68     		ldr	r3, [r3]
 1930 011e 42F00802 		orr	r2, r2, #8
 1931 0122 DA60     		str	r2, [r3, #12]
 915:Drivers/STM32F4xx_HAL_Driver/Src/stm32f4xx_hal_tim.c ****       break;
 1932              		.loc 1 915 7
 1933 0124 0BE0     		b	.L116
 1934              	.L111:
 916:Drivers/STM32F4xx_HAL_Driver/Src/stm32f4xx_hal_tim.c ****     }
 917:Drivers/STM32F4xx_HAL_Driver/Src/stm32f4xx_hal_tim.c **** 
 918:Drivers/STM32F4xx_HAL_Driver/Src/stm32f4xx_hal_tim.c ****     case TIM_CHANNEL_4:
 919:Drivers/STM32F4xx_HAL_Driver/Src/stm32f4xx_hal_tim.c ****     {
 920:Drivers/STM32F4xx_HAL_Driver/Src/stm32f4xx_hal_tim.c ****       /* Enable the TIM Capture/Compare 4 interrupt */
 921:Drivers/STM32F4xx_HAL_Driver/Src/stm32f4xx_hal_tim.c ****       __HAL_TIM_ENABLE_IT(htim, TIM_IT_CC4);
 1935              		.loc 1 921 7
 1936 0126 7B68     		ldr	r3, [r7, #4]
 1937 0128 1B68     		ldr	r3, [r3]
 1938 012a DA68     		ldr	r2, [r3, #12]
 1939 012c 7B68     		ldr	r3, [r7, #4]
 1940 012e 1B68     		ldr	r3, [r3]
 1941 0130 42F01002 		orr	r2, r2, #16
 1942 0134 DA60     		str	r2, [r3, #12]
 922:Drivers/STM32F4xx_HAL_Driver/Src/stm32f4xx_hal_tim.c ****       break;
 1943              		.loc 1 922 7
 1944 0136 02E0     		b	.L116
 1945              	.L110:
 923:Drivers/STM32F4xx_HAL_Driver/Src/stm32f4xx_hal_tim.c ****     }
 924:Drivers/STM32F4xx_HAL_Driver/Src/stm32f4xx_hal_tim.c **** 
 925:Drivers/STM32F4xx_HAL_Driver/Src/stm32f4xx_hal_tim.c ****     default:
 926:Drivers/STM32F4xx_HAL_Driver/Src/stm32f4xx_hal_tim.c ****       status = HAL_ERROR;
 1946              		.loc 1 926 14
 1947 0138 0123     		movs	r3, #1
 1948 013a FB73     		strb	r3, [r7, #15]
 927:Drivers/STM32F4xx_HAL_Driver/Src/stm32f4xx_hal_tim.c ****       break;
 1949              		.loc 1 927 7
 1950 013c 00BF     		nop
 1951              	.L116:
ARM GAS  C:\Users\TGSPOC~1\AppData\Local\Temp\ccIyOLT8.s 			page 51


 928:Drivers/STM32F4xx_HAL_Driver/Src/stm32f4xx_hal_tim.c ****   }
 929:Drivers/STM32F4xx_HAL_Driver/Src/stm32f4xx_hal_tim.c **** 
 930:Drivers/STM32F4xx_HAL_Driver/Src/stm32f4xx_hal_tim.c ****   if (status == HAL_OK)
 1952              		.loc 1 930 6
 1953 013e FB7B     		ldrb	r3, [r7, #15]	@ zero_extendqisi2
 1954 0140 002B     		cmp	r3, #0
 1955 0142 4BD1     		bne	.L117
 931:Drivers/STM32F4xx_HAL_Driver/Src/stm32f4xx_hal_tim.c ****   {
 932:Drivers/STM32F4xx_HAL_Driver/Src/stm32f4xx_hal_tim.c ****     /* Enable the Output compare channel */
 933:Drivers/STM32F4xx_HAL_Driver/Src/stm32f4xx_hal_tim.c ****     TIM_CCxChannelCmd(htim->Instance, Channel, TIM_CCx_ENABLE);
 1956              		.loc 1 933 5
 1957 0144 7B68     		ldr	r3, [r7, #4]
 1958 0146 1B68     		ldr	r3, [r3]
 1959 0148 0122     		movs	r2, #1
 1960 014a 3968     		ldr	r1, [r7]
 1961 014c 1846     		mov	r0, r3
 1962 014e FFF7FEFF 		bl	TIM_CCxChannelCmd
 934:Drivers/STM32F4xx_HAL_Driver/Src/stm32f4xx_hal_tim.c **** 
 935:Drivers/STM32F4xx_HAL_Driver/Src/stm32f4xx_hal_tim.c ****     if (IS_TIM_BREAK_INSTANCE(htim->Instance) != RESET)
 1963              		.loc 1 935 9
 1964 0152 7B68     		ldr	r3, [r7, #4]
 1965 0154 1B68     		ldr	r3, [r3]
 1966              		.loc 1 935 8
 1967 0156 244A     		ldr	r2, .L122
 1968 0158 9342     		cmp	r3, r2
 1969 015a 07D1     		bne	.L118
 936:Drivers/STM32F4xx_HAL_Driver/Src/stm32f4xx_hal_tim.c ****     {
 937:Drivers/STM32F4xx_HAL_Driver/Src/stm32f4xx_hal_tim.c ****       /* Enable the main output */
 938:Drivers/STM32F4xx_HAL_Driver/Src/stm32f4xx_hal_tim.c ****       __HAL_TIM_MOE_ENABLE(htim);
 1970              		.loc 1 938 7
 1971 015c 7B68     		ldr	r3, [r7, #4]
 1972 015e 1B68     		ldr	r3, [r3]
 1973 0160 5A6C     		ldr	r2, [r3, #68]
 1974 0162 7B68     		ldr	r3, [r7, #4]
 1975 0164 1B68     		ldr	r3, [r3]
 1976 0166 42F40042 		orr	r2, r2, #32768
 1977 016a 5A64     		str	r2, [r3, #68]
 1978              	.L118:
 939:Drivers/STM32F4xx_HAL_Driver/Src/stm32f4xx_hal_tim.c ****     }
 940:Drivers/STM32F4xx_HAL_Driver/Src/stm32f4xx_hal_tim.c **** 
 941:Drivers/STM32F4xx_HAL_Driver/Src/stm32f4xx_hal_tim.c ****     /* Enable the Peripheral, except in trigger mode where enable is automatically done with trigge
 942:Drivers/STM32F4xx_HAL_Driver/Src/stm32f4xx_hal_tim.c ****     if (IS_TIM_SLAVE_INSTANCE(htim->Instance))
 1979              		.loc 1 942 9
 1980 016c 7B68     		ldr	r3, [r7, #4]
 1981 016e 1B68     		ldr	r3, [r3]
 1982              		.loc 1 942 8
 1983 0170 1D4A     		ldr	r2, .L122
 1984 0172 9342     		cmp	r3, r2
 1985 0174 18D0     		beq	.L119
 1986              		.loc 1 942 9 discriminator 1
 1987 0176 7B68     		ldr	r3, [r7, #4]
 1988 0178 1B68     		ldr	r3, [r3]
 1989 017a B3F1804F 		cmp	r3, #1073741824
 1990 017e 13D0     		beq	.L119
 1991              		.loc 1 942 9 is_stmt 0 discriminator 2
 1992 0180 7B68     		ldr	r3, [r7, #4]
 1993 0182 1B68     		ldr	r3, [r3]
ARM GAS  C:\Users\TGSPOC~1\AppData\Local\Temp\ccIyOLT8.s 			page 52


 1994 0184 194A     		ldr	r2, .L122+4
 1995 0186 9342     		cmp	r3, r2
 1996 0188 0ED0     		beq	.L119
 1997              		.loc 1 942 9 discriminator 3
 1998 018a 7B68     		ldr	r3, [r7, #4]
 1999 018c 1B68     		ldr	r3, [r3]
 2000 018e 184A     		ldr	r2, .L122+8
 2001 0190 9342     		cmp	r3, r2
 2002 0192 09D0     		beq	.L119
 2003              		.loc 1 942 9 discriminator 4
 2004 0194 7B68     		ldr	r3, [r7, #4]
 2005 0196 1B68     		ldr	r3, [r3]
 2006 0198 164A     		ldr	r2, .L122+12
 2007 019a 9342     		cmp	r3, r2
 2008 019c 04D0     		beq	.L119
 2009              		.loc 1 942 9 discriminator 5
 2010 019e 7B68     		ldr	r3, [r7, #4]
 2011 01a0 1B68     		ldr	r3, [r3]
 2012 01a2 154A     		ldr	r2, .L122+16
 2013 01a4 9342     		cmp	r3, r2
 2014 01a6 11D1     		bne	.L120
 2015              	.L119:
 943:Drivers/STM32F4xx_HAL_Driver/Src/stm32f4xx_hal_tim.c ****     {
 944:Drivers/STM32F4xx_HAL_Driver/Src/stm32f4xx_hal_tim.c ****       tmpsmcr = htim->Instance->SMCR & TIM_SMCR_SMS;
 2016              		.loc 1 944 21 is_stmt 1
 2017 01a8 7B68     		ldr	r3, [r7, #4]
 2018 01aa 1B68     		ldr	r3, [r3]
 2019              		.loc 1 944 31
 2020 01ac 9B68     		ldr	r3, [r3, #8]
 2021              		.loc 1 944 15
 2022 01ae 03F00703 		and	r3, r3, #7
 2023 01b2 BB60     		str	r3, [r7, #8]
 945:Drivers/STM32F4xx_HAL_Driver/Src/stm32f4xx_hal_tim.c ****       if (!IS_TIM_SLAVEMODE_TRIGGER_ENABLED(tmpsmcr))
 2024              		.loc 1 945 10
 2025 01b4 BB68     		ldr	r3, [r7, #8]
 2026 01b6 062B     		cmp	r3, #6
 2027 01b8 10D0     		beq	.L117
 946:Drivers/STM32F4xx_HAL_Driver/Src/stm32f4xx_hal_tim.c ****       {
 947:Drivers/STM32F4xx_HAL_Driver/Src/stm32f4xx_hal_tim.c ****         __HAL_TIM_ENABLE(htim);
 2028              		.loc 1 947 9
 2029 01ba 7B68     		ldr	r3, [r7, #4]
 2030 01bc 1B68     		ldr	r3, [r3]
 2031 01be 1A68     		ldr	r2, [r3]
 2032 01c0 7B68     		ldr	r3, [r7, #4]
 2033 01c2 1B68     		ldr	r3, [r3]
 2034 01c4 42F00102 		orr	r2, r2, #1
 2035 01c8 1A60     		str	r2, [r3]
 945:Drivers/STM32F4xx_HAL_Driver/Src/stm32f4xx_hal_tim.c ****       if (!IS_TIM_SLAVEMODE_TRIGGER_ENABLED(tmpsmcr))
 2036              		.loc 1 945 10
 2037 01ca 07E0     		b	.L117
 2038              	.L120:
 948:Drivers/STM32F4xx_HAL_Driver/Src/stm32f4xx_hal_tim.c ****       }
 949:Drivers/STM32F4xx_HAL_Driver/Src/stm32f4xx_hal_tim.c ****     }
 950:Drivers/STM32F4xx_HAL_Driver/Src/stm32f4xx_hal_tim.c ****     else
 951:Drivers/STM32F4xx_HAL_Driver/Src/stm32f4xx_hal_tim.c ****     {
 952:Drivers/STM32F4xx_HAL_Driver/Src/stm32f4xx_hal_tim.c ****       __HAL_TIM_ENABLE(htim);
 2039              		.loc 1 952 7
ARM GAS  C:\Users\TGSPOC~1\AppData\Local\Temp\ccIyOLT8.s 			page 53


 2040 01cc 7B68     		ldr	r3, [r7, #4]
 2041 01ce 1B68     		ldr	r3, [r3]
 2042 01d0 1A68     		ldr	r2, [r3]
 2043 01d2 7B68     		ldr	r3, [r7, #4]
 2044 01d4 1B68     		ldr	r3, [r3]
 2045 01d6 42F00102 		orr	r2, r2, #1
 2046 01da 1A60     		str	r2, [r3]
 2047              	.L117:
 953:Drivers/STM32F4xx_HAL_Driver/Src/stm32f4xx_hal_tim.c ****     }
 954:Drivers/STM32F4xx_HAL_Driver/Src/stm32f4xx_hal_tim.c ****   }
 955:Drivers/STM32F4xx_HAL_Driver/Src/stm32f4xx_hal_tim.c **** 
 956:Drivers/STM32F4xx_HAL_Driver/Src/stm32f4xx_hal_tim.c ****   /* Return function status */
 957:Drivers/STM32F4xx_HAL_Driver/Src/stm32f4xx_hal_tim.c ****   return status;
 2048              		.loc 1 957 10
 2049 01dc FB7B     		ldrb	r3, [r7, #15]	@ zero_extendqisi2
 2050              	.L103:
 958:Drivers/STM32F4xx_HAL_Driver/Src/stm32f4xx_hal_tim.c **** }
 2051              		.loc 1 958 1
 2052 01de 1846     		mov	r0, r3
 2053 01e0 1037     		adds	r7, r7, #16
 2054              	.LCFI91:
 2055              		.cfi_def_cfa_offset 8
 2056 01e2 BD46     		mov	sp, r7
 2057              	.LCFI92:
 2058              		.cfi_def_cfa_register 13
 2059              		@ sp needed
 2060 01e4 80BD     		pop	{r7, pc}
 2061              	.L123:
 2062 01e6 00BF     		.align	2
 2063              	.L122:
 2064 01e8 00000140 		.word	1073807360
 2065 01ec 00040040 		.word	1073742848
 2066 01f0 00080040 		.word	1073743872
 2067 01f4 000C0040 		.word	1073744896
 2068 01f8 00400140 		.word	1073823744
 2069              		.cfi_endproc
 2070              	.LFE150:
 2072              		.section	.text.HAL_TIM_OC_Stop_IT,"ax",%progbits
 2073              		.align	1
 2074              		.global	HAL_TIM_OC_Stop_IT
 2075              		.syntax unified
 2076              		.thumb
 2077              		.thumb_func
 2079              	HAL_TIM_OC_Stop_IT:
 2080              	.LFB151:
 959:Drivers/STM32F4xx_HAL_Driver/Src/stm32f4xx_hal_tim.c **** 
 960:Drivers/STM32F4xx_HAL_Driver/Src/stm32f4xx_hal_tim.c **** /**
 961:Drivers/STM32F4xx_HAL_Driver/Src/stm32f4xx_hal_tim.c ****   * @brief  Stops the TIM Output Compare signal generation in interrupt mode.
 962:Drivers/STM32F4xx_HAL_Driver/Src/stm32f4xx_hal_tim.c ****   * @param  htim TIM Output Compare handle
 963:Drivers/STM32F4xx_HAL_Driver/Src/stm32f4xx_hal_tim.c ****   * @param  Channel TIM Channel to be disabled
 964:Drivers/STM32F4xx_HAL_Driver/Src/stm32f4xx_hal_tim.c ****   *          This parameter can be one of the following values:
 965:Drivers/STM32F4xx_HAL_Driver/Src/stm32f4xx_hal_tim.c ****   *            @arg TIM_CHANNEL_1: TIM Channel 1 selected
 966:Drivers/STM32F4xx_HAL_Driver/Src/stm32f4xx_hal_tim.c ****   *            @arg TIM_CHANNEL_2: TIM Channel 2 selected
 967:Drivers/STM32F4xx_HAL_Driver/Src/stm32f4xx_hal_tim.c ****   *            @arg TIM_CHANNEL_3: TIM Channel 3 selected
 968:Drivers/STM32F4xx_HAL_Driver/Src/stm32f4xx_hal_tim.c ****   *            @arg TIM_CHANNEL_4: TIM Channel 4 selected
 969:Drivers/STM32F4xx_HAL_Driver/Src/stm32f4xx_hal_tim.c ****   * @retval HAL status
 970:Drivers/STM32F4xx_HAL_Driver/Src/stm32f4xx_hal_tim.c ****   */
ARM GAS  C:\Users\TGSPOC~1\AppData\Local\Temp\ccIyOLT8.s 			page 54


 971:Drivers/STM32F4xx_HAL_Driver/Src/stm32f4xx_hal_tim.c **** HAL_StatusTypeDef HAL_TIM_OC_Stop_IT(TIM_HandleTypeDef *htim, uint32_t Channel)
 972:Drivers/STM32F4xx_HAL_Driver/Src/stm32f4xx_hal_tim.c **** {
 2081              		.loc 1 972 1
 2082              		.cfi_startproc
 2083              		@ args = 0, pretend = 0, frame = 16
 2084              		@ frame_needed = 1, uses_anonymous_args = 0
 2085 0000 80B5     		push	{r7, lr}
 2086              	.LCFI93:
 2087              		.cfi_def_cfa_offset 8
 2088              		.cfi_offset 7, -8
 2089              		.cfi_offset 14, -4
 2090 0002 84B0     		sub	sp, sp, #16
 2091              	.LCFI94:
 2092              		.cfi_def_cfa_offset 24
 2093 0004 00AF     		add	r7, sp, #0
 2094              	.LCFI95:
 2095              		.cfi_def_cfa_register 7
 2096 0006 7860     		str	r0, [r7, #4]
 2097 0008 3960     		str	r1, [r7]
 973:Drivers/STM32F4xx_HAL_Driver/Src/stm32f4xx_hal_tim.c ****   HAL_StatusTypeDef status = HAL_OK;
 2098              		.loc 1 973 21
 2099 000a 0023     		movs	r3, #0
 2100 000c FB73     		strb	r3, [r7, #15]
 974:Drivers/STM32F4xx_HAL_Driver/Src/stm32f4xx_hal_tim.c **** 
 975:Drivers/STM32F4xx_HAL_Driver/Src/stm32f4xx_hal_tim.c ****   /* Check the parameters */
 976:Drivers/STM32F4xx_HAL_Driver/Src/stm32f4xx_hal_tim.c ****   assert_param(IS_TIM_CCX_INSTANCE(htim->Instance, Channel));
 977:Drivers/STM32F4xx_HAL_Driver/Src/stm32f4xx_hal_tim.c **** 
 978:Drivers/STM32F4xx_HAL_Driver/Src/stm32f4xx_hal_tim.c ****   switch (Channel)
 2101              		.loc 1 978 3
 2102 000e 3B68     		ldr	r3, [r7]
 2103 0010 0C2B     		cmp	r3, #12
 2104 0012 41D8     		bhi	.L125
 2105 0014 01A2     		adr	r2, .L127
 2106 0016 52F823F0 		ldr	pc, [r2, r3, lsl #2]
 2107 001a 00BF     		.p2align 2
 2108              	.L127:
 2109 001c 51000000 		.word	.L130+1
 2110 0020 99000000 		.word	.L125+1
 2111 0024 99000000 		.word	.L125+1
 2112 0028 99000000 		.word	.L125+1
 2113 002c 63000000 		.word	.L129+1
 2114 0030 99000000 		.word	.L125+1
 2115 0034 99000000 		.word	.L125+1
 2116 0038 99000000 		.word	.L125+1
 2117 003c 75000000 		.word	.L128+1
 2118 0040 99000000 		.word	.L125+1
 2119 0044 99000000 		.word	.L125+1
 2120 0048 99000000 		.word	.L125+1
 2121 004c 87000000 		.word	.L126+1
 2122              		.p2align 1
 2123              	.L130:
 979:Drivers/STM32F4xx_HAL_Driver/Src/stm32f4xx_hal_tim.c ****   {
 980:Drivers/STM32F4xx_HAL_Driver/Src/stm32f4xx_hal_tim.c ****     case TIM_CHANNEL_1:
 981:Drivers/STM32F4xx_HAL_Driver/Src/stm32f4xx_hal_tim.c ****     {
 982:Drivers/STM32F4xx_HAL_Driver/Src/stm32f4xx_hal_tim.c ****       /* Disable the TIM Capture/Compare 1 interrupt */
 983:Drivers/STM32F4xx_HAL_Driver/Src/stm32f4xx_hal_tim.c ****       __HAL_TIM_DISABLE_IT(htim, TIM_IT_CC1);
 2124              		.loc 1 983 7
ARM GAS  C:\Users\TGSPOC~1\AppData\Local\Temp\ccIyOLT8.s 			page 55


 2125 0050 7B68     		ldr	r3, [r7, #4]
 2126 0052 1B68     		ldr	r3, [r3]
 2127 0054 DA68     		ldr	r2, [r3, #12]
 2128 0056 7B68     		ldr	r3, [r7, #4]
 2129 0058 1B68     		ldr	r3, [r3]
 2130 005a 22F00202 		bic	r2, r2, #2
 2131 005e DA60     		str	r2, [r3, #12]
 984:Drivers/STM32F4xx_HAL_Driver/Src/stm32f4xx_hal_tim.c ****       break;
 2132              		.loc 1 984 7
 2133 0060 1DE0     		b	.L131
 2134              	.L129:
 985:Drivers/STM32F4xx_HAL_Driver/Src/stm32f4xx_hal_tim.c ****     }
 986:Drivers/STM32F4xx_HAL_Driver/Src/stm32f4xx_hal_tim.c **** 
 987:Drivers/STM32F4xx_HAL_Driver/Src/stm32f4xx_hal_tim.c ****     case TIM_CHANNEL_2:
 988:Drivers/STM32F4xx_HAL_Driver/Src/stm32f4xx_hal_tim.c ****     {
 989:Drivers/STM32F4xx_HAL_Driver/Src/stm32f4xx_hal_tim.c ****       /* Disable the TIM Capture/Compare 2 interrupt */
 990:Drivers/STM32F4xx_HAL_Driver/Src/stm32f4xx_hal_tim.c ****       __HAL_TIM_DISABLE_IT(htim, TIM_IT_CC2);
 2135              		.loc 1 990 7
 2136 0062 7B68     		ldr	r3, [r7, #4]
 2137 0064 1B68     		ldr	r3, [r3]
 2138 0066 DA68     		ldr	r2, [r3, #12]
 2139 0068 7B68     		ldr	r3, [r7, #4]
 2140 006a 1B68     		ldr	r3, [r3]
 2141 006c 22F00402 		bic	r2, r2, #4
 2142 0070 DA60     		str	r2, [r3, #12]
 991:Drivers/STM32F4xx_HAL_Driver/Src/stm32f4xx_hal_tim.c ****       break;
 2143              		.loc 1 991 7
 2144 0072 14E0     		b	.L131
 2145              	.L128:
 992:Drivers/STM32F4xx_HAL_Driver/Src/stm32f4xx_hal_tim.c ****     }
 993:Drivers/STM32F4xx_HAL_Driver/Src/stm32f4xx_hal_tim.c **** 
 994:Drivers/STM32F4xx_HAL_Driver/Src/stm32f4xx_hal_tim.c ****     case TIM_CHANNEL_3:
 995:Drivers/STM32F4xx_HAL_Driver/Src/stm32f4xx_hal_tim.c ****     {
 996:Drivers/STM32F4xx_HAL_Driver/Src/stm32f4xx_hal_tim.c ****       /* Disable the TIM Capture/Compare 3 interrupt */
 997:Drivers/STM32F4xx_HAL_Driver/Src/stm32f4xx_hal_tim.c ****       __HAL_TIM_DISABLE_IT(htim, TIM_IT_CC3);
 2146              		.loc 1 997 7
 2147 0074 7B68     		ldr	r3, [r7, #4]
 2148 0076 1B68     		ldr	r3, [r3]
 2149 0078 DA68     		ldr	r2, [r3, #12]
 2150 007a 7B68     		ldr	r3, [r7, #4]
 2151 007c 1B68     		ldr	r3, [r3]
 2152 007e 22F00802 		bic	r2, r2, #8
 2153 0082 DA60     		str	r2, [r3, #12]
 998:Drivers/STM32F4xx_HAL_Driver/Src/stm32f4xx_hal_tim.c ****       break;
 2154              		.loc 1 998 7
 2155 0084 0BE0     		b	.L131
 2156              	.L126:
 999:Drivers/STM32F4xx_HAL_Driver/Src/stm32f4xx_hal_tim.c ****     }
1000:Drivers/STM32F4xx_HAL_Driver/Src/stm32f4xx_hal_tim.c **** 
1001:Drivers/STM32F4xx_HAL_Driver/Src/stm32f4xx_hal_tim.c ****     case TIM_CHANNEL_4:
1002:Drivers/STM32F4xx_HAL_Driver/Src/stm32f4xx_hal_tim.c ****     {
1003:Drivers/STM32F4xx_HAL_Driver/Src/stm32f4xx_hal_tim.c ****       /* Disable the TIM Capture/Compare 4 interrupt */
1004:Drivers/STM32F4xx_HAL_Driver/Src/stm32f4xx_hal_tim.c ****       __HAL_TIM_DISABLE_IT(htim, TIM_IT_CC4);
 2157              		.loc 1 1004 7
 2158 0086 7B68     		ldr	r3, [r7, #4]
 2159 0088 1B68     		ldr	r3, [r3]
 2160 008a DA68     		ldr	r2, [r3, #12]
ARM GAS  C:\Users\TGSPOC~1\AppData\Local\Temp\ccIyOLT8.s 			page 56


 2161 008c 7B68     		ldr	r3, [r7, #4]
 2162 008e 1B68     		ldr	r3, [r3]
 2163 0090 22F01002 		bic	r2, r2, #16
 2164 0094 DA60     		str	r2, [r3, #12]
1005:Drivers/STM32F4xx_HAL_Driver/Src/stm32f4xx_hal_tim.c ****       break;
 2165              		.loc 1 1005 7
 2166 0096 02E0     		b	.L131
 2167              	.L125:
1006:Drivers/STM32F4xx_HAL_Driver/Src/stm32f4xx_hal_tim.c ****     }
1007:Drivers/STM32F4xx_HAL_Driver/Src/stm32f4xx_hal_tim.c **** 
1008:Drivers/STM32F4xx_HAL_Driver/Src/stm32f4xx_hal_tim.c ****     default:
1009:Drivers/STM32F4xx_HAL_Driver/Src/stm32f4xx_hal_tim.c ****       status = HAL_ERROR;
 2168              		.loc 1 1009 14
 2169 0098 0123     		movs	r3, #1
 2170 009a FB73     		strb	r3, [r7, #15]
1010:Drivers/STM32F4xx_HAL_Driver/Src/stm32f4xx_hal_tim.c ****       break;
 2171              		.loc 1 1010 7
 2172 009c 00BF     		nop
 2173              	.L131:
1011:Drivers/STM32F4xx_HAL_Driver/Src/stm32f4xx_hal_tim.c ****   }
1012:Drivers/STM32F4xx_HAL_Driver/Src/stm32f4xx_hal_tim.c **** 
1013:Drivers/STM32F4xx_HAL_Driver/Src/stm32f4xx_hal_tim.c ****   if (status == HAL_OK)
 2174              		.loc 1 1013 6
 2175 009e FB7B     		ldrb	r3, [r7, #15]	@ zero_extendqisi2
 2176 00a0 002B     		cmp	r3, #0
 2177 00a2 57D1     		bne	.L132
1014:Drivers/STM32F4xx_HAL_Driver/Src/stm32f4xx_hal_tim.c ****   {
1015:Drivers/STM32F4xx_HAL_Driver/Src/stm32f4xx_hal_tim.c ****     /* Disable the Output compare channel */
1016:Drivers/STM32F4xx_HAL_Driver/Src/stm32f4xx_hal_tim.c ****     TIM_CCxChannelCmd(htim->Instance, Channel, TIM_CCx_DISABLE);
 2178              		.loc 1 1016 5
 2179 00a4 7B68     		ldr	r3, [r7, #4]
 2180 00a6 1B68     		ldr	r3, [r3]
 2181 00a8 0022     		movs	r2, #0
 2182 00aa 3968     		ldr	r1, [r7]
 2183 00ac 1846     		mov	r0, r3
 2184 00ae FFF7FEFF 		bl	TIM_CCxChannelCmd
1017:Drivers/STM32F4xx_HAL_Driver/Src/stm32f4xx_hal_tim.c **** 
1018:Drivers/STM32F4xx_HAL_Driver/Src/stm32f4xx_hal_tim.c ****     if (IS_TIM_BREAK_INSTANCE(htim->Instance) != RESET)
 2185              		.loc 1 1018 9
 2186 00b2 7B68     		ldr	r3, [r7, #4]
 2187 00b4 1B68     		ldr	r3, [r3]
 2188              		.loc 1 1018 8
 2189 00b6 2A4A     		ldr	r2, .L141
 2190 00b8 9342     		cmp	r3, r2
 2191 00ba 17D1     		bne	.L133
1019:Drivers/STM32F4xx_HAL_Driver/Src/stm32f4xx_hal_tim.c ****     {
1020:Drivers/STM32F4xx_HAL_Driver/Src/stm32f4xx_hal_tim.c ****       /* Disable the Main Output */
1021:Drivers/STM32F4xx_HAL_Driver/Src/stm32f4xx_hal_tim.c ****       __HAL_TIM_MOE_DISABLE(htim);
 2192              		.loc 1 1021 7
 2193 00bc 7B68     		ldr	r3, [r7, #4]
 2194 00be 1B68     		ldr	r3, [r3]
 2195 00c0 1A6A     		ldr	r2, [r3, #32]
 2196 00c2 41F21113 		movw	r3, #4369
 2197 00c6 1340     		ands	r3, r3, r2
 2198 00c8 002B     		cmp	r3, #0
 2199 00ca 0FD1     		bne	.L133
 2200              		.loc 1 1021 7 is_stmt 0 discriminator 1
ARM GAS  C:\Users\TGSPOC~1\AppData\Local\Temp\ccIyOLT8.s 			page 57


 2201 00cc 7B68     		ldr	r3, [r7, #4]
 2202 00ce 1B68     		ldr	r3, [r3]
 2203 00d0 1A6A     		ldr	r2, [r3, #32]
 2204 00d2 40F24443 		movw	r3, #1092
 2205 00d6 1340     		ands	r3, r3, r2
 2206 00d8 002B     		cmp	r3, #0
 2207 00da 07D1     		bne	.L133
 2208              		.loc 1 1021 7 discriminator 2
 2209 00dc 7B68     		ldr	r3, [r7, #4]
 2210 00de 1B68     		ldr	r3, [r3]
 2211 00e0 5A6C     		ldr	r2, [r3, #68]
 2212 00e2 7B68     		ldr	r3, [r7, #4]
 2213 00e4 1B68     		ldr	r3, [r3]
 2214 00e6 22F40042 		bic	r2, r2, #32768
 2215 00ea 5A64     		str	r2, [r3, #68]
 2216              	.L133:
1022:Drivers/STM32F4xx_HAL_Driver/Src/stm32f4xx_hal_tim.c ****     }
1023:Drivers/STM32F4xx_HAL_Driver/Src/stm32f4xx_hal_tim.c **** 
1024:Drivers/STM32F4xx_HAL_Driver/Src/stm32f4xx_hal_tim.c ****     /* Disable the Peripheral */
1025:Drivers/STM32F4xx_HAL_Driver/Src/stm32f4xx_hal_tim.c ****     __HAL_TIM_DISABLE(htim);
 2217              		.loc 1 1025 5 is_stmt 1
 2218 00ec 7B68     		ldr	r3, [r7, #4]
 2219 00ee 1B68     		ldr	r3, [r3]
 2220 00f0 1A6A     		ldr	r2, [r3, #32]
 2221 00f2 41F21113 		movw	r3, #4369
 2222 00f6 1340     		ands	r3, r3, r2
 2223 00f8 002B     		cmp	r3, #0
 2224 00fa 0FD1     		bne	.L134
 2225              		.loc 1 1025 5 is_stmt 0 discriminator 1
 2226 00fc 7B68     		ldr	r3, [r7, #4]
 2227 00fe 1B68     		ldr	r3, [r3]
 2228 0100 1A6A     		ldr	r2, [r3, #32]
 2229 0102 40F24443 		movw	r3, #1092
 2230 0106 1340     		ands	r3, r3, r2
 2231 0108 002B     		cmp	r3, #0
 2232 010a 07D1     		bne	.L134
 2233              		.loc 1 1025 5 discriminator 2
 2234 010c 7B68     		ldr	r3, [r7, #4]
 2235 010e 1B68     		ldr	r3, [r3]
 2236 0110 1A68     		ldr	r2, [r3]
 2237 0112 7B68     		ldr	r3, [r7, #4]
 2238 0114 1B68     		ldr	r3, [r3]
 2239 0116 22F00102 		bic	r2, r2, #1
 2240 011a 1A60     		str	r2, [r3]
 2241              	.L134:
1026:Drivers/STM32F4xx_HAL_Driver/Src/stm32f4xx_hal_tim.c **** 
1027:Drivers/STM32F4xx_HAL_Driver/Src/stm32f4xx_hal_tim.c ****     /* Set the TIM channel state */
1028:Drivers/STM32F4xx_HAL_Driver/Src/stm32f4xx_hal_tim.c ****     TIM_CHANNEL_STATE_SET(htim, Channel, HAL_TIM_CHANNEL_STATE_READY);
 2242              		.loc 1 1028 5 is_stmt 1
 2243 011c 3B68     		ldr	r3, [r7]
 2244 011e 002B     		cmp	r3, #0
 2245 0120 04D1     		bne	.L135
 2246              		.loc 1 1028 5 is_stmt 0 discriminator 1
 2247 0122 7B68     		ldr	r3, [r7, #4]
 2248 0124 0122     		movs	r2, #1
 2249 0126 83F83E20 		strb	r2, [r3, #62]
 2250 012a 13E0     		b	.L132
ARM GAS  C:\Users\TGSPOC~1\AppData\Local\Temp\ccIyOLT8.s 			page 58


 2251              	.L135:
 2252              		.loc 1 1028 5 discriminator 2
 2253 012c 3B68     		ldr	r3, [r7]
 2254 012e 042B     		cmp	r3, #4
 2255 0130 04D1     		bne	.L136
 2256              		.loc 1 1028 5 discriminator 3
 2257 0132 7B68     		ldr	r3, [r7, #4]
 2258 0134 0122     		movs	r2, #1
 2259 0136 83F83F20 		strb	r2, [r3, #63]
 2260 013a 0BE0     		b	.L132
 2261              	.L136:
 2262              		.loc 1 1028 5 discriminator 4
 2263 013c 3B68     		ldr	r3, [r7]
 2264 013e 082B     		cmp	r3, #8
 2265 0140 04D1     		bne	.L138
 2266              		.loc 1 1028 5 discriminator 6
 2267 0142 7B68     		ldr	r3, [r7, #4]
 2268 0144 0122     		movs	r2, #1
 2269 0146 83F84020 		strb	r2, [r3, #64]
 2270 014a 03E0     		b	.L132
 2271              	.L138:
 2272              		.loc 1 1028 5 discriminator 7
 2273 014c 7B68     		ldr	r3, [r7, #4]
 2274 014e 0122     		movs	r2, #1
 2275 0150 83F84120 		strb	r2, [r3, #65]
 2276              	.L132:
1029:Drivers/STM32F4xx_HAL_Driver/Src/stm32f4xx_hal_tim.c ****   }
1030:Drivers/STM32F4xx_HAL_Driver/Src/stm32f4xx_hal_tim.c **** 
1031:Drivers/STM32F4xx_HAL_Driver/Src/stm32f4xx_hal_tim.c ****   /* Return function status */
1032:Drivers/STM32F4xx_HAL_Driver/Src/stm32f4xx_hal_tim.c ****   return status;
 2277              		.loc 1 1032 10 is_stmt 1
 2278 0154 FB7B     		ldrb	r3, [r7, #15]	@ zero_extendqisi2
1033:Drivers/STM32F4xx_HAL_Driver/Src/stm32f4xx_hal_tim.c **** }
 2279              		.loc 1 1033 1
 2280 0156 1846     		mov	r0, r3
 2281 0158 1037     		adds	r7, r7, #16
 2282              	.LCFI96:
 2283              		.cfi_def_cfa_offset 8
 2284 015a BD46     		mov	sp, r7
 2285              	.LCFI97:
 2286              		.cfi_def_cfa_register 13
 2287              		@ sp needed
 2288 015c 80BD     		pop	{r7, pc}
 2289              	.L142:
 2290 015e 00BF     		.align	2
 2291              	.L141:
 2292 0160 00000140 		.word	1073807360
 2293              		.cfi_endproc
 2294              	.LFE151:
 2296              		.section	.text.HAL_TIM_OC_Start_DMA,"ax",%progbits
 2297              		.align	1
 2298              		.global	HAL_TIM_OC_Start_DMA
 2299              		.syntax unified
 2300              		.thumb
 2301              		.thumb_func
 2303              	HAL_TIM_OC_Start_DMA:
 2304              	.LFB152:
ARM GAS  C:\Users\TGSPOC~1\AppData\Local\Temp\ccIyOLT8.s 			page 59


1034:Drivers/STM32F4xx_HAL_Driver/Src/stm32f4xx_hal_tim.c **** 
1035:Drivers/STM32F4xx_HAL_Driver/Src/stm32f4xx_hal_tim.c **** /**
1036:Drivers/STM32F4xx_HAL_Driver/Src/stm32f4xx_hal_tim.c ****   * @brief  Starts the TIM Output Compare signal generation in DMA mode.
1037:Drivers/STM32F4xx_HAL_Driver/Src/stm32f4xx_hal_tim.c ****   * @param  htim TIM Output Compare handle
1038:Drivers/STM32F4xx_HAL_Driver/Src/stm32f4xx_hal_tim.c ****   * @param  Channel TIM Channel to be enabled
1039:Drivers/STM32F4xx_HAL_Driver/Src/stm32f4xx_hal_tim.c ****   *          This parameter can be one of the following values:
1040:Drivers/STM32F4xx_HAL_Driver/Src/stm32f4xx_hal_tim.c ****   *            @arg TIM_CHANNEL_1: TIM Channel 1 selected
1041:Drivers/STM32F4xx_HAL_Driver/Src/stm32f4xx_hal_tim.c ****   *            @arg TIM_CHANNEL_2: TIM Channel 2 selected
1042:Drivers/STM32F4xx_HAL_Driver/Src/stm32f4xx_hal_tim.c ****   *            @arg TIM_CHANNEL_3: TIM Channel 3 selected
1043:Drivers/STM32F4xx_HAL_Driver/Src/stm32f4xx_hal_tim.c ****   *            @arg TIM_CHANNEL_4: TIM Channel 4 selected
1044:Drivers/STM32F4xx_HAL_Driver/Src/stm32f4xx_hal_tim.c ****   * @param  pData The source Buffer address.
1045:Drivers/STM32F4xx_HAL_Driver/Src/stm32f4xx_hal_tim.c ****   * @param  Length The length of data to be transferred from memory to TIM peripheral
1046:Drivers/STM32F4xx_HAL_Driver/Src/stm32f4xx_hal_tim.c ****   * @retval HAL status
1047:Drivers/STM32F4xx_HAL_Driver/Src/stm32f4xx_hal_tim.c ****   */
1048:Drivers/STM32F4xx_HAL_Driver/Src/stm32f4xx_hal_tim.c **** HAL_StatusTypeDef HAL_TIM_OC_Start_DMA(TIM_HandleTypeDef *htim, uint32_t Channel, const uint32_t *p
1049:Drivers/STM32F4xx_HAL_Driver/Src/stm32f4xx_hal_tim.c ****                                        uint16_t Length)
1050:Drivers/STM32F4xx_HAL_Driver/Src/stm32f4xx_hal_tim.c **** {
 2305              		.loc 1 1050 1
 2306              		.cfi_startproc
 2307              		@ args = 0, pretend = 0, frame = 24
 2308              		@ frame_needed = 1, uses_anonymous_args = 0
 2309 0000 80B5     		push	{r7, lr}
 2310              	.LCFI98:
 2311              		.cfi_def_cfa_offset 8
 2312              		.cfi_offset 7, -8
 2313              		.cfi_offset 14, -4
 2314 0002 86B0     		sub	sp, sp, #24
 2315              	.LCFI99:
 2316              		.cfi_def_cfa_offset 32
 2317 0004 00AF     		add	r7, sp, #0
 2318              	.LCFI100:
 2319              		.cfi_def_cfa_register 7
 2320 0006 F860     		str	r0, [r7, #12]
 2321 0008 B960     		str	r1, [r7, #8]
 2322 000a 7A60     		str	r2, [r7, #4]
 2323 000c 7B80     		strh	r3, [r7, #2]	@ movhi
1051:Drivers/STM32F4xx_HAL_Driver/Src/stm32f4xx_hal_tim.c ****   HAL_StatusTypeDef status = HAL_OK;
 2324              		.loc 1 1051 21
 2325 000e 0023     		movs	r3, #0
 2326 0010 FB75     		strb	r3, [r7, #23]
1052:Drivers/STM32F4xx_HAL_Driver/Src/stm32f4xx_hal_tim.c ****   uint32_t tmpsmcr;
1053:Drivers/STM32F4xx_HAL_Driver/Src/stm32f4xx_hal_tim.c **** 
1054:Drivers/STM32F4xx_HAL_Driver/Src/stm32f4xx_hal_tim.c ****   /* Check the parameters */
1055:Drivers/STM32F4xx_HAL_Driver/Src/stm32f4xx_hal_tim.c ****   assert_param(IS_TIM_CCX_INSTANCE(htim->Instance, Channel));
1056:Drivers/STM32F4xx_HAL_Driver/Src/stm32f4xx_hal_tim.c **** 
1057:Drivers/STM32F4xx_HAL_Driver/Src/stm32f4xx_hal_tim.c ****   /* Set the TIM channel state */
1058:Drivers/STM32F4xx_HAL_Driver/Src/stm32f4xx_hal_tim.c ****   if (TIM_CHANNEL_STATE_GET(htim, Channel) == HAL_TIM_CHANNEL_STATE_BUSY)
 2327              		.loc 1 1058 44
 2328 0012 BB68     		ldr	r3, [r7, #8]
 2329 0014 002B     		cmp	r3, #0
 2330 0016 09D1     		bne	.L144
 2331              		.loc 1 1058 7 discriminator 1
 2332 0018 FB68     		ldr	r3, [r7, #12]
 2333 001a 93F83E30 		ldrb	r3, [r3, #62]
 2334 001e DBB2     		uxtb	r3, r3
 2335              		.loc 1 1058 44 discriminator 1
 2336 0020 022B     		cmp	r3, #2
ARM GAS  C:\Users\TGSPOC~1\AppData\Local\Temp\ccIyOLT8.s 			page 60


 2337 0022 0CBF     		ite	eq
 2338 0024 0123     		moveq	r3, #1
 2339 0026 0023     		movne	r3, #0
 2340 0028 DBB2     		uxtb	r3, r3
 2341 002a 22E0     		b	.L145
 2342              	.L144:
 2343              		.loc 1 1058 44 is_stmt 0 discriminator 2
 2344 002c BB68     		ldr	r3, [r7, #8]
 2345 002e 042B     		cmp	r3, #4
 2346 0030 09D1     		bne	.L146
 2347              		.loc 1 1058 7 is_stmt 1 discriminator 4
 2348 0032 FB68     		ldr	r3, [r7, #12]
 2349 0034 93F83F30 		ldrb	r3, [r3, #63]
 2350 0038 DBB2     		uxtb	r3, r3
 2351              		.loc 1 1058 44 discriminator 4
 2352 003a 022B     		cmp	r3, #2
 2353 003c 0CBF     		ite	eq
 2354 003e 0123     		moveq	r3, #1
 2355 0040 0023     		movne	r3, #0
 2356 0042 DBB2     		uxtb	r3, r3
 2357 0044 15E0     		b	.L145
 2358              	.L146:
 2359              		.loc 1 1058 44 is_stmt 0 discriminator 5
 2360 0046 BB68     		ldr	r3, [r7, #8]
 2361 0048 082B     		cmp	r3, #8
 2362 004a 09D1     		bne	.L148
 2363              		.loc 1 1058 7 is_stmt 1 discriminator 7
 2364 004c FB68     		ldr	r3, [r7, #12]
 2365 004e 93F84030 		ldrb	r3, [r3, #64]
 2366 0052 DBB2     		uxtb	r3, r3
 2367              		.loc 1 1058 44 discriminator 7
 2368 0054 022B     		cmp	r3, #2
 2369 0056 0CBF     		ite	eq
 2370 0058 0123     		moveq	r3, #1
 2371 005a 0023     		movne	r3, #0
 2372 005c DBB2     		uxtb	r3, r3
 2373 005e 08E0     		b	.L145
 2374              	.L148:
 2375              		.loc 1 1058 7 discriminator 8
 2376 0060 FB68     		ldr	r3, [r7, #12]
 2377 0062 93F84130 		ldrb	r3, [r3, #65]
 2378 0066 DBB2     		uxtb	r3, r3
 2379              		.loc 1 1058 44 discriminator 8
 2380 0068 022B     		cmp	r3, #2
 2381 006a 0CBF     		ite	eq
 2382 006c 0123     		moveq	r3, #1
 2383 006e 0023     		movne	r3, #0
 2384 0070 DBB2     		uxtb	r3, r3
 2385              	.L145:
 2386              		.loc 1 1058 6 discriminator 12
 2387 0072 002B     		cmp	r3, #0
 2388 0074 01D0     		beq	.L150
1059:Drivers/STM32F4xx_HAL_Driver/Src/stm32f4xx_hal_tim.c ****   {
1060:Drivers/STM32F4xx_HAL_Driver/Src/stm32f4xx_hal_tim.c ****     return HAL_BUSY;
 2389              		.loc 1 1060 12
 2390 0076 0223     		movs	r3, #2
 2391 0078 5DE1     		b	.L151
ARM GAS  C:\Users\TGSPOC~1\AppData\Local\Temp\ccIyOLT8.s 			page 61


 2392              	.L150:
1061:Drivers/STM32F4xx_HAL_Driver/Src/stm32f4xx_hal_tim.c ****   }
1062:Drivers/STM32F4xx_HAL_Driver/Src/stm32f4xx_hal_tim.c ****   else if (TIM_CHANNEL_STATE_GET(htim, Channel) == HAL_TIM_CHANNEL_STATE_READY)
 2393              		.loc 1 1062 49
 2394 007a BB68     		ldr	r3, [r7, #8]
 2395 007c 002B     		cmp	r3, #0
 2396 007e 09D1     		bne	.L152
 2397              		.loc 1 1062 12 discriminator 1
 2398 0080 FB68     		ldr	r3, [r7, #12]
 2399 0082 93F83E30 		ldrb	r3, [r3, #62]
 2400 0086 DBB2     		uxtb	r3, r3
 2401              		.loc 1 1062 49 discriminator 1
 2402 0088 012B     		cmp	r3, #1
 2403 008a 0CBF     		ite	eq
 2404 008c 0123     		moveq	r3, #1
 2405 008e 0023     		movne	r3, #0
 2406 0090 DBB2     		uxtb	r3, r3
 2407 0092 22E0     		b	.L153
 2408              	.L152:
 2409              		.loc 1 1062 49 is_stmt 0 discriminator 2
 2410 0094 BB68     		ldr	r3, [r7, #8]
 2411 0096 042B     		cmp	r3, #4
 2412 0098 09D1     		bne	.L154
 2413              		.loc 1 1062 12 is_stmt 1 discriminator 4
 2414 009a FB68     		ldr	r3, [r7, #12]
 2415 009c 93F83F30 		ldrb	r3, [r3, #63]
 2416 00a0 DBB2     		uxtb	r3, r3
 2417              		.loc 1 1062 49 discriminator 4
 2418 00a2 012B     		cmp	r3, #1
 2419 00a4 0CBF     		ite	eq
 2420 00a6 0123     		moveq	r3, #1
 2421 00a8 0023     		movne	r3, #0
 2422 00aa DBB2     		uxtb	r3, r3
 2423 00ac 15E0     		b	.L153
 2424              	.L154:
 2425              		.loc 1 1062 49 is_stmt 0 discriminator 5
 2426 00ae BB68     		ldr	r3, [r7, #8]
 2427 00b0 082B     		cmp	r3, #8
 2428 00b2 09D1     		bne	.L156
 2429              		.loc 1 1062 12 is_stmt 1 discriminator 7
 2430 00b4 FB68     		ldr	r3, [r7, #12]
 2431 00b6 93F84030 		ldrb	r3, [r3, #64]
 2432 00ba DBB2     		uxtb	r3, r3
 2433              		.loc 1 1062 49 discriminator 7
 2434 00bc 012B     		cmp	r3, #1
 2435 00be 0CBF     		ite	eq
 2436 00c0 0123     		moveq	r3, #1
 2437 00c2 0023     		movne	r3, #0
 2438 00c4 DBB2     		uxtb	r3, r3
 2439 00c6 08E0     		b	.L153
 2440              	.L156:
 2441              		.loc 1 1062 12 discriminator 8
 2442 00c8 FB68     		ldr	r3, [r7, #12]
 2443 00ca 93F84130 		ldrb	r3, [r3, #65]
 2444 00ce DBB2     		uxtb	r3, r3
 2445              		.loc 1 1062 49 discriminator 8
 2446 00d0 012B     		cmp	r3, #1
ARM GAS  C:\Users\TGSPOC~1\AppData\Local\Temp\ccIyOLT8.s 			page 62


 2447 00d2 0CBF     		ite	eq
 2448 00d4 0123     		moveq	r3, #1
 2449 00d6 0023     		movne	r3, #0
 2450 00d8 DBB2     		uxtb	r3, r3
 2451              	.L153:
 2452              		.loc 1 1062 11 discriminator 12
 2453 00da 002B     		cmp	r3, #0
 2454 00dc 24D0     		beq	.L158
1063:Drivers/STM32F4xx_HAL_Driver/Src/stm32f4xx_hal_tim.c ****   {
1064:Drivers/STM32F4xx_HAL_Driver/Src/stm32f4xx_hal_tim.c ****     if ((pData == NULL) || (Length == 0U))
 2455              		.loc 1 1064 8
 2456 00de 7B68     		ldr	r3, [r7, #4]
 2457 00e0 002B     		cmp	r3, #0
 2458 00e2 02D0     		beq	.L159
 2459              		.loc 1 1064 25 discriminator 1
 2460 00e4 7B88     		ldrh	r3, [r7, #2]
 2461 00e6 002B     		cmp	r3, #0
 2462 00e8 01D1     		bne	.L160
 2463              	.L159:
1065:Drivers/STM32F4xx_HAL_Driver/Src/stm32f4xx_hal_tim.c ****     {
1066:Drivers/STM32F4xx_HAL_Driver/Src/stm32f4xx_hal_tim.c ****       return HAL_ERROR;
 2464              		.loc 1 1066 14
 2465 00ea 0123     		movs	r3, #1
 2466 00ec 23E1     		b	.L151
 2467              	.L160:
1067:Drivers/STM32F4xx_HAL_Driver/Src/stm32f4xx_hal_tim.c ****     }
1068:Drivers/STM32F4xx_HAL_Driver/Src/stm32f4xx_hal_tim.c ****     else
1069:Drivers/STM32F4xx_HAL_Driver/Src/stm32f4xx_hal_tim.c ****     {
1070:Drivers/STM32F4xx_HAL_Driver/Src/stm32f4xx_hal_tim.c ****       TIM_CHANNEL_STATE_SET(htim, Channel, HAL_TIM_CHANNEL_STATE_BUSY);
 2468              		.loc 1 1070 7
 2469 00ee BB68     		ldr	r3, [r7, #8]
 2470 00f0 002B     		cmp	r3, #0
 2471 00f2 04D1     		bne	.L161
 2472              		.loc 1 1070 7 is_stmt 0 discriminator 1
 2473 00f4 FB68     		ldr	r3, [r7, #12]
 2474 00f6 0222     		movs	r2, #2
 2475 00f8 83F83E20 		strb	r2, [r3, #62]
 2476 00fc 16E0     		b	.L162
 2477              	.L161:
 2478              		.loc 1 1070 7 discriminator 2
 2479 00fe BB68     		ldr	r3, [r7, #8]
 2480 0100 042B     		cmp	r3, #4
 2481 0102 04D1     		bne	.L163
 2482              		.loc 1 1070 7 discriminator 3
 2483 0104 FB68     		ldr	r3, [r7, #12]
 2484 0106 0222     		movs	r2, #2
 2485 0108 83F83F20 		strb	r2, [r3, #63]
 2486              		.loc 1 1070 7 discriminator 10
 2487 010c 0EE0     		b	.L162
 2488              	.L163:
 2489              		.loc 1 1070 7 discriminator 4
 2490 010e BB68     		ldr	r3, [r7, #8]
 2491 0110 082B     		cmp	r3, #8
 2492 0112 04D1     		bne	.L165
 2493              		.loc 1 1070 7 discriminator 6
 2494 0114 FB68     		ldr	r3, [r7, #12]
 2495 0116 0222     		movs	r2, #2
ARM GAS  C:\Users\TGSPOC~1\AppData\Local\Temp\ccIyOLT8.s 			page 63


 2496 0118 83F84020 		strb	r2, [r3, #64]
 2497              		.loc 1 1070 7 discriminator 10
 2498 011c 06E0     		b	.L162
 2499              	.L165:
 2500              		.loc 1 1070 7 discriminator 7
 2501 011e FB68     		ldr	r3, [r7, #12]
 2502 0120 0222     		movs	r2, #2
 2503 0122 83F84120 		strb	r2, [r3, #65]
 2504 0126 01E0     		b	.L162
 2505              	.L158:
1071:Drivers/STM32F4xx_HAL_Driver/Src/stm32f4xx_hal_tim.c ****     }
1072:Drivers/STM32F4xx_HAL_Driver/Src/stm32f4xx_hal_tim.c ****   }
1073:Drivers/STM32F4xx_HAL_Driver/Src/stm32f4xx_hal_tim.c ****   else
1074:Drivers/STM32F4xx_HAL_Driver/Src/stm32f4xx_hal_tim.c ****   {
1075:Drivers/STM32F4xx_HAL_Driver/Src/stm32f4xx_hal_tim.c ****     return HAL_ERROR;
 2506              		.loc 1 1075 12 is_stmt 1
 2507 0128 0123     		movs	r3, #1
 2508 012a 04E1     		b	.L151
 2509              	.L162:
1076:Drivers/STM32F4xx_HAL_Driver/Src/stm32f4xx_hal_tim.c ****   }
1077:Drivers/STM32F4xx_HAL_Driver/Src/stm32f4xx_hal_tim.c **** 
1078:Drivers/STM32F4xx_HAL_Driver/Src/stm32f4xx_hal_tim.c ****   switch (Channel)
 2510              		.loc 1 1078 3
 2511 012c BB68     		ldr	r3, [r7, #8]
 2512 012e 0C2B     		cmp	r3, #12
 2513 0130 00F2AE80 		bhi	.L167
 2514 0134 01A2     		adr	r2, .L169
 2515 0136 52F823F0 		ldr	pc, [r2, r3, lsl #2]
 2516 013a 00BF     		.p2align 2
 2517              	.L169:
 2518 013c 71010000 		.word	.L172+1
 2519 0140 91020000 		.word	.L167+1
 2520 0144 91020000 		.word	.L167+1
 2521 0148 91020000 		.word	.L167+1
 2522 014c B9010000 		.word	.L171+1
 2523 0150 91020000 		.word	.L167+1
 2524 0154 91020000 		.word	.L167+1
 2525 0158 91020000 		.word	.L167+1
 2526 015c 01020000 		.word	.L170+1
 2527 0160 91020000 		.word	.L167+1
 2528 0164 91020000 		.word	.L167+1
 2529 0168 91020000 		.word	.L167+1
 2530 016c 49020000 		.word	.L168+1
 2531              		.p2align 1
 2532              	.L172:
1079:Drivers/STM32F4xx_HAL_Driver/Src/stm32f4xx_hal_tim.c ****   {
1080:Drivers/STM32F4xx_HAL_Driver/Src/stm32f4xx_hal_tim.c ****     case TIM_CHANNEL_1:
1081:Drivers/STM32F4xx_HAL_Driver/Src/stm32f4xx_hal_tim.c ****     {
1082:Drivers/STM32F4xx_HAL_Driver/Src/stm32f4xx_hal_tim.c ****       /* Set the DMA compare callbacks */
1083:Drivers/STM32F4xx_HAL_Driver/Src/stm32f4xx_hal_tim.c ****       htim->hdma[TIM_DMA_ID_CC1]->XferCpltCallback = TIM_DMADelayPulseCplt;
 2533              		.loc 1 1083 17
 2534 0170 FB68     		ldr	r3, [r7, #12]
 2535 0172 5B6A     		ldr	r3, [r3, #36]
 2536              		.loc 1 1083 52
 2537 0174 724A     		ldr	r2, .L183
 2538 0176 DA63     		str	r2, [r3, #60]
1084:Drivers/STM32F4xx_HAL_Driver/Src/stm32f4xx_hal_tim.c ****       htim->hdma[TIM_DMA_ID_CC1]->XferHalfCpltCallback = TIM_DMADelayPulseHalfCplt;
ARM GAS  C:\Users\TGSPOC~1\AppData\Local\Temp\ccIyOLT8.s 			page 64


 2539              		.loc 1 1084 17
 2540 0178 FB68     		ldr	r3, [r7, #12]
 2541 017a 5B6A     		ldr	r3, [r3, #36]
 2542              		.loc 1 1084 56
 2543 017c 714A     		ldr	r2, .L183+4
 2544 017e 1A64     		str	r2, [r3, #64]
1085:Drivers/STM32F4xx_HAL_Driver/Src/stm32f4xx_hal_tim.c **** 
1086:Drivers/STM32F4xx_HAL_Driver/Src/stm32f4xx_hal_tim.c ****       /* Set the DMA error callback */
1087:Drivers/STM32F4xx_HAL_Driver/Src/stm32f4xx_hal_tim.c ****       htim->hdma[TIM_DMA_ID_CC1]->XferErrorCallback = TIM_DMAError ;
 2545              		.loc 1 1087 17
 2546 0180 FB68     		ldr	r3, [r7, #12]
 2547 0182 5B6A     		ldr	r3, [r3, #36]
 2548              		.loc 1 1087 53
 2549 0184 704A     		ldr	r2, .L183+8
 2550 0186 DA64     		str	r2, [r3, #76]
1088:Drivers/STM32F4xx_HAL_Driver/Src/stm32f4xx_hal_tim.c **** 
1089:Drivers/STM32F4xx_HAL_Driver/Src/stm32f4xx_hal_tim.c ****       /* Enable the DMA stream */
1090:Drivers/STM32F4xx_HAL_Driver/Src/stm32f4xx_hal_tim.c ****       if (HAL_DMA_Start_IT(htim->hdma[TIM_DMA_ID_CC1], (uint32_t)pData, (uint32_t)&htim->Instance->
 2551              		.loc 1 1090 11
 2552 0188 FB68     		ldr	r3, [r7, #12]
 2553 018a 586A     		ldr	r0, [r3, #36]
 2554 018c 7968     		ldr	r1, [r7, #4]
 2555              		.loc 1 1090 88
 2556 018e FB68     		ldr	r3, [r7, #12]
 2557 0190 1B68     		ldr	r3, [r3]
 2558              		.loc 1 1090 83
 2559 0192 3433     		adds	r3, r3, #52
 2560              		.loc 1 1090 11
 2561 0194 1A46     		mov	r2, r3
 2562 0196 7B88     		ldrh	r3, [r7, #2]
 2563 0198 FFF7FEFF 		bl	HAL_DMA_Start_IT
 2564 019c 0346     		mov	r3, r0
 2565              		.loc 1 1090 10 discriminator 1
 2566 019e 002B     		cmp	r3, #0
 2567 01a0 01D0     		beq	.L173
1091:Drivers/STM32F4xx_HAL_Driver/Src/stm32f4xx_hal_tim.c ****                            Length) != HAL_OK)
1092:Drivers/STM32F4xx_HAL_Driver/Src/stm32f4xx_hal_tim.c ****       {
1093:Drivers/STM32F4xx_HAL_Driver/Src/stm32f4xx_hal_tim.c ****         /* Return error status */
1094:Drivers/STM32F4xx_HAL_Driver/Src/stm32f4xx_hal_tim.c ****         return HAL_ERROR;
 2568              		.loc 1 1094 16
 2569 01a2 0123     		movs	r3, #1
 2570 01a4 C7E0     		b	.L151
 2571              	.L173:
1095:Drivers/STM32F4xx_HAL_Driver/Src/stm32f4xx_hal_tim.c ****       }
1096:Drivers/STM32F4xx_HAL_Driver/Src/stm32f4xx_hal_tim.c **** 
1097:Drivers/STM32F4xx_HAL_Driver/Src/stm32f4xx_hal_tim.c ****       /* Enable the TIM Capture/Compare 1 DMA request */
1098:Drivers/STM32F4xx_HAL_Driver/Src/stm32f4xx_hal_tim.c ****       __HAL_TIM_ENABLE_DMA(htim, TIM_DMA_CC1);
 2572              		.loc 1 1098 7
 2573 01a6 FB68     		ldr	r3, [r7, #12]
 2574 01a8 1B68     		ldr	r3, [r3]
 2575 01aa DA68     		ldr	r2, [r3, #12]
 2576 01ac FB68     		ldr	r3, [r7, #12]
 2577 01ae 1B68     		ldr	r3, [r3]
 2578 01b0 42F40072 		orr	r2, r2, #512
 2579 01b4 DA60     		str	r2, [r3, #12]
1099:Drivers/STM32F4xx_HAL_Driver/Src/stm32f4xx_hal_tim.c ****       break;
 2580              		.loc 1 1099 7
ARM GAS  C:\Users\TGSPOC~1\AppData\Local\Temp\ccIyOLT8.s 			page 65


 2581 01b6 6EE0     		b	.L174
 2582              	.L171:
1100:Drivers/STM32F4xx_HAL_Driver/Src/stm32f4xx_hal_tim.c ****     }
1101:Drivers/STM32F4xx_HAL_Driver/Src/stm32f4xx_hal_tim.c **** 
1102:Drivers/STM32F4xx_HAL_Driver/Src/stm32f4xx_hal_tim.c ****     case TIM_CHANNEL_2:
1103:Drivers/STM32F4xx_HAL_Driver/Src/stm32f4xx_hal_tim.c ****     {
1104:Drivers/STM32F4xx_HAL_Driver/Src/stm32f4xx_hal_tim.c ****       /* Set the DMA compare callbacks */
1105:Drivers/STM32F4xx_HAL_Driver/Src/stm32f4xx_hal_tim.c ****       htim->hdma[TIM_DMA_ID_CC2]->XferCpltCallback = TIM_DMADelayPulseCplt;
 2583              		.loc 1 1105 17
 2584 01b8 FB68     		ldr	r3, [r7, #12]
 2585 01ba 9B6A     		ldr	r3, [r3, #40]
 2586              		.loc 1 1105 52
 2587 01bc 604A     		ldr	r2, .L183
 2588 01be DA63     		str	r2, [r3, #60]
1106:Drivers/STM32F4xx_HAL_Driver/Src/stm32f4xx_hal_tim.c ****       htim->hdma[TIM_DMA_ID_CC2]->XferHalfCpltCallback = TIM_DMADelayPulseHalfCplt;
 2589              		.loc 1 1106 17
 2590 01c0 FB68     		ldr	r3, [r7, #12]
 2591 01c2 9B6A     		ldr	r3, [r3, #40]
 2592              		.loc 1 1106 56
 2593 01c4 5F4A     		ldr	r2, .L183+4
 2594 01c6 1A64     		str	r2, [r3, #64]
1107:Drivers/STM32F4xx_HAL_Driver/Src/stm32f4xx_hal_tim.c **** 
1108:Drivers/STM32F4xx_HAL_Driver/Src/stm32f4xx_hal_tim.c ****       /* Set the DMA error callback */
1109:Drivers/STM32F4xx_HAL_Driver/Src/stm32f4xx_hal_tim.c ****       htim->hdma[TIM_DMA_ID_CC2]->XferErrorCallback = TIM_DMAError ;
 2595              		.loc 1 1109 17
 2596 01c8 FB68     		ldr	r3, [r7, #12]
 2597 01ca 9B6A     		ldr	r3, [r3, #40]
 2598              		.loc 1 1109 53
 2599 01cc 5E4A     		ldr	r2, .L183+8
 2600 01ce DA64     		str	r2, [r3, #76]
1110:Drivers/STM32F4xx_HAL_Driver/Src/stm32f4xx_hal_tim.c **** 
1111:Drivers/STM32F4xx_HAL_Driver/Src/stm32f4xx_hal_tim.c ****       /* Enable the DMA stream */
1112:Drivers/STM32F4xx_HAL_Driver/Src/stm32f4xx_hal_tim.c ****       if (HAL_DMA_Start_IT(htim->hdma[TIM_DMA_ID_CC2], (uint32_t)pData, (uint32_t)&htim->Instance->
 2601              		.loc 1 1112 11
 2602 01d0 FB68     		ldr	r3, [r7, #12]
 2603 01d2 986A     		ldr	r0, [r3, #40]
 2604 01d4 7968     		ldr	r1, [r7, #4]
 2605              		.loc 1 1112 88
 2606 01d6 FB68     		ldr	r3, [r7, #12]
 2607 01d8 1B68     		ldr	r3, [r3]
 2608              		.loc 1 1112 83
 2609 01da 3833     		adds	r3, r3, #56
 2610              		.loc 1 1112 11
 2611 01dc 1A46     		mov	r2, r3
 2612 01de 7B88     		ldrh	r3, [r7, #2]
 2613 01e0 FFF7FEFF 		bl	HAL_DMA_Start_IT
 2614 01e4 0346     		mov	r3, r0
 2615              		.loc 1 1112 10 discriminator 1
 2616 01e6 002B     		cmp	r3, #0
 2617 01e8 01D0     		beq	.L175
1113:Drivers/STM32F4xx_HAL_Driver/Src/stm32f4xx_hal_tim.c ****                            Length) != HAL_OK)
1114:Drivers/STM32F4xx_HAL_Driver/Src/stm32f4xx_hal_tim.c ****       {
1115:Drivers/STM32F4xx_HAL_Driver/Src/stm32f4xx_hal_tim.c ****         /* Return error status */
1116:Drivers/STM32F4xx_HAL_Driver/Src/stm32f4xx_hal_tim.c ****         return HAL_ERROR;
 2618              		.loc 1 1116 16
 2619 01ea 0123     		movs	r3, #1
 2620 01ec A3E0     		b	.L151
ARM GAS  C:\Users\TGSPOC~1\AppData\Local\Temp\ccIyOLT8.s 			page 66


 2621              	.L175:
1117:Drivers/STM32F4xx_HAL_Driver/Src/stm32f4xx_hal_tim.c ****       }
1118:Drivers/STM32F4xx_HAL_Driver/Src/stm32f4xx_hal_tim.c **** 
1119:Drivers/STM32F4xx_HAL_Driver/Src/stm32f4xx_hal_tim.c ****       /* Enable the TIM Capture/Compare 2 DMA request */
1120:Drivers/STM32F4xx_HAL_Driver/Src/stm32f4xx_hal_tim.c ****       __HAL_TIM_ENABLE_DMA(htim, TIM_DMA_CC2);
 2622              		.loc 1 1120 7
 2623 01ee FB68     		ldr	r3, [r7, #12]
 2624 01f0 1B68     		ldr	r3, [r3]
 2625 01f2 DA68     		ldr	r2, [r3, #12]
 2626 01f4 FB68     		ldr	r3, [r7, #12]
 2627 01f6 1B68     		ldr	r3, [r3]
 2628 01f8 42F48062 		orr	r2, r2, #1024
 2629 01fc DA60     		str	r2, [r3, #12]
1121:Drivers/STM32F4xx_HAL_Driver/Src/stm32f4xx_hal_tim.c ****       break;
 2630              		.loc 1 1121 7
 2631 01fe 4AE0     		b	.L174
 2632              	.L170:
1122:Drivers/STM32F4xx_HAL_Driver/Src/stm32f4xx_hal_tim.c ****     }
1123:Drivers/STM32F4xx_HAL_Driver/Src/stm32f4xx_hal_tim.c **** 
1124:Drivers/STM32F4xx_HAL_Driver/Src/stm32f4xx_hal_tim.c ****     case TIM_CHANNEL_3:
1125:Drivers/STM32F4xx_HAL_Driver/Src/stm32f4xx_hal_tim.c ****     {
1126:Drivers/STM32F4xx_HAL_Driver/Src/stm32f4xx_hal_tim.c ****       /* Set the DMA compare callbacks */
1127:Drivers/STM32F4xx_HAL_Driver/Src/stm32f4xx_hal_tim.c ****       htim->hdma[TIM_DMA_ID_CC3]->XferCpltCallback = TIM_DMADelayPulseCplt;
 2633              		.loc 1 1127 17
 2634 0200 FB68     		ldr	r3, [r7, #12]
 2635 0202 DB6A     		ldr	r3, [r3, #44]
 2636              		.loc 1 1127 52
 2637 0204 4E4A     		ldr	r2, .L183
 2638 0206 DA63     		str	r2, [r3, #60]
1128:Drivers/STM32F4xx_HAL_Driver/Src/stm32f4xx_hal_tim.c ****       htim->hdma[TIM_DMA_ID_CC3]->XferHalfCpltCallback = TIM_DMADelayPulseHalfCplt;
 2639              		.loc 1 1128 17
 2640 0208 FB68     		ldr	r3, [r7, #12]
 2641 020a DB6A     		ldr	r3, [r3, #44]
 2642              		.loc 1 1128 56
 2643 020c 4D4A     		ldr	r2, .L183+4
 2644 020e 1A64     		str	r2, [r3, #64]
1129:Drivers/STM32F4xx_HAL_Driver/Src/stm32f4xx_hal_tim.c **** 
1130:Drivers/STM32F4xx_HAL_Driver/Src/stm32f4xx_hal_tim.c ****       /* Set the DMA error callback */
1131:Drivers/STM32F4xx_HAL_Driver/Src/stm32f4xx_hal_tim.c ****       htim->hdma[TIM_DMA_ID_CC3]->XferErrorCallback = TIM_DMAError ;
 2645              		.loc 1 1131 17
 2646 0210 FB68     		ldr	r3, [r7, #12]
 2647 0212 DB6A     		ldr	r3, [r3, #44]
 2648              		.loc 1 1131 53
 2649 0214 4C4A     		ldr	r2, .L183+8
 2650 0216 DA64     		str	r2, [r3, #76]
1132:Drivers/STM32F4xx_HAL_Driver/Src/stm32f4xx_hal_tim.c **** 
1133:Drivers/STM32F4xx_HAL_Driver/Src/stm32f4xx_hal_tim.c ****       /* Enable the DMA stream */
1134:Drivers/STM32F4xx_HAL_Driver/Src/stm32f4xx_hal_tim.c ****       if (HAL_DMA_Start_IT(htim->hdma[TIM_DMA_ID_CC3], (uint32_t)pData, (uint32_t)&htim->Instance->
 2651              		.loc 1 1134 11
 2652 0218 FB68     		ldr	r3, [r7, #12]
 2653 021a D86A     		ldr	r0, [r3, #44]
 2654 021c 7968     		ldr	r1, [r7, #4]
 2655              		.loc 1 1134 88
 2656 021e FB68     		ldr	r3, [r7, #12]
 2657 0220 1B68     		ldr	r3, [r3]
 2658              		.loc 1 1134 83
 2659 0222 3C33     		adds	r3, r3, #60
ARM GAS  C:\Users\TGSPOC~1\AppData\Local\Temp\ccIyOLT8.s 			page 67


 2660              		.loc 1 1134 11
 2661 0224 1A46     		mov	r2, r3
 2662 0226 7B88     		ldrh	r3, [r7, #2]
 2663 0228 FFF7FEFF 		bl	HAL_DMA_Start_IT
 2664 022c 0346     		mov	r3, r0
 2665              		.loc 1 1134 10 discriminator 1
 2666 022e 002B     		cmp	r3, #0
 2667 0230 01D0     		beq	.L176
1135:Drivers/STM32F4xx_HAL_Driver/Src/stm32f4xx_hal_tim.c ****                            Length) != HAL_OK)
1136:Drivers/STM32F4xx_HAL_Driver/Src/stm32f4xx_hal_tim.c ****       {
1137:Drivers/STM32F4xx_HAL_Driver/Src/stm32f4xx_hal_tim.c ****         /* Return error status */
1138:Drivers/STM32F4xx_HAL_Driver/Src/stm32f4xx_hal_tim.c ****         return HAL_ERROR;
 2668              		.loc 1 1138 16
 2669 0232 0123     		movs	r3, #1
 2670 0234 7FE0     		b	.L151
 2671              	.L176:
1139:Drivers/STM32F4xx_HAL_Driver/Src/stm32f4xx_hal_tim.c ****       }
1140:Drivers/STM32F4xx_HAL_Driver/Src/stm32f4xx_hal_tim.c ****       /* Enable the TIM Capture/Compare 3 DMA request */
1141:Drivers/STM32F4xx_HAL_Driver/Src/stm32f4xx_hal_tim.c ****       __HAL_TIM_ENABLE_DMA(htim, TIM_DMA_CC3);
 2672              		.loc 1 1141 7
 2673 0236 FB68     		ldr	r3, [r7, #12]
 2674 0238 1B68     		ldr	r3, [r3]
 2675 023a DA68     		ldr	r2, [r3, #12]
 2676 023c FB68     		ldr	r3, [r7, #12]
 2677 023e 1B68     		ldr	r3, [r3]
 2678 0240 42F40062 		orr	r2, r2, #2048
 2679 0244 DA60     		str	r2, [r3, #12]
1142:Drivers/STM32F4xx_HAL_Driver/Src/stm32f4xx_hal_tim.c ****       break;
 2680              		.loc 1 1142 7
 2681 0246 26E0     		b	.L174
 2682              	.L168:
1143:Drivers/STM32F4xx_HAL_Driver/Src/stm32f4xx_hal_tim.c ****     }
1144:Drivers/STM32F4xx_HAL_Driver/Src/stm32f4xx_hal_tim.c **** 
1145:Drivers/STM32F4xx_HAL_Driver/Src/stm32f4xx_hal_tim.c ****     case TIM_CHANNEL_4:
1146:Drivers/STM32F4xx_HAL_Driver/Src/stm32f4xx_hal_tim.c ****     {
1147:Drivers/STM32F4xx_HAL_Driver/Src/stm32f4xx_hal_tim.c ****       /* Set the DMA compare callbacks */
1148:Drivers/STM32F4xx_HAL_Driver/Src/stm32f4xx_hal_tim.c ****       htim->hdma[TIM_DMA_ID_CC4]->XferCpltCallback = TIM_DMADelayPulseCplt;
 2683              		.loc 1 1148 17
 2684 0248 FB68     		ldr	r3, [r7, #12]
 2685 024a 1B6B     		ldr	r3, [r3, #48]
 2686              		.loc 1 1148 52
 2687 024c 3C4A     		ldr	r2, .L183
 2688 024e DA63     		str	r2, [r3, #60]
1149:Drivers/STM32F4xx_HAL_Driver/Src/stm32f4xx_hal_tim.c ****       htim->hdma[TIM_DMA_ID_CC4]->XferHalfCpltCallback = TIM_DMADelayPulseHalfCplt;
 2689              		.loc 1 1149 17
 2690 0250 FB68     		ldr	r3, [r7, #12]
 2691 0252 1B6B     		ldr	r3, [r3, #48]
 2692              		.loc 1 1149 56
 2693 0254 3B4A     		ldr	r2, .L183+4
 2694 0256 1A64     		str	r2, [r3, #64]
1150:Drivers/STM32F4xx_HAL_Driver/Src/stm32f4xx_hal_tim.c **** 
1151:Drivers/STM32F4xx_HAL_Driver/Src/stm32f4xx_hal_tim.c ****       /* Set the DMA error callback */
1152:Drivers/STM32F4xx_HAL_Driver/Src/stm32f4xx_hal_tim.c ****       htim->hdma[TIM_DMA_ID_CC4]->XferErrorCallback = TIM_DMAError ;
 2695              		.loc 1 1152 17
 2696 0258 FB68     		ldr	r3, [r7, #12]
 2697 025a 1B6B     		ldr	r3, [r3, #48]
 2698              		.loc 1 1152 53
ARM GAS  C:\Users\TGSPOC~1\AppData\Local\Temp\ccIyOLT8.s 			page 68


 2699 025c 3A4A     		ldr	r2, .L183+8
 2700 025e DA64     		str	r2, [r3, #76]
1153:Drivers/STM32F4xx_HAL_Driver/Src/stm32f4xx_hal_tim.c **** 
1154:Drivers/STM32F4xx_HAL_Driver/Src/stm32f4xx_hal_tim.c ****       /* Enable the DMA stream */
1155:Drivers/STM32F4xx_HAL_Driver/Src/stm32f4xx_hal_tim.c ****       if (HAL_DMA_Start_IT(htim->hdma[TIM_DMA_ID_CC4], (uint32_t)pData, (uint32_t)&htim->Instance->
 2701              		.loc 1 1155 11
 2702 0260 FB68     		ldr	r3, [r7, #12]
 2703 0262 186B     		ldr	r0, [r3, #48]
 2704 0264 7968     		ldr	r1, [r7, #4]
 2705              		.loc 1 1155 88
 2706 0266 FB68     		ldr	r3, [r7, #12]
 2707 0268 1B68     		ldr	r3, [r3]
 2708              		.loc 1 1155 83
 2709 026a 4033     		adds	r3, r3, #64
 2710              		.loc 1 1155 11
 2711 026c 1A46     		mov	r2, r3
 2712 026e 7B88     		ldrh	r3, [r7, #2]
 2713 0270 FFF7FEFF 		bl	HAL_DMA_Start_IT
 2714 0274 0346     		mov	r3, r0
 2715              		.loc 1 1155 10 discriminator 1
 2716 0276 002B     		cmp	r3, #0
 2717 0278 01D0     		beq	.L177
1156:Drivers/STM32F4xx_HAL_Driver/Src/stm32f4xx_hal_tim.c ****                            Length) != HAL_OK)
1157:Drivers/STM32F4xx_HAL_Driver/Src/stm32f4xx_hal_tim.c ****       {
1158:Drivers/STM32F4xx_HAL_Driver/Src/stm32f4xx_hal_tim.c ****         /* Return error status */
1159:Drivers/STM32F4xx_HAL_Driver/Src/stm32f4xx_hal_tim.c ****         return HAL_ERROR;
 2718              		.loc 1 1159 16
 2719 027a 0123     		movs	r3, #1
 2720 027c 5BE0     		b	.L151
 2721              	.L177:
1160:Drivers/STM32F4xx_HAL_Driver/Src/stm32f4xx_hal_tim.c ****       }
1161:Drivers/STM32F4xx_HAL_Driver/Src/stm32f4xx_hal_tim.c ****       /* Enable the TIM Capture/Compare 4 DMA request */
1162:Drivers/STM32F4xx_HAL_Driver/Src/stm32f4xx_hal_tim.c ****       __HAL_TIM_ENABLE_DMA(htim, TIM_DMA_CC4);
 2722              		.loc 1 1162 7
 2723 027e FB68     		ldr	r3, [r7, #12]
 2724 0280 1B68     		ldr	r3, [r3]
 2725 0282 DA68     		ldr	r2, [r3, #12]
 2726 0284 FB68     		ldr	r3, [r7, #12]
 2727 0286 1B68     		ldr	r3, [r3]
 2728 0288 42F48052 		orr	r2, r2, #4096
 2729 028c DA60     		str	r2, [r3, #12]
1163:Drivers/STM32F4xx_HAL_Driver/Src/stm32f4xx_hal_tim.c ****       break;
 2730              		.loc 1 1163 7
 2731 028e 02E0     		b	.L174
 2732              	.L167:
1164:Drivers/STM32F4xx_HAL_Driver/Src/stm32f4xx_hal_tim.c ****     }
1165:Drivers/STM32F4xx_HAL_Driver/Src/stm32f4xx_hal_tim.c **** 
1166:Drivers/STM32F4xx_HAL_Driver/Src/stm32f4xx_hal_tim.c ****     default:
1167:Drivers/STM32F4xx_HAL_Driver/Src/stm32f4xx_hal_tim.c ****       status = HAL_ERROR;
 2733              		.loc 1 1167 14
 2734 0290 0123     		movs	r3, #1
 2735 0292 FB75     		strb	r3, [r7, #23]
1168:Drivers/STM32F4xx_HAL_Driver/Src/stm32f4xx_hal_tim.c ****       break;
 2736              		.loc 1 1168 7
 2737 0294 00BF     		nop
 2738              	.L174:
1169:Drivers/STM32F4xx_HAL_Driver/Src/stm32f4xx_hal_tim.c ****   }
ARM GAS  C:\Users\TGSPOC~1\AppData\Local\Temp\ccIyOLT8.s 			page 69


1170:Drivers/STM32F4xx_HAL_Driver/Src/stm32f4xx_hal_tim.c **** 
1171:Drivers/STM32F4xx_HAL_Driver/Src/stm32f4xx_hal_tim.c ****   if (status == HAL_OK)
 2739              		.loc 1 1171 6
 2740 0296 FB7D     		ldrb	r3, [r7, #23]	@ zero_extendqisi2
 2741 0298 002B     		cmp	r3, #0
 2742 029a 4BD1     		bne	.L178
1172:Drivers/STM32F4xx_HAL_Driver/Src/stm32f4xx_hal_tim.c ****   {
1173:Drivers/STM32F4xx_HAL_Driver/Src/stm32f4xx_hal_tim.c ****     /* Enable the Output compare channel */
1174:Drivers/STM32F4xx_HAL_Driver/Src/stm32f4xx_hal_tim.c ****     TIM_CCxChannelCmd(htim->Instance, Channel, TIM_CCx_ENABLE);
 2743              		.loc 1 1174 5
 2744 029c FB68     		ldr	r3, [r7, #12]
 2745 029e 1B68     		ldr	r3, [r3]
 2746 02a0 0122     		movs	r2, #1
 2747 02a2 B968     		ldr	r1, [r7, #8]
 2748 02a4 1846     		mov	r0, r3
 2749 02a6 FFF7FEFF 		bl	TIM_CCxChannelCmd
1175:Drivers/STM32F4xx_HAL_Driver/Src/stm32f4xx_hal_tim.c **** 
1176:Drivers/STM32F4xx_HAL_Driver/Src/stm32f4xx_hal_tim.c ****     if (IS_TIM_BREAK_INSTANCE(htim->Instance) != RESET)
 2750              		.loc 1 1176 9
 2751 02aa FB68     		ldr	r3, [r7, #12]
 2752 02ac 1B68     		ldr	r3, [r3]
 2753              		.loc 1 1176 8
 2754 02ae 274A     		ldr	r2, .L183+12
 2755 02b0 9342     		cmp	r3, r2
 2756 02b2 07D1     		bne	.L179
1177:Drivers/STM32F4xx_HAL_Driver/Src/stm32f4xx_hal_tim.c ****     {
1178:Drivers/STM32F4xx_HAL_Driver/Src/stm32f4xx_hal_tim.c ****       /* Enable the main output */
1179:Drivers/STM32F4xx_HAL_Driver/Src/stm32f4xx_hal_tim.c ****       __HAL_TIM_MOE_ENABLE(htim);
 2757              		.loc 1 1179 7
 2758 02b4 FB68     		ldr	r3, [r7, #12]
 2759 02b6 1B68     		ldr	r3, [r3]
 2760 02b8 5A6C     		ldr	r2, [r3, #68]
 2761 02ba FB68     		ldr	r3, [r7, #12]
 2762 02bc 1B68     		ldr	r3, [r3]
 2763 02be 42F40042 		orr	r2, r2, #32768
 2764 02c2 5A64     		str	r2, [r3, #68]
 2765              	.L179:
1180:Drivers/STM32F4xx_HAL_Driver/Src/stm32f4xx_hal_tim.c ****     }
1181:Drivers/STM32F4xx_HAL_Driver/Src/stm32f4xx_hal_tim.c **** 
1182:Drivers/STM32F4xx_HAL_Driver/Src/stm32f4xx_hal_tim.c ****     /* Enable the Peripheral, except in trigger mode where enable is automatically done with trigge
1183:Drivers/STM32F4xx_HAL_Driver/Src/stm32f4xx_hal_tim.c ****     if (IS_TIM_SLAVE_INSTANCE(htim->Instance))
 2766              		.loc 1 1183 9
 2767 02c4 FB68     		ldr	r3, [r7, #12]
 2768 02c6 1B68     		ldr	r3, [r3]
 2769              		.loc 1 1183 8
 2770 02c8 204A     		ldr	r2, .L183+12
 2771 02ca 9342     		cmp	r3, r2
 2772 02cc 18D0     		beq	.L180
 2773              		.loc 1 1183 9 discriminator 1
 2774 02ce FB68     		ldr	r3, [r7, #12]
 2775 02d0 1B68     		ldr	r3, [r3]
 2776 02d2 B3F1804F 		cmp	r3, #1073741824
 2777 02d6 13D0     		beq	.L180
 2778              		.loc 1 1183 9 is_stmt 0 discriminator 2
 2779 02d8 FB68     		ldr	r3, [r7, #12]
 2780 02da 1B68     		ldr	r3, [r3]
 2781 02dc 1C4A     		ldr	r2, .L183+16
ARM GAS  C:\Users\TGSPOC~1\AppData\Local\Temp\ccIyOLT8.s 			page 70


 2782 02de 9342     		cmp	r3, r2
 2783 02e0 0ED0     		beq	.L180
 2784              		.loc 1 1183 9 discriminator 3
 2785 02e2 FB68     		ldr	r3, [r7, #12]
 2786 02e4 1B68     		ldr	r3, [r3]
 2787 02e6 1B4A     		ldr	r2, .L183+20
 2788 02e8 9342     		cmp	r3, r2
 2789 02ea 09D0     		beq	.L180
 2790              		.loc 1 1183 9 discriminator 4
 2791 02ec FB68     		ldr	r3, [r7, #12]
 2792 02ee 1B68     		ldr	r3, [r3]
 2793 02f0 194A     		ldr	r2, .L183+24
 2794 02f2 9342     		cmp	r3, r2
 2795 02f4 04D0     		beq	.L180
 2796              		.loc 1 1183 9 discriminator 5
 2797 02f6 FB68     		ldr	r3, [r7, #12]
 2798 02f8 1B68     		ldr	r3, [r3]
 2799 02fa 184A     		ldr	r2, .L183+28
 2800 02fc 9342     		cmp	r3, r2
 2801 02fe 11D1     		bne	.L181
 2802              	.L180:
1184:Drivers/STM32F4xx_HAL_Driver/Src/stm32f4xx_hal_tim.c ****     {
1185:Drivers/STM32F4xx_HAL_Driver/Src/stm32f4xx_hal_tim.c ****       tmpsmcr = htim->Instance->SMCR & TIM_SMCR_SMS;
 2803              		.loc 1 1185 21 is_stmt 1
 2804 0300 FB68     		ldr	r3, [r7, #12]
 2805 0302 1B68     		ldr	r3, [r3]
 2806              		.loc 1 1185 31
 2807 0304 9B68     		ldr	r3, [r3, #8]
 2808              		.loc 1 1185 15
 2809 0306 03F00703 		and	r3, r3, #7
 2810 030a 3B61     		str	r3, [r7, #16]
1186:Drivers/STM32F4xx_HAL_Driver/Src/stm32f4xx_hal_tim.c ****       if (!IS_TIM_SLAVEMODE_TRIGGER_ENABLED(tmpsmcr))
 2811              		.loc 1 1186 10
 2812 030c 3B69     		ldr	r3, [r7, #16]
 2813 030e 062B     		cmp	r3, #6
 2814 0310 10D0     		beq	.L178
1187:Drivers/STM32F4xx_HAL_Driver/Src/stm32f4xx_hal_tim.c ****       {
1188:Drivers/STM32F4xx_HAL_Driver/Src/stm32f4xx_hal_tim.c ****         __HAL_TIM_ENABLE(htim);
 2815              		.loc 1 1188 9
 2816 0312 FB68     		ldr	r3, [r7, #12]
 2817 0314 1B68     		ldr	r3, [r3]
 2818 0316 1A68     		ldr	r2, [r3]
 2819 0318 FB68     		ldr	r3, [r7, #12]
 2820 031a 1B68     		ldr	r3, [r3]
 2821 031c 42F00102 		orr	r2, r2, #1
 2822 0320 1A60     		str	r2, [r3]
1186:Drivers/STM32F4xx_HAL_Driver/Src/stm32f4xx_hal_tim.c ****       if (!IS_TIM_SLAVEMODE_TRIGGER_ENABLED(tmpsmcr))
 2823              		.loc 1 1186 10
 2824 0322 07E0     		b	.L178
 2825              	.L181:
1189:Drivers/STM32F4xx_HAL_Driver/Src/stm32f4xx_hal_tim.c ****       }
1190:Drivers/STM32F4xx_HAL_Driver/Src/stm32f4xx_hal_tim.c ****     }
1191:Drivers/STM32F4xx_HAL_Driver/Src/stm32f4xx_hal_tim.c ****     else
1192:Drivers/STM32F4xx_HAL_Driver/Src/stm32f4xx_hal_tim.c ****     {
1193:Drivers/STM32F4xx_HAL_Driver/Src/stm32f4xx_hal_tim.c ****       __HAL_TIM_ENABLE(htim);
 2826              		.loc 1 1193 7
 2827 0324 FB68     		ldr	r3, [r7, #12]
ARM GAS  C:\Users\TGSPOC~1\AppData\Local\Temp\ccIyOLT8.s 			page 71


 2828 0326 1B68     		ldr	r3, [r3]
 2829 0328 1A68     		ldr	r2, [r3]
 2830 032a FB68     		ldr	r3, [r7, #12]
 2831 032c 1B68     		ldr	r3, [r3]
 2832 032e 42F00102 		orr	r2, r2, #1
 2833 0332 1A60     		str	r2, [r3]
 2834              	.L178:
1194:Drivers/STM32F4xx_HAL_Driver/Src/stm32f4xx_hal_tim.c ****     }
1195:Drivers/STM32F4xx_HAL_Driver/Src/stm32f4xx_hal_tim.c ****   }
1196:Drivers/STM32F4xx_HAL_Driver/Src/stm32f4xx_hal_tim.c **** 
1197:Drivers/STM32F4xx_HAL_Driver/Src/stm32f4xx_hal_tim.c ****   /* Return function status */
1198:Drivers/STM32F4xx_HAL_Driver/Src/stm32f4xx_hal_tim.c ****   return status;
 2835              		.loc 1 1198 10
 2836 0334 FB7D     		ldrb	r3, [r7, #23]	@ zero_extendqisi2
 2837              	.L151:
1199:Drivers/STM32F4xx_HAL_Driver/Src/stm32f4xx_hal_tim.c **** }
 2838              		.loc 1 1199 1
 2839 0336 1846     		mov	r0, r3
 2840 0338 1837     		adds	r7, r7, #24
 2841              	.LCFI101:
 2842              		.cfi_def_cfa_offset 8
 2843 033a BD46     		mov	sp, r7
 2844              	.LCFI102:
 2845              		.cfi_def_cfa_register 13
 2846              		@ sp needed
 2847 033c 80BD     		pop	{r7, pc}
 2848              	.L184:
 2849 033e 00BF     		.align	2
 2850              	.L183:
 2851 0340 00000000 		.word	TIM_DMADelayPulseCplt
 2852 0344 00000000 		.word	TIM_DMADelayPulseHalfCplt
 2853 0348 00000000 		.word	TIM_DMAError
 2854 034c 00000140 		.word	1073807360
 2855 0350 00040040 		.word	1073742848
 2856 0354 00080040 		.word	1073743872
 2857 0358 000C0040 		.word	1073744896
 2858 035c 00400140 		.word	1073823744
 2859              		.cfi_endproc
 2860              	.LFE152:
 2862              		.section	.text.HAL_TIM_OC_Stop_DMA,"ax",%progbits
 2863              		.align	1
 2864              		.global	HAL_TIM_OC_Stop_DMA
 2865              		.syntax unified
 2866              		.thumb
 2867              		.thumb_func
 2869              	HAL_TIM_OC_Stop_DMA:
 2870              	.LFB153:
1200:Drivers/STM32F4xx_HAL_Driver/Src/stm32f4xx_hal_tim.c **** 
1201:Drivers/STM32F4xx_HAL_Driver/Src/stm32f4xx_hal_tim.c **** /**
1202:Drivers/STM32F4xx_HAL_Driver/Src/stm32f4xx_hal_tim.c ****   * @brief  Stops the TIM Output Compare signal generation in DMA mode.
1203:Drivers/STM32F4xx_HAL_Driver/Src/stm32f4xx_hal_tim.c ****   * @param  htim TIM Output Compare handle
1204:Drivers/STM32F4xx_HAL_Driver/Src/stm32f4xx_hal_tim.c ****   * @param  Channel TIM Channel to be disabled
1205:Drivers/STM32F4xx_HAL_Driver/Src/stm32f4xx_hal_tim.c ****   *          This parameter can be one of the following values:
1206:Drivers/STM32F4xx_HAL_Driver/Src/stm32f4xx_hal_tim.c ****   *            @arg TIM_CHANNEL_1: TIM Channel 1 selected
1207:Drivers/STM32F4xx_HAL_Driver/Src/stm32f4xx_hal_tim.c ****   *            @arg TIM_CHANNEL_2: TIM Channel 2 selected
1208:Drivers/STM32F4xx_HAL_Driver/Src/stm32f4xx_hal_tim.c ****   *            @arg TIM_CHANNEL_3: TIM Channel 3 selected
1209:Drivers/STM32F4xx_HAL_Driver/Src/stm32f4xx_hal_tim.c ****   *            @arg TIM_CHANNEL_4: TIM Channel 4 selected
ARM GAS  C:\Users\TGSPOC~1\AppData\Local\Temp\ccIyOLT8.s 			page 72


1210:Drivers/STM32F4xx_HAL_Driver/Src/stm32f4xx_hal_tim.c ****   * @retval HAL status
1211:Drivers/STM32F4xx_HAL_Driver/Src/stm32f4xx_hal_tim.c ****   */
1212:Drivers/STM32F4xx_HAL_Driver/Src/stm32f4xx_hal_tim.c **** HAL_StatusTypeDef HAL_TIM_OC_Stop_DMA(TIM_HandleTypeDef *htim, uint32_t Channel)
1213:Drivers/STM32F4xx_HAL_Driver/Src/stm32f4xx_hal_tim.c **** {
 2871              		.loc 1 1213 1
 2872              		.cfi_startproc
 2873              		@ args = 0, pretend = 0, frame = 16
 2874              		@ frame_needed = 1, uses_anonymous_args = 0
 2875 0000 80B5     		push	{r7, lr}
 2876              	.LCFI103:
 2877              		.cfi_def_cfa_offset 8
 2878              		.cfi_offset 7, -8
 2879              		.cfi_offset 14, -4
 2880 0002 84B0     		sub	sp, sp, #16
 2881              	.LCFI104:
 2882              		.cfi_def_cfa_offset 24
 2883 0004 00AF     		add	r7, sp, #0
 2884              	.LCFI105:
 2885              		.cfi_def_cfa_register 7
 2886 0006 7860     		str	r0, [r7, #4]
 2887 0008 3960     		str	r1, [r7]
1214:Drivers/STM32F4xx_HAL_Driver/Src/stm32f4xx_hal_tim.c ****   HAL_StatusTypeDef status = HAL_OK;
 2888              		.loc 1 1214 21
 2889 000a 0023     		movs	r3, #0
 2890 000c FB73     		strb	r3, [r7, #15]
1215:Drivers/STM32F4xx_HAL_Driver/Src/stm32f4xx_hal_tim.c **** 
1216:Drivers/STM32F4xx_HAL_Driver/Src/stm32f4xx_hal_tim.c ****   /* Check the parameters */
1217:Drivers/STM32F4xx_HAL_Driver/Src/stm32f4xx_hal_tim.c ****   assert_param(IS_TIM_CCX_INSTANCE(htim->Instance, Channel));
1218:Drivers/STM32F4xx_HAL_Driver/Src/stm32f4xx_hal_tim.c **** 
1219:Drivers/STM32F4xx_HAL_Driver/Src/stm32f4xx_hal_tim.c ****   switch (Channel)
 2891              		.loc 1 1219 3
 2892 000e 3B68     		ldr	r3, [r7]
 2893 0010 0C2B     		cmp	r3, #12
 2894 0012 55D8     		bhi	.L186
 2895 0014 01A2     		adr	r2, .L188
 2896 0016 52F823F0 		ldr	pc, [r2, r3, lsl #2]
 2897 001a 00BF     		.p2align 2
 2898              	.L188:
 2899 001c 51000000 		.word	.L191+1
 2900 0020 C1000000 		.word	.L186+1
 2901 0024 C1000000 		.word	.L186+1
 2902 0028 C1000000 		.word	.L186+1
 2903 002c 6D000000 		.word	.L190+1
 2904 0030 C1000000 		.word	.L186+1
 2905 0034 C1000000 		.word	.L186+1
 2906 0038 C1000000 		.word	.L186+1
 2907 003c 89000000 		.word	.L189+1
 2908 0040 C1000000 		.word	.L186+1
 2909 0044 C1000000 		.word	.L186+1
 2910 0048 C1000000 		.word	.L186+1
 2911 004c A5000000 		.word	.L187+1
 2912              		.p2align 1
 2913              	.L191:
1220:Drivers/STM32F4xx_HAL_Driver/Src/stm32f4xx_hal_tim.c ****   {
1221:Drivers/STM32F4xx_HAL_Driver/Src/stm32f4xx_hal_tim.c ****     case TIM_CHANNEL_1:
1222:Drivers/STM32F4xx_HAL_Driver/Src/stm32f4xx_hal_tim.c ****     {
1223:Drivers/STM32F4xx_HAL_Driver/Src/stm32f4xx_hal_tim.c ****       /* Disable the TIM Capture/Compare 1 DMA request */
ARM GAS  C:\Users\TGSPOC~1\AppData\Local\Temp\ccIyOLT8.s 			page 73


1224:Drivers/STM32F4xx_HAL_Driver/Src/stm32f4xx_hal_tim.c ****       __HAL_TIM_DISABLE_DMA(htim, TIM_DMA_CC1);
 2914              		.loc 1 1224 7
 2915 0050 7B68     		ldr	r3, [r7, #4]
 2916 0052 1B68     		ldr	r3, [r3]
 2917 0054 DA68     		ldr	r2, [r3, #12]
 2918 0056 7B68     		ldr	r3, [r7, #4]
 2919 0058 1B68     		ldr	r3, [r3]
 2920 005a 22F40072 		bic	r2, r2, #512
 2921 005e DA60     		str	r2, [r3, #12]
1225:Drivers/STM32F4xx_HAL_Driver/Src/stm32f4xx_hal_tim.c ****       (void)HAL_DMA_Abort_IT(htim->hdma[TIM_DMA_ID_CC1]);
 2922              		.loc 1 1225 13
 2923 0060 7B68     		ldr	r3, [r7, #4]
 2924 0062 5B6A     		ldr	r3, [r3, #36]
 2925 0064 1846     		mov	r0, r3
 2926 0066 FFF7FEFF 		bl	HAL_DMA_Abort_IT
1226:Drivers/STM32F4xx_HAL_Driver/Src/stm32f4xx_hal_tim.c ****       break;
 2927              		.loc 1 1226 7
 2928 006a 2CE0     		b	.L192
 2929              	.L190:
1227:Drivers/STM32F4xx_HAL_Driver/Src/stm32f4xx_hal_tim.c ****     }
1228:Drivers/STM32F4xx_HAL_Driver/Src/stm32f4xx_hal_tim.c **** 
1229:Drivers/STM32F4xx_HAL_Driver/Src/stm32f4xx_hal_tim.c ****     case TIM_CHANNEL_2:
1230:Drivers/STM32F4xx_HAL_Driver/Src/stm32f4xx_hal_tim.c ****     {
1231:Drivers/STM32F4xx_HAL_Driver/Src/stm32f4xx_hal_tim.c ****       /* Disable the TIM Capture/Compare 2 DMA request */
1232:Drivers/STM32F4xx_HAL_Driver/Src/stm32f4xx_hal_tim.c ****       __HAL_TIM_DISABLE_DMA(htim, TIM_DMA_CC2);
 2930              		.loc 1 1232 7
 2931 006c 7B68     		ldr	r3, [r7, #4]
 2932 006e 1B68     		ldr	r3, [r3]
 2933 0070 DA68     		ldr	r2, [r3, #12]
 2934 0072 7B68     		ldr	r3, [r7, #4]
 2935 0074 1B68     		ldr	r3, [r3]
 2936 0076 22F48062 		bic	r2, r2, #1024
 2937 007a DA60     		str	r2, [r3, #12]
1233:Drivers/STM32F4xx_HAL_Driver/Src/stm32f4xx_hal_tim.c ****       (void)HAL_DMA_Abort_IT(htim->hdma[TIM_DMA_ID_CC2]);
 2938              		.loc 1 1233 13
 2939 007c 7B68     		ldr	r3, [r7, #4]
 2940 007e 9B6A     		ldr	r3, [r3, #40]
 2941 0080 1846     		mov	r0, r3
 2942 0082 FFF7FEFF 		bl	HAL_DMA_Abort_IT
1234:Drivers/STM32F4xx_HAL_Driver/Src/stm32f4xx_hal_tim.c ****       break;
 2943              		.loc 1 1234 7
 2944 0086 1EE0     		b	.L192
 2945              	.L189:
1235:Drivers/STM32F4xx_HAL_Driver/Src/stm32f4xx_hal_tim.c ****     }
1236:Drivers/STM32F4xx_HAL_Driver/Src/stm32f4xx_hal_tim.c **** 
1237:Drivers/STM32F4xx_HAL_Driver/Src/stm32f4xx_hal_tim.c ****     case TIM_CHANNEL_3:
1238:Drivers/STM32F4xx_HAL_Driver/Src/stm32f4xx_hal_tim.c ****     {
1239:Drivers/STM32F4xx_HAL_Driver/Src/stm32f4xx_hal_tim.c ****       /* Disable the TIM Capture/Compare 3 DMA request */
1240:Drivers/STM32F4xx_HAL_Driver/Src/stm32f4xx_hal_tim.c ****       __HAL_TIM_DISABLE_DMA(htim, TIM_DMA_CC3);
 2946              		.loc 1 1240 7
 2947 0088 7B68     		ldr	r3, [r7, #4]
 2948 008a 1B68     		ldr	r3, [r3]
 2949 008c DA68     		ldr	r2, [r3, #12]
 2950 008e 7B68     		ldr	r3, [r7, #4]
 2951 0090 1B68     		ldr	r3, [r3]
 2952 0092 22F40062 		bic	r2, r2, #2048
 2953 0096 DA60     		str	r2, [r3, #12]
ARM GAS  C:\Users\TGSPOC~1\AppData\Local\Temp\ccIyOLT8.s 			page 74


1241:Drivers/STM32F4xx_HAL_Driver/Src/stm32f4xx_hal_tim.c ****       (void)HAL_DMA_Abort_IT(htim->hdma[TIM_DMA_ID_CC3]);
 2954              		.loc 1 1241 13
 2955 0098 7B68     		ldr	r3, [r7, #4]
 2956 009a DB6A     		ldr	r3, [r3, #44]
 2957 009c 1846     		mov	r0, r3
 2958 009e FFF7FEFF 		bl	HAL_DMA_Abort_IT
1242:Drivers/STM32F4xx_HAL_Driver/Src/stm32f4xx_hal_tim.c ****       break;
 2959              		.loc 1 1242 7
 2960 00a2 10E0     		b	.L192
 2961              	.L187:
1243:Drivers/STM32F4xx_HAL_Driver/Src/stm32f4xx_hal_tim.c ****     }
1244:Drivers/STM32F4xx_HAL_Driver/Src/stm32f4xx_hal_tim.c **** 
1245:Drivers/STM32F4xx_HAL_Driver/Src/stm32f4xx_hal_tim.c ****     case TIM_CHANNEL_4:
1246:Drivers/STM32F4xx_HAL_Driver/Src/stm32f4xx_hal_tim.c ****     {
1247:Drivers/STM32F4xx_HAL_Driver/Src/stm32f4xx_hal_tim.c ****       /* Disable the TIM Capture/Compare 4 interrupt */
1248:Drivers/STM32F4xx_HAL_Driver/Src/stm32f4xx_hal_tim.c ****       __HAL_TIM_DISABLE_DMA(htim, TIM_DMA_CC4);
 2962              		.loc 1 1248 7
 2963 00a4 7B68     		ldr	r3, [r7, #4]
 2964 00a6 1B68     		ldr	r3, [r3]
 2965 00a8 DA68     		ldr	r2, [r3, #12]
 2966 00aa 7B68     		ldr	r3, [r7, #4]
 2967 00ac 1B68     		ldr	r3, [r3]
 2968 00ae 22F48052 		bic	r2, r2, #4096
 2969 00b2 DA60     		str	r2, [r3, #12]
1249:Drivers/STM32F4xx_HAL_Driver/Src/stm32f4xx_hal_tim.c ****       (void)HAL_DMA_Abort_IT(htim->hdma[TIM_DMA_ID_CC4]);
 2970              		.loc 1 1249 13
 2971 00b4 7B68     		ldr	r3, [r7, #4]
 2972 00b6 1B6B     		ldr	r3, [r3, #48]
 2973 00b8 1846     		mov	r0, r3
 2974 00ba FFF7FEFF 		bl	HAL_DMA_Abort_IT
1250:Drivers/STM32F4xx_HAL_Driver/Src/stm32f4xx_hal_tim.c ****       break;
 2975              		.loc 1 1250 7
 2976 00be 02E0     		b	.L192
 2977              	.L186:
1251:Drivers/STM32F4xx_HAL_Driver/Src/stm32f4xx_hal_tim.c ****     }
1252:Drivers/STM32F4xx_HAL_Driver/Src/stm32f4xx_hal_tim.c **** 
1253:Drivers/STM32F4xx_HAL_Driver/Src/stm32f4xx_hal_tim.c ****     default:
1254:Drivers/STM32F4xx_HAL_Driver/Src/stm32f4xx_hal_tim.c ****       status = HAL_ERROR;
 2978              		.loc 1 1254 14
 2979 00c0 0123     		movs	r3, #1
 2980 00c2 FB73     		strb	r3, [r7, #15]
1255:Drivers/STM32F4xx_HAL_Driver/Src/stm32f4xx_hal_tim.c ****       break;
 2981              		.loc 1 1255 7
 2982 00c4 00BF     		nop
 2983              	.L192:
1256:Drivers/STM32F4xx_HAL_Driver/Src/stm32f4xx_hal_tim.c ****   }
1257:Drivers/STM32F4xx_HAL_Driver/Src/stm32f4xx_hal_tim.c **** 
1258:Drivers/STM32F4xx_HAL_Driver/Src/stm32f4xx_hal_tim.c ****   if (status == HAL_OK)
 2984              		.loc 1 1258 6
 2985 00c6 FB7B     		ldrb	r3, [r7, #15]	@ zero_extendqisi2
 2986 00c8 002B     		cmp	r3, #0
 2987 00ca 57D1     		bne	.L193
1259:Drivers/STM32F4xx_HAL_Driver/Src/stm32f4xx_hal_tim.c ****   {
1260:Drivers/STM32F4xx_HAL_Driver/Src/stm32f4xx_hal_tim.c ****     /* Disable the Output compare channel */
1261:Drivers/STM32F4xx_HAL_Driver/Src/stm32f4xx_hal_tim.c ****     TIM_CCxChannelCmd(htim->Instance, Channel, TIM_CCx_DISABLE);
 2988              		.loc 1 1261 5
 2989 00cc 7B68     		ldr	r3, [r7, #4]
ARM GAS  C:\Users\TGSPOC~1\AppData\Local\Temp\ccIyOLT8.s 			page 75


 2990 00ce 1B68     		ldr	r3, [r3]
 2991 00d0 0022     		movs	r2, #0
 2992 00d2 3968     		ldr	r1, [r7]
 2993 00d4 1846     		mov	r0, r3
 2994 00d6 FFF7FEFF 		bl	TIM_CCxChannelCmd
1262:Drivers/STM32F4xx_HAL_Driver/Src/stm32f4xx_hal_tim.c **** 
1263:Drivers/STM32F4xx_HAL_Driver/Src/stm32f4xx_hal_tim.c ****     if (IS_TIM_BREAK_INSTANCE(htim->Instance) != RESET)
 2995              		.loc 1 1263 9
 2996 00da 7B68     		ldr	r3, [r7, #4]
 2997 00dc 1B68     		ldr	r3, [r3]
 2998              		.loc 1 1263 8
 2999 00de 2A4A     		ldr	r2, .L202
 3000 00e0 9342     		cmp	r3, r2
 3001 00e2 17D1     		bne	.L194
1264:Drivers/STM32F4xx_HAL_Driver/Src/stm32f4xx_hal_tim.c ****     {
1265:Drivers/STM32F4xx_HAL_Driver/Src/stm32f4xx_hal_tim.c ****       /* Disable the Main Output */
1266:Drivers/STM32F4xx_HAL_Driver/Src/stm32f4xx_hal_tim.c ****       __HAL_TIM_MOE_DISABLE(htim);
 3002              		.loc 1 1266 7
 3003 00e4 7B68     		ldr	r3, [r7, #4]
 3004 00e6 1B68     		ldr	r3, [r3]
 3005 00e8 1A6A     		ldr	r2, [r3, #32]
 3006 00ea 41F21113 		movw	r3, #4369
 3007 00ee 1340     		ands	r3, r3, r2
 3008 00f0 002B     		cmp	r3, #0
 3009 00f2 0FD1     		bne	.L194
 3010              		.loc 1 1266 7 is_stmt 0 discriminator 1
 3011 00f4 7B68     		ldr	r3, [r7, #4]
 3012 00f6 1B68     		ldr	r3, [r3]
 3013 00f8 1A6A     		ldr	r2, [r3, #32]
 3014 00fa 40F24443 		movw	r3, #1092
 3015 00fe 1340     		ands	r3, r3, r2
 3016 0100 002B     		cmp	r3, #0
 3017 0102 07D1     		bne	.L194
 3018              		.loc 1 1266 7 discriminator 2
 3019 0104 7B68     		ldr	r3, [r7, #4]
 3020 0106 1B68     		ldr	r3, [r3]
 3021 0108 5A6C     		ldr	r2, [r3, #68]
 3022 010a 7B68     		ldr	r3, [r7, #4]
 3023 010c 1B68     		ldr	r3, [r3]
 3024 010e 22F40042 		bic	r2, r2, #32768
 3025 0112 5A64     		str	r2, [r3, #68]
 3026              	.L194:
1267:Drivers/STM32F4xx_HAL_Driver/Src/stm32f4xx_hal_tim.c ****     }
1268:Drivers/STM32F4xx_HAL_Driver/Src/stm32f4xx_hal_tim.c **** 
1269:Drivers/STM32F4xx_HAL_Driver/Src/stm32f4xx_hal_tim.c ****     /* Disable the Peripheral */
1270:Drivers/STM32F4xx_HAL_Driver/Src/stm32f4xx_hal_tim.c ****     __HAL_TIM_DISABLE(htim);
 3027              		.loc 1 1270 5 is_stmt 1
 3028 0114 7B68     		ldr	r3, [r7, #4]
 3029 0116 1B68     		ldr	r3, [r3]
 3030 0118 1A6A     		ldr	r2, [r3, #32]
 3031 011a 41F21113 		movw	r3, #4369
 3032 011e 1340     		ands	r3, r3, r2
 3033 0120 002B     		cmp	r3, #0
 3034 0122 0FD1     		bne	.L195
 3035              		.loc 1 1270 5 is_stmt 0 discriminator 1
 3036 0124 7B68     		ldr	r3, [r7, #4]
 3037 0126 1B68     		ldr	r3, [r3]
ARM GAS  C:\Users\TGSPOC~1\AppData\Local\Temp\ccIyOLT8.s 			page 76


 3038 0128 1A6A     		ldr	r2, [r3, #32]
 3039 012a 40F24443 		movw	r3, #1092
 3040 012e 1340     		ands	r3, r3, r2
 3041 0130 002B     		cmp	r3, #0
 3042 0132 07D1     		bne	.L195
 3043              		.loc 1 1270 5 discriminator 2
 3044 0134 7B68     		ldr	r3, [r7, #4]
 3045 0136 1B68     		ldr	r3, [r3]
 3046 0138 1A68     		ldr	r2, [r3]
 3047 013a 7B68     		ldr	r3, [r7, #4]
 3048 013c 1B68     		ldr	r3, [r3]
 3049 013e 22F00102 		bic	r2, r2, #1
 3050 0142 1A60     		str	r2, [r3]
 3051              	.L195:
1271:Drivers/STM32F4xx_HAL_Driver/Src/stm32f4xx_hal_tim.c **** 
1272:Drivers/STM32F4xx_HAL_Driver/Src/stm32f4xx_hal_tim.c ****     /* Set the TIM channel state */
1273:Drivers/STM32F4xx_HAL_Driver/Src/stm32f4xx_hal_tim.c ****     TIM_CHANNEL_STATE_SET(htim, Channel, HAL_TIM_CHANNEL_STATE_READY);
 3052              		.loc 1 1273 5 is_stmt 1
 3053 0144 3B68     		ldr	r3, [r7]
 3054 0146 002B     		cmp	r3, #0
 3055 0148 04D1     		bne	.L196
 3056              		.loc 1 1273 5 is_stmt 0 discriminator 1
 3057 014a 7B68     		ldr	r3, [r7, #4]
 3058 014c 0122     		movs	r2, #1
 3059 014e 83F83E20 		strb	r2, [r3, #62]
 3060 0152 13E0     		b	.L193
 3061              	.L196:
 3062              		.loc 1 1273 5 discriminator 2
 3063 0154 3B68     		ldr	r3, [r7]
 3064 0156 042B     		cmp	r3, #4
 3065 0158 04D1     		bne	.L197
 3066              		.loc 1 1273 5 discriminator 3
 3067 015a 7B68     		ldr	r3, [r7, #4]
 3068 015c 0122     		movs	r2, #1
 3069 015e 83F83F20 		strb	r2, [r3, #63]
 3070 0162 0BE0     		b	.L193
 3071              	.L197:
 3072              		.loc 1 1273 5 discriminator 4
 3073 0164 3B68     		ldr	r3, [r7]
 3074 0166 082B     		cmp	r3, #8
 3075 0168 04D1     		bne	.L199
 3076              		.loc 1 1273 5 discriminator 6
 3077 016a 7B68     		ldr	r3, [r7, #4]
 3078 016c 0122     		movs	r2, #1
 3079 016e 83F84020 		strb	r2, [r3, #64]
 3080 0172 03E0     		b	.L193
 3081              	.L199:
 3082              		.loc 1 1273 5 discriminator 7
 3083 0174 7B68     		ldr	r3, [r7, #4]
 3084 0176 0122     		movs	r2, #1
 3085 0178 83F84120 		strb	r2, [r3, #65]
 3086              	.L193:
1274:Drivers/STM32F4xx_HAL_Driver/Src/stm32f4xx_hal_tim.c ****   }
1275:Drivers/STM32F4xx_HAL_Driver/Src/stm32f4xx_hal_tim.c **** 
1276:Drivers/STM32F4xx_HAL_Driver/Src/stm32f4xx_hal_tim.c ****   /* Return function status */
1277:Drivers/STM32F4xx_HAL_Driver/Src/stm32f4xx_hal_tim.c ****   return status;
 3087              		.loc 1 1277 10 is_stmt 1
ARM GAS  C:\Users\TGSPOC~1\AppData\Local\Temp\ccIyOLT8.s 			page 77


 3088 017c FB7B     		ldrb	r3, [r7, #15]	@ zero_extendqisi2
1278:Drivers/STM32F4xx_HAL_Driver/Src/stm32f4xx_hal_tim.c **** }
 3089              		.loc 1 1278 1
 3090 017e 1846     		mov	r0, r3
 3091 0180 1037     		adds	r7, r7, #16
 3092              	.LCFI106:
 3093              		.cfi_def_cfa_offset 8
 3094 0182 BD46     		mov	sp, r7
 3095              	.LCFI107:
 3096              		.cfi_def_cfa_register 13
 3097              		@ sp needed
 3098 0184 80BD     		pop	{r7, pc}
 3099              	.L203:
 3100 0186 00BF     		.align	2
 3101              	.L202:
 3102 0188 00000140 		.word	1073807360
 3103              		.cfi_endproc
 3104              	.LFE153:
 3106              		.section	.text.HAL_TIM_PWM_Init,"ax",%progbits
 3107              		.align	1
 3108              		.global	HAL_TIM_PWM_Init
 3109              		.syntax unified
 3110              		.thumb
 3111              		.thumb_func
 3113              	HAL_TIM_PWM_Init:
 3114              	.LFB154:
1279:Drivers/STM32F4xx_HAL_Driver/Src/stm32f4xx_hal_tim.c **** 
1280:Drivers/STM32F4xx_HAL_Driver/Src/stm32f4xx_hal_tim.c **** /**
1281:Drivers/STM32F4xx_HAL_Driver/Src/stm32f4xx_hal_tim.c ****   * @}
1282:Drivers/STM32F4xx_HAL_Driver/Src/stm32f4xx_hal_tim.c ****   */
1283:Drivers/STM32F4xx_HAL_Driver/Src/stm32f4xx_hal_tim.c **** 
1284:Drivers/STM32F4xx_HAL_Driver/Src/stm32f4xx_hal_tim.c **** /** @defgroup TIM_Exported_Functions_Group3 TIM PWM functions
1285:Drivers/STM32F4xx_HAL_Driver/Src/stm32f4xx_hal_tim.c ****   *  @brief    TIM PWM functions
1286:Drivers/STM32F4xx_HAL_Driver/Src/stm32f4xx_hal_tim.c ****   *
1287:Drivers/STM32F4xx_HAL_Driver/Src/stm32f4xx_hal_tim.c **** @verbatim
1288:Drivers/STM32F4xx_HAL_Driver/Src/stm32f4xx_hal_tim.c ****   ==============================================================================
1289:Drivers/STM32F4xx_HAL_Driver/Src/stm32f4xx_hal_tim.c ****                           ##### TIM PWM functions #####
1290:Drivers/STM32F4xx_HAL_Driver/Src/stm32f4xx_hal_tim.c ****   ==============================================================================
1291:Drivers/STM32F4xx_HAL_Driver/Src/stm32f4xx_hal_tim.c ****   [..]
1292:Drivers/STM32F4xx_HAL_Driver/Src/stm32f4xx_hal_tim.c ****     This section provides functions allowing to:
1293:Drivers/STM32F4xx_HAL_Driver/Src/stm32f4xx_hal_tim.c ****     (+) Initialize and configure the TIM PWM.
1294:Drivers/STM32F4xx_HAL_Driver/Src/stm32f4xx_hal_tim.c ****     (+) De-initialize the TIM PWM.
1295:Drivers/STM32F4xx_HAL_Driver/Src/stm32f4xx_hal_tim.c ****     (+) Start the TIM PWM.
1296:Drivers/STM32F4xx_HAL_Driver/Src/stm32f4xx_hal_tim.c ****     (+) Stop the TIM PWM.
1297:Drivers/STM32F4xx_HAL_Driver/Src/stm32f4xx_hal_tim.c ****     (+) Start the TIM PWM and enable interrupt.
1298:Drivers/STM32F4xx_HAL_Driver/Src/stm32f4xx_hal_tim.c ****     (+) Stop the TIM PWM and disable interrupt.
1299:Drivers/STM32F4xx_HAL_Driver/Src/stm32f4xx_hal_tim.c ****     (+) Start the TIM PWM and enable DMA transfer.
1300:Drivers/STM32F4xx_HAL_Driver/Src/stm32f4xx_hal_tim.c ****     (+) Stop the TIM PWM and disable DMA transfer.
1301:Drivers/STM32F4xx_HAL_Driver/Src/stm32f4xx_hal_tim.c **** 
1302:Drivers/STM32F4xx_HAL_Driver/Src/stm32f4xx_hal_tim.c **** @endverbatim
1303:Drivers/STM32F4xx_HAL_Driver/Src/stm32f4xx_hal_tim.c ****   * @{
1304:Drivers/STM32F4xx_HAL_Driver/Src/stm32f4xx_hal_tim.c ****   */
1305:Drivers/STM32F4xx_HAL_Driver/Src/stm32f4xx_hal_tim.c **** /**
1306:Drivers/STM32F4xx_HAL_Driver/Src/stm32f4xx_hal_tim.c ****   * @brief  Initializes the TIM PWM Time Base according to the specified
1307:Drivers/STM32F4xx_HAL_Driver/Src/stm32f4xx_hal_tim.c ****   *         parameters in the TIM_HandleTypeDef and initializes the associated handle.
1308:Drivers/STM32F4xx_HAL_Driver/Src/stm32f4xx_hal_tim.c ****   * @note   Switching from Center Aligned counter mode to Edge counter mode (or reverse)
1309:Drivers/STM32F4xx_HAL_Driver/Src/stm32f4xx_hal_tim.c ****   *         requires a timer reset to avoid unexpected direction
ARM GAS  C:\Users\TGSPOC~1\AppData\Local\Temp\ccIyOLT8.s 			page 78


1310:Drivers/STM32F4xx_HAL_Driver/Src/stm32f4xx_hal_tim.c ****   *         due to DIR bit readonly in center aligned mode.
1311:Drivers/STM32F4xx_HAL_Driver/Src/stm32f4xx_hal_tim.c ****   *         Ex: call @ref HAL_TIM_PWM_DeInit() before HAL_TIM_PWM_Init()
1312:Drivers/STM32F4xx_HAL_Driver/Src/stm32f4xx_hal_tim.c ****   * @param  htim TIM PWM handle
1313:Drivers/STM32F4xx_HAL_Driver/Src/stm32f4xx_hal_tim.c ****   * @retval HAL status
1314:Drivers/STM32F4xx_HAL_Driver/Src/stm32f4xx_hal_tim.c ****   */
1315:Drivers/STM32F4xx_HAL_Driver/Src/stm32f4xx_hal_tim.c **** HAL_StatusTypeDef HAL_TIM_PWM_Init(TIM_HandleTypeDef *htim)
1316:Drivers/STM32F4xx_HAL_Driver/Src/stm32f4xx_hal_tim.c **** {
 3115              		.loc 1 1316 1
 3116              		.cfi_startproc
 3117              		@ args = 0, pretend = 0, frame = 8
 3118              		@ frame_needed = 1, uses_anonymous_args = 0
 3119 0000 80B5     		push	{r7, lr}
 3120              	.LCFI108:
 3121              		.cfi_def_cfa_offset 8
 3122              		.cfi_offset 7, -8
 3123              		.cfi_offset 14, -4
 3124 0002 82B0     		sub	sp, sp, #8
 3125              	.LCFI109:
 3126              		.cfi_def_cfa_offset 16
 3127 0004 00AF     		add	r7, sp, #0
 3128              	.LCFI110:
 3129              		.cfi_def_cfa_register 7
 3130 0006 7860     		str	r0, [r7, #4]
1317:Drivers/STM32F4xx_HAL_Driver/Src/stm32f4xx_hal_tim.c ****   /* Check the TIM handle allocation */
1318:Drivers/STM32F4xx_HAL_Driver/Src/stm32f4xx_hal_tim.c ****   if (htim == NULL)
 3131              		.loc 1 1318 6
 3132 0008 7B68     		ldr	r3, [r7, #4]
 3133 000a 002B     		cmp	r3, #0
 3134 000c 01D1     		bne	.L205
1319:Drivers/STM32F4xx_HAL_Driver/Src/stm32f4xx_hal_tim.c ****   {
1320:Drivers/STM32F4xx_HAL_Driver/Src/stm32f4xx_hal_tim.c ****     return HAL_ERROR;
 3135              		.loc 1 1320 12
 3136 000e 0123     		movs	r3, #1
 3137 0010 41E0     		b	.L206
 3138              	.L205:
1321:Drivers/STM32F4xx_HAL_Driver/Src/stm32f4xx_hal_tim.c ****   }
1322:Drivers/STM32F4xx_HAL_Driver/Src/stm32f4xx_hal_tim.c **** 
1323:Drivers/STM32F4xx_HAL_Driver/Src/stm32f4xx_hal_tim.c ****   /* Check the parameters */
1324:Drivers/STM32F4xx_HAL_Driver/Src/stm32f4xx_hal_tim.c ****   assert_param(IS_TIM_INSTANCE(htim->Instance));
1325:Drivers/STM32F4xx_HAL_Driver/Src/stm32f4xx_hal_tim.c ****   assert_param(IS_TIM_COUNTER_MODE(htim->Init.CounterMode));
1326:Drivers/STM32F4xx_HAL_Driver/Src/stm32f4xx_hal_tim.c ****   assert_param(IS_TIM_CLOCKDIVISION_DIV(htim->Init.ClockDivision));
1327:Drivers/STM32F4xx_HAL_Driver/Src/stm32f4xx_hal_tim.c ****   assert_param(IS_TIM_PERIOD(htim, htim->Init.Period));
1328:Drivers/STM32F4xx_HAL_Driver/Src/stm32f4xx_hal_tim.c ****   assert_param(IS_TIM_AUTORELOAD_PRELOAD(htim->Init.AutoReloadPreload));
1329:Drivers/STM32F4xx_HAL_Driver/Src/stm32f4xx_hal_tim.c **** 
1330:Drivers/STM32F4xx_HAL_Driver/Src/stm32f4xx_hal_tim.c ****   if (htim->State == HAL_TIM_STATE_RESET)
 3139              		.loc 1 1330 11
 3140 0012 7B68     		ldr	r3, [r7, #4]
 3141 0014 93F83D30 		ldrb	r3, [r3, #61]
 3142 0018 DBB2     		uxtb	r3, r3
 3143              		.loc 1 1330 6
 3144 001a 002B     		cmp	r3, #0
 3145 001c 06D1     		bne	.L207
1331:Drivers/STM32F4xx_HAL_Driver/Src/stm32f4xx_hal_tim.c ****   {
1332:Drivers/STM32F4xx_HAL_Driver/Src/stm32f4xx_hal_tim.c ****     /* Allocate lock resource and initialize it */
1333:Drivers/STM32F4xx_HAL_Driver/Src/stm32f4xx_hal_tim.c ****     htim->Lock = HAL_UNLOCKED;
 3146              		.loc 1 1333 16
 3147 001e 7B68     		ldr	r3, [r7, #4]
ARM GAS  C:\Users\TGSPOC~1\AppData\Local\Temp\ccIyOLT8.s 			page 79


 3148 0020 0022     		movs	r2, #0
 3149 0022 83F83C20 		strb	r2, [r3, #60]
1334:Drivers/STM32F4xx_HAL_Driver/Src/stm32f4xx_hal_tim.c **** 
1335:Drivers/STM32F4xx_HAL_Driver/Src/stm32f4xx_hal_tim.c **** #if (USE_HAL_TIM_REGISTER_CALLBACKS == 1)
1336:Drivers/STM32F4xx_HAL_Driver/Src/stm32f4xx_hal_tim.c ****     /* Reset interrupt callbacks to legacy weak callbacks */
1337:Drivers/STM32F4xx_HAL_Driver/Src/stm32f4xx_hal_tim.c ****     TIM_ResetCallback(htim);
1338:Drivers/STM32F4xx_HAL_Driver/Src/stm32f4xx_hal_tim.c **** 
1339:Drivers/STM32F4xx_HAL_Driver/Src/stm32f4xx_hal_tim.c ****     if (htim->PWM_MspInitCallback == NULL)
1340:Drivers/STM32F4xx_HAL_Driver/Src/stm32f4xx_hal_tim.c ****     {
1341:Drivers/STM32F4xx_HAL_Driver/Src/stm32f4xx_hal_tim.c ****       htim->PWM_MspInitCallback = HAL_TIM_PWM_MspInit;
1342:Drivers/STM32F4xx_HAL_Driver/Src/stm32f4xx_hal_tim.c ****     }
1343:Drivers/STM32F4xx_HAL_Driver/Src/stm32f4xx_hal_tim.c ****     /* Init the low level hardware : GPIO, CLOCK, NVIC */
1344:Drivers/STM32F4xx_HAL_Driver/Src/stm32f4xx_hal_tim.c ****     htim->PWM_MspInitCallback(htim);
1345:Drivers/STM32F4xx_HAL_Driver/Src/stm32f4xx_hal_tim.c **** #else
1346:Drivers/STM32F4xx_HAL_Driver/Src/stm32f4xx_hal_tim.c ****     /* Init the low level hardware : GPIO, CLOCK, NVIC and DMA */
1347:Drivers/STM32F4xx_HAL_Driver/Src/stm32f4xx_hal_tim.c ****     HAL_TIM_PWM_MspInit(htim);
 3150              		.loc 1 1347 5
 3151 0026 7868     		ldr	r0, [r7, #4]
 3152 0028 FFF7FEFF 		bl	HAL_TIM_PWM_MspInit
 3153              	.L207:
1348:Drivers/STM32F4xx_HAL_Driver/Src/stm32f4xx_hal_tim.c **** #endif /* USE_HAL_TIM_REGISTER_CALLBACKS */
1349:Drivers/STM32F4xx_HAL_Driver/Src/stm32f4xx_hal_tim.c ****   }
1350:Drivers/STM32F4xx_HAL_Driver/Src/stm32f4xx_hal_tim.c **** 
1351:Drivers/STM32F4xx_HAL_Driver/Src/stm32f4xx_hal_tim.c ****   /* Set the TIM state */
1352:Drivers/STM32F4xx_HAL_Driver/Src/stm32f4xx_hal_tim.c ****   htim->State = HAL_TIM_STATE_BUSY;
 3154              		.loc 1 1352 15
 3155 002c 7B68     		ldr	r3, [r7, #4]
 3156 002e 0222     		movs	r2, #2
 3157 0030 83F83D20 		strb	r2, [r3, #61]
1353:Drivers/STM32F4xx_HAL_Driver/Src/stm32f4xx_hal_tim.c **** 
1354:Drivers/STM32F4xx_HAL_Driver/Src/stm32f4xx_hal_tim.c ****   /* Init the base time for the PWM */
