ARM GAS  C:\Users\TGSPOC~1\AppData\Local\Temp\ccNcvkVC.s 			page 1


   1              		.cpu cortex-m4
   2              		.arch armv7e-m
   3              		.fpu fpv4-sp-d16
   4              		.eabi_attribute 27, 1
   5              		.eabi_attribute 28, 1
   6              		.eabi_attribute 20, 1
   7              		.eabi_attribute 21, 1
   8              		.eabi_attribute 23, 3
   9              		.eabi_attribute 24, 1
  10              		.eabi_attribute 25, 1
  11              		.eabi_attribute 26, 1
  12              		.eabi_attribute 30, 1
  13              		.eabi_attribute 34, 1
  14              		.eabi_attribute 18, 4
  15              		.file	"freertos.c"
  16              		.text
  17              	.Ltext0:
  18              		.cfi_sections	.debug_frame
  19              		.file 1 "Core/Src/freertos.c"
  20              		.section	.text.start_t_input,"ax",%progbits
  21              		.align	1
  22              		.global	start_t_input
  23              		.syntax unified
  24              		.thumb
  25              		.thumb_func
  27              	start_t_input:
  28              	.LFB139:
   1:Core/Src/freertos.c **** /* USER CODE BEGIN Header */
   2:Core/Src/freertos.c **** /**
   3:Core/Src/freertos.c ****   ******************************************************************************
   4:Core/Src/freertos.c ****   * File Name          : freertos.c
   5:Core/Src/freertos.c ****   * Description        : Code for freertos applications
   6:Core/Src/freertos.c ****   ******************************************************************************
   7:Core/Src/freertos.c ****   * @attention
   8:Core/Src/freertos.c ****   *
   9:Core/Src/freertos.c ****   * Copyright (c) 2025 STMicroelectronics.
  10:Core/Src/freertos.c ****   * All rights reserved.
  11:Core/Src/freertos.c ****   *
  12:Core/Src/freertos.c ****   * This software is licensed under terms that can be found in the LICENSE file
  13:Core/Src/freertos.c ****   * in the root directory of this software component.
  14:Core/Src/freertos.c ****   * If no LICENSE file comes with this software, it is provided AS-IS.
  15:Core/Src/freertos.c ****   *
  16:Core/Src/freertos.c ****   ******************************************************************************
  17:Core/Src/freertos.c ****   */
  18:Core/Src/freertos.c **** /* USER CODE END Header */
  19:Core/Src/freertos.c **** 
  20:Core/Src/freertos.c **** /* Includes ------------------------------------------------------------------*/
  21:Core/Src/freertos.c **** #include "FreeRTOS.h"
  22:Core/Src/freertos.c **** #include "task.h"
  23:Core/Src/freertos.c **** #include "main.h"
  24:Core/Src/freertos.c **** #include "cmsis_os.h"
  25:Core/Src/freertos.c **** 
  26:Core/Src/freertos.c **** /* Private includes ----------------------------------------------------------*/
  27:Core/Src/freertos.c **** /* USER CODE BEGIN Includes */
  28:Core/Src/freertos.c **** 
  29:Core/Src/freertos.c **** /* USER CODE END Includes */
  30:Core/Src/freertos.c **** 
ARM GAS  C:\Users\TGSPOC~1\AppData\Local\Temp\ccNcvkVC.s 			page 2


  31:Core/Src/freertos.c **** /* Private typedef -----------------------------------------------------------*/
  32:Core/Src/freertos.c **** /* USER CODE BEGIN PTD */
  33:Core/Src/freertos.c **** 
  34:Core/Src/freertos.c **** /* USER CODE END PTD */
  35:Core/Src/freertos.c **** 
  36:Core/Src/freertos.c **** /* Private define ------------------------------------------------------------*/
  37:Core/Src/freertos.c **** /* USER CODE BEGIN PD */
  38:Core/Src/freertos.c **** 
  39:Core/Src/freertos.c **** /* USER CODE END PD */
  40:Core/Src/freertos.c **** 
  41:Core/Src/freertos.c **** /* Private macro -------------------------------------------------------------*/
  42:Core/Src/freertos.c **** /* USER CODE BEGIN PM */
  43:Core/Src/freertos.c **** 
  44:Core/Src/freertos.c **** /* USER CODE END PM */
  45:Core/Src/freertos.c **** 
  46:Core/Src/freertos.c **** /* Private variables ---------------------------------------------------------*/
  47:Core/Src/freertos.c **** /* USER CODE BEGIN Variables */
  48:Core/Src/freertos.c **** 
  49:Core/Src/freertos.c **** /* USER CODE END Variables */
  50:Core/Src/freertos.c **** /* Definitions for t_input */
  51:Core/Src/freertos.c **** osThreadId_t t_inputHandle;
  52:Core/Src/freertos.c **** const osThreadAttr_t t_input_attributes = {
  53:Core/Src/freertos.c ****   .name = "t_input",
  54:Core/Src/freertos.c ****   .stack_size = 128 * 4,
  55:Core/Src/freertos.c ****   .priority = (osPriority_t) osPriorityAboveNormal,
  56:Core/Src/freertos.c **** };
  57:Core/Src/freertos.c **** /* Definitions for t_log */
  58:Core/Src/freertos.c **** osThreadId_t t_logHandle;
  59:Core/Src/freertos.c **** const osThreadAttr_t t_log_attributes = {
  60:Core/Src/freertos.c ****   .name = "t_log",
  61:Core/Src/freertos.c ****   .stack_size = 128 * 4,
  62:Core/Src/freertos.c ****   .priority = (osPriority_t) osPriorityNormal,
  63:Core/Src/freertos.c **** };
  64:Core/Src/freertos.c **** /* Definitions for t_output */
  65:Core/Src/freertos.c **** osThreadId_t t_outputHandle;
  66:Core/Src/freertos.c **** const osThreadAttr_t t_output_attributes = {
  67:Core/Src/freertos.c ****   .name = "t_output",
  68:Core/Src/freertos.c ****   .stack_size = 128 * 4,
  69:Core/Src/freertos.c ****   .priority = (osPriority_t) osPriorityNormal,
  70:Core/Src/freertos.c **** };
  71:Core/Src/freertos.c **** /* Definitions for m_input_to_log */
  72:Core/Src/freertos.c **** osMessageQueueId_t m_input_to_logHandle;
  73:Core/Src/freertos.c **** const osMessageQueueAttr_t m_input_to_log_attributes = {
  74:Core/Src/freertos.c ****   .name = "m_input_to_log"
  75:Core/Src/freertos.c **** };
  76:Core/Src/freertos.c **** /* Definitions for m_log_to_output */
  77:Core/Src/freertos.c **** osMessageQueueId_t m_log_to_outputHandle;
  78:Core/Src/freertos.c **** const osMessageQueueAttr_t m_log_to_output_attributes = {
  79:Core/Src/freertos.c ****   .name = "m_log_to_output"
  80:Core/Src/freertos.c **** };
  81:Core/Src/freertos.c **** /* Definitions for m_output_to_input */
  82:Core/Src/freertos.c **** osMessageQueueId_t m_output_to_inputHandle;
  83:Core/Src/freertos.c **** const osMessageQueueAttr_t m_output_to_input_attributes = {
  84:Core/Src/freertos.c ****   .name = "m_output_to_input"
  85:Core/Src/freertos.c **** };
  86:Core/Src/freertos.c **** 
  87:Core/Src/freertos.c **** /* Private function prototypes -----------------------------------------------*/
ARM GAS  C:\Users\TGSPOC~1\AppData\Local\Temp\ccNcvkVC.s 			page 3


  88:Core/Src/freertos.c **** /* USER CODE BEGIN FunctionPrototypes */
  89:Core/Src/freertos.c **** 
  90:Core/Src/freertos.c **** /* USER CODE END FunctionPrototypes */
  91:Core/Src/freertos.c **** 
  92:Core/Src/freertos.c **** void start_t_input(void *argument);
  93:Core/Src/freertos.c **** void start_t_log(void *argument);
  94:Core/Src/freertos.c **** void start_t_output(void *argument);
  95:Core/Src/freertos.c **** 
  96:Core/Src/freertos.c **** void MX_FREERTOS_Init(void); /* (MISRA C 2004 rule 8.1) */
  97:Core/Src/freertos.c **** 
  98:Core/Src/freertos.c **** /**
  99:Core/Src/freertos.c ****   * @brief  FreeRTOS initialization
 100:Core/Src/freertos.c ****   * @param  None
 101:Core/Src/freertos.c ****   * @retval None
 102:Core/Src/freertos.c ****   */
 103:Core/Src/freertos.c **** void MX_FREERTOS_Init(void) {
 104:Core/Src/freertos.c ****   /* USER CODE BEGIN Init */
 105:Core/Src/freertos.c **** 
 106:Core/Src/freertos.c ****   /* USER CODE END Init */
 107:Core/Src/freertos.c **** 
 108:Core/Src/freertos.c ****   /* USER CODE BEGIN RTOS_MUTEX */
 109:Core/Src/freertos.c ****   /* add mutexes, ... */
 110:Core/Src/freertos.c ****   /* USER CODE END RTOS_MUTEX */
 111:Core/Src/freertos.c **** 
 112:Core/Src/freertos.c ****   /* USER CODE BEGIN RTOS_SEMAPHORES */
 113:Core/Src/freertos.c ****   /* add semaphores, ... */
 114:Core/Src/freertos.c ****   /* USER CODE END RTOS_SEMAPHORES */
 115:Core/Src/freertos.c **** 
 116:Core/Src/freertos.c ****   /* USER CODE BEGIN RTOS_TIMERS */
 117:Core/Src/freertos.c ****   /* start timers, add new ones, ... */
 118:Core/Src/freertos.c ****   /* USER CODE END RTOS_TIMERS */
 119:Core/Src/freertos.c **** 
 120:Core/Src/freertos.c ****   /* Create the queue(s) */
 121:Core/Src/freertos.c ****   /* creation of m_input_to_log */
 122:Core/Src/freertos.c ****   m_input_to_logHandle = osMessageQueueNew (1, sizeof(uint32_t), &m_input_to_log_attributes);
 123:Core/Src/freertos.c **** 
 124:Core/Src/freertos.c ****   /* creation of m_log_to_output */
 125:Core/Src/freertos.c ****   m_log_to_outputHandle = osMessageQueueNew (1, sizeof(uint32_t), &m_log_to_output_attributes);
 126:Core/Src/freertos.c **** 
 127:Core/Src/freertos.c ****   /* creation of m_output_to_input */
 128:Core/Src/freertos.c ****   m_output_to_inputHandle = osMessageQueueNew (1, sizeof(uint32_t), &m_output_to_input_attributes);
 129:Core/Src/freertos.c **** 
 130:Core/Src/freertos.c ****   /* USER CODE BEGIN RTOS_QUEUES */
 131:Core/Src/freertos.c ****   /* add queues, ... */
 132:Core/Src/freertos.c ****   /* USER CODE END RTOS_QUEUES */
 133:Core/Src/freertos.c **** 
 134:Core/Src/freertos.c ****   /* Create the thread(s) */
 135:Core/Src/freertos.c ****   /* creation of t_input */
 136:Core/Src/freertos.c ****   t_inputHandle = osThreadNew(start_t_input, NULL, &t_input_attributes);
 137:Core/Src/freertos.c **** 
 138:Core/Src/freertos.c ****   /* creation of t_log */
 139:Core/Src/freertos.c ****   t_logHandle = osThreadNew(start_t_log, NULL, &t_log_attributes);
 140:Core/Src/freertos.c **** 
 141:Core/Src/freertos.c ****   /* creation of t_output */
 142:Core/Src/freertos.c ****   t_outputHandle = osThreadNew(start_t_output, NULL, &t_output_attributes);
 143:Core/Src/freertos.c **** 
 144:Core/Src/freertos.c ****   /* USER CODE BEGIN RTOS_THREADS */
ARM GAS  C:\Users\TGSPOC~1\AppData\Local\Temp\ccNcvkVC.s 			page 4


 145:Core/Src/freertos.c ****   /* add threads, ... */
 146:Core/Src/freertos.c ****   /* USER CODE END RTOS_THREADS */
 147:Core/Src/freertos.c **** 
 148:Core/Src/freertos.c ****   /* USER CODE BEGIN RTOS_EVENTS */
 149:Core/Src/freertos.c ****   /* add events, ... */
 150:Core/Src/freertos.c ****   /* USER CODE END RTOS_EVENTS */
 151:Core/Src/freertos.c **** 
 152:Core/Src/freertos.c **** }
 153:Core/Src/freertos.c **** 
 154:Core/Src/freertos.c **** /* USER CODE BEGIN Header_start_t_input */
 155:Core/Src/freertos.c **** /**
 156:Core/Src/freertos.c ****   * @brief  Function implementing the t_input thread.
 157:Core/Src/freertos.c ****   * @param  argument: Not used
 158:Core/Src/freertos.c ****   * @retval None
 159:Core/Src/freertos.c ****   */
 160:Core/Src/freertos.c **** /* USER CODE END Header_start_t_input */
 161:Core/Src/freertos.c **** void start_t_input(void *argument)
 162:Core/Src/freertos.c **** {
  29              		.loc 1 162 1 view -0
  30              		.cfi_startproc
  31              		@ Volatile: function does not return.
  32              		@ args = 0, pretend = 0, frame = 0
  33              		@ frame_needed = 0, uses_anonymous_args = 0
  34              	.LVL0:
  35              		.loc 1 162 1 is_stmt 0 view .LVU1
  36 0000 08B5     		push	{r3, lr}
  37              	.LCFI0:
  38              		.cfi_def_cfa_offset 8
  39              		.cfi_offset 3, -8
  40              		.cfi_offset 14, -4
  41              	.LVL1:
  42              	.L2:
 163:Core/Src/freertos.c ****   /* USER CODE BEGIN start_t_input */
 164:Core/Src/freertos.c ****   /* Infinite loop */
 165:Core/Src/freertos.c ****   for(;;)
  43              		.loc 1 165 3 is_stmt 1 view .LVU2
 166:Core/Src/freertos.c ****   {
 167:Core/Src/freertos.c ****     HAL_GPIO_TogglePin(GPIOA, GPIO_PIN_0);
  44              		.loc 1 167 5 view .LVU3
  45 0002 0121     		movs	r1, #1
  46 0004 0348     		ldr	r0, .L4
  47 0006 FFF7FEFF 		bl	HAL_GPIO_TogglePin
  48              	.LVL2:
 168:Core/Src/freertos.c ****     osDelay(500);
  49              		.loc 1 168 5 discriminator 1 view .LVU4
  50 000a 4FF4FA70 		mov	r0, #500
  51 000e FFF7FEFF 		bl	osDelay
  52              	.LVL3:
 165:Core/Src/freertos.c ****   {
  53              		.loc 1 165 3 view .LVU5
  54 0012 F6E7     		b	.L2
  55              	.L5:
  56              		.align	2
  57              	.L4:
  58 0014 00000240 		.word	1073872896
  59              		.cfi_endproc
  60              	.LFE139:
ARM GAS  C:\Users\TGSPOC~1\AppData\Local\Temp\ccNcvkVC.s 			page 5


  62              		.section	.text.start_t_log,"ax",%progbits
  63              		.align	1
  64              		.global	start_t_log
  65              		.syntax unified
  66              		.thumb
  67              		.thumb_func
  69              	start_t_log:
  70              	.LFB140:
 169:Core/Src/freertos.c ****   }
 170:Core/Src/freertos.c ****   /* USER CODE END start_t_input */
 171:Core/Src/freertos.c **** }
 172:Core/Src/freertos.c **** 
 173:Core/Src/freertos.c **** /* USER CODE BEGIN Header_start_t_log */
 174:Core/Src/freertos.c **** /**
 175:Core/Src/freertos.c **** * @brief Function implementing the t_log thread.
 176:Core/Src/freertos.c **** * @param argument: Not used
 177:Core/Src/freertos.c **** * @retval None
 178:Core/Src/freertos.c **** */
 179:Core/Src/freertos.c **** /* USER CODE END Header_start_t_log */
 180:Core/Src/freertos.c **** void start_t_log(void *argument)
 181:Core/Src/freertos.c **** {
  71              		.loc 1 181 1 view -0
  72              		.cfi_startproc
  73              		@ Volatile: function does not return.
  74              		@ args = 0, pretend = 0, frame = 0
  75              		@ frame_needed = 0, uses_anonymous_args = 0
  76              	.LVL4:
  77              		.loc 1 181 1 is_stmt 0 view .LVU7
  78 0000 08B5     		push	{r3, lr}
  79              	.LCFI1:
  80              		.cfi_def_cfa_offset 8
  81              		.cfi_offset 3, -8
  82              		.cfi_offset 14, -4
  83              	.LVL5:
  84              	.L7:
 182:Core/Src/freertos.c ****   /* USER CODE BEGIN start_t_log */
 183:Core/Src/freertos.c ****   /* Infinite loop */
 184:Core/Src/freertos.c ****   for(;;)
  85              		.loc 1 184 3 is_stmt 1 view .LVU8
 185:Core/Src/freertos.c ****   {
 186:Core/Src/freertos.c ****     osDelay(1);
  86              		.loc 1 186 5 discriminator 1 view .LVU9
  87 0002 0120     		movs	r0, #1
  88 0004 FFF7FEFF 		bl	osDelay
  89              	.LVL6:
 184:Core/Src/freertos.c ****   {
  90              		.loc 1 184 3 view .LVU10
  91 0008 FBE7     		b	.L7
  92              		.cfi_endproc
  93              	.LFE140:
  95              		.section	.text.start_t_output,"ax",%progbits
  96              		.align	1
  97              		.global	start_t_output
  98              		.syntax unified
  99              		.thumb
 100              		.thumb_func
 102              	start_t_output:
ARM GAS  C:\Users\TGSPOC~1\AppData\Local\Temp\ccNcvkVC.s 			page 6


 103              	.LFB141:
 187:Core/Src/freertos.c ****   }
 188:Core/Src/freertos.c ****   /* USER CODE END start_t_log */
 189:Core/Src/freertos.c **** }
 190:Core/Src/freertos.c **** 
 191:Core/Src/freertos.c **** /* USER CODE BEGIN Header_start_t_output */
 192:Core/Src/freertos.c **** /**
 193:Core/Src/freertos.c **** * @brief Function implementing the t_output thread.
 194:Core/Src/freertos.c **** * @param argument: Not used
 195:Core/Src/freertos.c **** * @retval None
 196:Core/Src/freertos.c **** */
 197:Core/Src/freertos.c **** /* USER CODE END Header_start_t_output */
 198:Core/Src/freertos.c **** void start_t_output(void *argument)
 199:Core/Src/freertos.c **** {
 104              		.loc 1 199 1 view -0
 105              		.cfi_startproc
 106              		@ Volatile: function does not return.
 107              		@ args = 0, pretend = 0, frame = 0
 108              		@ frame_needed = 0, uses_anonymous_args = 0
 109              	.LVL7:
 110              		.loc 1 199 1 is_stmt 0 view .LVU12
 111 0000 08B5     		push	{r3, lr}
 112              	.LCFI2:
 113              		.cfi_def_cfa_offset 8
 114              		.cfi_offset 3, -8
 115              		.cfi_offset 14, -4
 116              	.LVL8:
 117              	.L10:
 200:Core/Src/freertos.c ****   /* USER CODE BEGIN start_t_output */
 201:Core/Src/freertos.c ****   /* Infinite loop */
 202:Core/Src/freertos.c ****   for(;;)
 118              		.loc 1 202 3 is_stmt 1 view .LVU13
 203:Core/Src/freertos.c ****   {
 204:Core/Src/freertos.c ****     osDelay(1);
 119              		.loc 1 204 5 discriminator 1 view .LVU14
 120 0002 0120     		movs	r0, #1
 121 0004 FFF7FEFF 		bl	osDelay
 122              	.LVL9:
 202:Core/Src/freertos.c ****   {
 123              		.loc 1 202 3 view .LVU15
 124 0008 FBE7     		b	.L10
 125              		.cfi_endproc
 126              	.LFE141:
 128              		.section	.text.MX_FREERTOS_Init,"ax",%progbits
 129              		.align	1
 130              		.global	MX_FREERTOS_Init
 131              		.syntax unified
 132              		.thumb
 133              		.thumb_func
 135              	MX_FREERTOS_Init:
 136              	.LFB138:
 103:Core/Src/freertos.c ****   /* USER CODE BEGIN Init */
 137              		.loc 1 103 29 view -0
 138              		.cfi_startproc
 139              		@ args = 0, pretend = 0, frame = 0
 140              		@ frame_needed = 0, uses_anonymous_args = 0
 141 0000 08B5     		push	{r3, lr}
ARM GAS  C:\Users\TGSPOC~1\AppData\Local\Temp\ccNcvkVC.s 			page 7


 142              	.LCFI3:
 143              		.cfi_def_cfa_offset 8
 144              		.cfi_offset 3, -8
 145              		.cfi_offset 14, -4
 122:Core/Src/freertos.c **** 
 146              		.loc 1 122 3 view .LVU17
 122:Core/Src/freertos.c **** 
 147              		.loc 1 122 26 is_stmt 0 view .LVU18
 148 0002 154A     		ldr	r2, .L14
 149 0004 0421     		movs	r1, #4
 150 0006 0120     		movs	r0, #1
 151 0008 FFF7FEFF 		bl	osMessageQueueNew
 152              	.LVL10:
 122:Core/Src/freertos.c **** 
 153              		.loc 1 122 24 discriminator 1 view .LVU19
 154 000c 134B     		ldr	r3, .L14+4
 155 000e 1860     		str	r0, [r3]
 125:Core/Src/freertos.c **** 
 156              		.loc 1 125 3 is_stmt 1 view .LVU20
 125:Core/Src/freertos.c **** 
 157              		.loc 1 125 27 is_stmt 0 view .LVU21
 158 0010 134A     		ldr	r2, .L14+8
 159 0012 0421     		movs	r1, #4
 160 0014 0120     		movs	r0, #1
 161 0016 FFF7FEFF 		bl	osMessageQueueNew
 162              	.LVL11:
 125:Core/Src/freertos.c **** 
 163              		.loc 1 125 25 discriminator 1 view .LVU22
 164 001a 124B     		ldr	r3, .L14+12
 165 001c 1860     		str	r0, [r3]
 128:Core/Src/freertos.c **** 
 166              		.loc 1 128 3 is_stmt 1 view .LVU23
 128:Core/Src/freertos.c **** 
 167              		.loc 1 128 29 is_stmt 0 view .LVU24
 168 001e 124A     		ldr	r2, .L14+16
 169 0020 0421     		movs	r1, #4
 170 0022 0120     		movs	r0, #1
 171 0024 FFF7FEFF 		bl	osMessageQueueNew
 172              	.LVL12:
 128:Core/Src/freertos.c **** 
 173              		.loc 1 128 27 discriminator 1 view .LVU25
 174 0028 104B     		ldr	r3, .L14+20
 175 002a 1860     		str	r0, [r3]
 136:Core/Src/freertos.c **** 
 176              		.loc 1 136 3 is_stmt 1 view .LVU26
 136:Core/Src/freertos.c **** 
 177              		.loc 1 136 19 is_stmt 0 view .LVU27
 178 002c 104A     		ldr	r2, .L14+24
 179 002e 0021     		movs	r1, #0
 180 0030 1048     		ldr	r0, .L14+28
 181 0032 FFF7FEFF 		bl	osThreadNew
 182              	.LVL13:
 136:Core/Src/freertos.c **** 
 183              		.loc 1 136 17 discriminator 1 view .LVU28
 184 0036 104B     		ldr	r3, .L14+32
 185 0038 1860     		str	r0, [r3]
 139:Core/Src/freertos.c **** 
ARM GAS  C:\Users\TGSPOC~1\AppData\Local\Temp\ccNcvkVC.s 			page 8


 186              		.loc 1 139 3 is_stmt 1 view .LVU29
 139:Core/Src/freertos.c **** 
 187              		.loc 1 139 17 is_stmt 0 view .LVU30
 188 003a 104A     		ldr	r2, .L14+36
 189 003c 0021     		movs	r1, #0
 190 003e 1048     		ldr	r0, .L14+40
 191 0040 FFF7FEFF 		bl	osThreadNew
 192              	.LVL14:
 139:Core/Src/freertos.c **** 
 193              		.loc 1 139 15 discriminator 1 view .LVU31
 194 0044 0F4B     		ldr	r3, .L14+44
 195 0046 1860     		str	r0, [r3]
 142:Core/Src/freertos.c **** 
 196              		.loc 1 142 3 is_stmt 1 view .LVU32
 142:Core/Src/freertos.c **** 
 197              		.loc 1 142 20 is_stmt 0 view .LVU33
 198 0048 0F4A     		ldr	r2, .L14+48
 199 004a 0021     		movs	r1, #0
 200 004c 0F48     		ldr	r0, .L14+52
 201 004e FFF7FEFF 		bl	osThreadNew
 202              	.LVL15:
 142:Core/Src/freertos.c **** 
 203              		.loc 1 142 18 discriminator 1 view .LVU34
 204 0052 0F4B     		ldr	r3, .L14+56
 205 0054 1860     		str	r0, [r3]
 152:Core/Src/freertos.c **** 
 206              		.loc 1 152 1 view .LVU35
 207 0056 08BD     		pop	{r3, pc}
 208              	.L15:
 209              		.align	2
 210              	.L14:
 211 0058 00000000 		.word	m_input_to_log_attributes
 212 005c 00000000 		.word	m_input_to_logHandle
 213 0060 00000000 		.word	m_log_to_output_attributes
 214 0064 00000000 		.word	m_log_to_outputHandle
 215 0068 00000000 		.word	m_output_to_input_attributes
 216 006c 00000000 		.word	m_output_to_inputHandle
 217 0070 00000000 		.word	t_input_attributes
 218 0074 00000000 		.word	start_t_input
 219 0078 00000000 		.word	t_inputHandle
 220 007c 00000000 		.word	t_log_attributes
 221 0080 00000000 		.word	start_t_log
 222 0084 00000000 		.word	t_logHandle
 223 0088 00000000 		.word	t_output_attributes
 224 008c 00000000 		.word	start_t_output
 225 0090 00000000 		.word	t_outputHandle
 226              		.cfi_endproc
 227              	.LFE138:
 229              		.global	m_output_to_input_attributes
 230              		.section	.rodata.str1.4,"aMS",%progbits,1
 231              		.align	2
 232              	.LC0:
 233 0000 6D5F6F75 		.ascii	"m_output_to_input\000"
 233      74707574 
 233      5F746F5F 
 233      696E7075 
 233      7400
ARM GAS  C:\Users\TGSPOC~1\AppData\Local\Temp\ccNcvkVC.s 			page 9


 234              		.section	.rodata.m_output_to_input_attributes,"a"
 235              		.align	2
 238              	m_output_to_input_attributes:
 239 0000 00000000 		.word	.LC0
 240 0004 00000000 		.space	20
 240      00000000 
 240      00000000 
 240      00000000 
 240      00000000 
 241              		.global	m_output_to_inputHandle
 242              		.section	.bss.m_output_to_inputHandle,"aw",%nobits
 243              		.align	2
 246              	m_output_to_inputHandle:
 247 0000 00000000 		.space	4
 248              		.global	m_log_to_output_attributes
 249              		.section	.rodata.str1.4
 250 0012 0000     		.align	2
 251              	.LC1:
 252 0014 6D5F6C6F 		.ascii	"m_log_to_output\000"
 252      675F746F 
 252      5F6F7574 
 252      70757400 
 253              		.section	.rodata.m_log_to_output_attributes,"a"
 254              		.align	2
 257              	m_log_to_output_attributes:
 258 0000 14000000 		.word	.LC1
 259 0004 00000000 		.space	20
 259      00000000 
 259      00000000 
 259      00000000 
 259      00000000 
 260              		.global	m_log_to_outputHandle
 261              		.section	.bss.m_log_to_outputHandle,"aw",%nobits
 262              		.align	2
 265              	m_log_to_outputHandle:
 266 0000 00000000 		.space	4
 267              		.global	m_input_to_log_attributes
 268              		.section	.rodata.str1.4
 269              		.align	2
 270              	.LC2:
 271 0024 6D5F696E 		.ascii	"m_input_to_log\000"
 271      7075745F 
 271      746F5F6C 
 271      6F6700
 272              		.section	.rodata.m_input_to_log_attributes,"a"
 273              		.align	2
 276              	m_input_to_log_attributes:
 277 0000 24000000 		.word	.LC2
 278 0004 00000000 		.space	20
 278      00000000 
 278      00000000 
 278      00000000 
 278      00000000 
 279              		.global	m_input_to_logHandle
 280              		.section	.bss.m_input_to_logHandle,"aw",%nobits
 281              		.align	2
 284              	m_input_to_logHandle:
ARM GAS  C:\Users\TGSPOC~1\AppData\Local\Temp\ccNcvkVC.s 			page 10


 285 0000 00000000 		.space	4
 286              		.global	t_output_attributes
 287              		.section	.rodata.str1.4
 288 0033 00       		.align	2
 289              	.LC3:
 290 0034 745F6F75 		.ascii	"t_output\000"
 290      74707574 
 290      00
 291              		.section	.rodata.t_output_attributes,"a"
 292              		.align	2
 295              	t_output_attributes:
 296 0000 34000000 		.word	.LC3
 297 0004 00000000 		.space	16
 297      00000000 
 297      00000000 
 297      00000000 
 298 0014 00020000 		.word	512
 299 0018 18000000 		.word	24
 300 001c 00000000 		.space	8
 300      00000000 
 301              		.global	t_outputHandle
 302              		.section	.bss.t_outputHandle,"aw",%nobits
 303              		.align	2
 306              	t_outputHandle:
 307 0000 00000000 		.space	4
 308              		.global	t_log_attributes
 309              		.section	.rodata.str1.4
 310 003d 000000   		.align	2
 311              	.LC4:
 312 0040 745F6C6F 		.ascii	"t_log\000"
 312      6700
 313              		.section	.rodata.t_log_attributes,"a"
 314              		.align	2
 317              	t_log_attributes:
 318 0000 40000000 		.word	.LC4
 319 0004 00000000 		.space	16
 319      00000000 
 319      00000000 
 319      00000000 
 320 0014 00020000 		.word	512
 321 0018 18000000 		.word	24
 322 001c 00000000 		.space	8
 322      00000000 
 323              		.global	t_logHandle
 324              		.section	.bss.t_logHandle,"aw",%nobits
 325              		.align	2
 328              	t_logHandle:
 329 0000 00000000 		.space	4
 330              		.global	t_input_attributes
 331              		.section	.rodata.str1.4
 332 0046 0000     		.align	2
 333              	.LC5:
 334 0048 745F696E 		.ascii	"t_input\000"
 334      70757400 
 335              		.section	.rodata.t_input_attributes,"a"
 336              		.align	2
 339              	t_input_attributes:
ARM GAS  C:\Users\TGSPOC~1\AppData\Local\Temp\ccNcvkVC.s 			page 11


 340 0000 48000000 		.word	.LC5
 341 0004 00000000 		.space	16
 341      00000000 
 341      00000000 
 341      00000000 
 342 0014 00020000 		.word	512
 343 0018 20000000 		.word	32
 344 001c 00000000 		.space	8
 344      00000000 
 345              		.global	t_inputHandle
 346              		.section	.bss.t_inputHandle,"aw",%nobits
 347              		.align	2
 350              	t_inputHandle:
 351 0000 00000000 		.space	4
 352              		.text
 353              	.Letext0:
 354              		.file 2 "C:/gcc_vsc/arm_gcc/14.2 rel1/arm-none-eabi/include/machine/_default_types.h"
 355              		.file 3 "C:/gcc_vsc/arm_gcc/14.2 rel1/arm-none-eabi/include/sys/_stdint.h"
 356              		.file 4 "Drivers/CMSIS/Device/ST/STM32F4xx/Include/stm32f411xe.h"
 357              		.file 5 "Middlewares/Third_Party/FreeRTOS/Source/CMSIS_RTOS_V2/cmsis_os2.h"
 358              		.file 6 "Drivers/STM32F4xx_HAL_Driver/Inc/stm32f4xx_hal_gpio.h"
ARM GAS  C:\Users\TGSPOC~1\AppData\Local\Temp\ccNcvkVC.s 			page 12

