ARM GAS  C:\Users\TGSPOC~1\AppData\Local\Temp\ccD5tA5s.s 			page 1


   1              		.cpu cortex-m4
   2              		.arch armv7e-m
   3              		.fpu fpv4-sp-d16
   4              		.eabi_attribute 27, 1
   5              		.eabi_attribute 28, 1
   6              		.eabi_attribute 20, 1
   7              		.eabi_attribute 21, 1
   8              		.eabi_attribute 23, 3
   9              		.eabi_attribute 24, 1
  10              		.eabi_attribute 25, 1
  11              		.eabi_attribute 26, 1
  12              		.eabi_attribute 30, 1
  13              		.eabi_attribute 34, 1
  14              		.eabi_attribute 18, 4
  15              		.file	"gpio.c"
  16              		.text
  17              	.Ltext0:
  18              		.cfi_sections	.debug_frame
  19              		.file 1 "Core/Src/gpio.c"
  20              		.section	.text.MX_GPIO_Init,"ax",%progbits
  21              		.align	1
  22              		.global	MX_GPIO_Init
  23              		.syntax unified
  24              		.thumb
  25              		.thumb_func
  27              	MX_GPIO_Init:
  28              	.LFB134:
   1:Core/Src/gpio.c **** /* USER CODE BEGIN Header */
   2:Core/Src/gpio.c **** /**
   3:Core/Src/gpio.c ****   ******************************************************************************
   4:Core/Src/gpio.c ****   * @file    gpio.c
   5:Core/Src/gpio.c ****   * @brief   This file provides code for the configuration
   6:Core/Src/gpio.c ****   *          of all used GPIO pins.
   7:Core/Src/gpio.c ****   ******************************************************************************
   8:Core/Src/gpio.c ****   * @attention
   9:Core/Src/gpio.c ****   *
  10:Core/Src/gpio.c ****   * Copyright (c) 2025 STMicroelectronics.
  11:Core/Src/gpio.c ****   * All rights reserved.
  12:Core/Src/gpio.c ****   *
  13:Core/Src/gpio.c ****   * This software is licensed under terms that can be found in the LICENSE file
  14:Core/Src/gpio.c ****   * in the root directory of this software component.
  15:Core/Src/gpio.c ****   * If no LICENSE file comes with this software, it is provided AS-IS.
  16:Core/Src/gpio.c ****   *
  17:Core/Src/gpio.c ****   ******************************************************************************
  18:Core/Src/gpio.c ****   */
  19:Core/Src/gpio.c **** /* USER CODE END Header */
  20:Core/Src/gpio.c **** 
  21:Core/Src/gpio.c **** /* Includes ------------------------------------------------------------------*/
  22:Core/Src/gpio.c **** #include "gpio.h"
  23:Core/Src/gpio.c **** 
  24:Core/Src/gpio.c **** /* USER CODE BEGIN 0 */
  25:Core/Src/gpio.c **** 
  26:Core/Src/gpio.c **** /* USER CODE END 0 */
  27:Core/Src/gpio.c **** 
  28:Core/Src/gpio.c **** /*----------------------------------------------------------------------------*/
  29:Core/Src/gpio.c **** /* Configure GPIO                                                             */
  30:Core/Src/gpio.c **** /*----------------------------------------------------------------------------*/
ARM GAS  C:\Users\TGSPOC~1\AppData\Local\Temp\ccD5tA5s.s 			page 2


  31:Core/Src/gpio.c **** /* USER CODE BEGIN 1 */
  32:Core/Src/gpio.c **** 
  33:Core/Src/gpio.c **** /* USER CODE END 1 */
  34:Core/Src/gpio.c **** 
  35:Core/Src/gpio.c **** /** Configure pins as
  36:Core/Src/gpio.c ****         * Analog
  37:Core/Src/gpio.c ****         * Input
  38:Core/Src/gpio.c ****         * Output
  39:Core/Src/gpio.c ****         * EVENT_OUT
  40:Core/Src/gpio.c ****         * EXTI
  41:Core/Src/gpio.c **** */
  42:Core/Src/gpio.c **** void MX_GPIO_Init(void)
  43:Core/Src/gpio.c **** {
  29              		.loc 1 43 1 view -0
  30              		.cfi_startproc
  31              		@ args = 0, pretend = 0, frame = 32
  32              		@ frame_needed = 0, uses_anonymous_args = 0
  33 0000 30B5     		push	{r4, r5, lr}
  34              	.LCFI0:
  35              		.cfi_def_cfa_offset 12
  36              		.cfi_offset 4, -12
  37              		.cfi_offset 5, -8
  38              		.cfi_offset 14, -4
  39 0002 89B0     		sub	sp, sp, #36
  40              	.LCFI1:
  41              		.cfi_def_cfa_offset 48
  44:Core/Src/gpio.c **** 
  45:Core/Src/gpio.c ****   GPIO_InitTypeDef GPIO_InitStruct = {0};
  42              		.loc 1 45 3 view .LVU1
  43              		.loc 1 45 20 is_stmt 0 view .LVU2
  44 0004 03AC     		add	r4, sp, #12
  45 0006 0022     		movs	r2, #0
  46 0008 0392     		str	r2, [sp, #12]
  47 000a 0492     		str	r2, [sp, #16]
  48 000c 0592     		str	r2, [sp, #20]
  49 000e 0692     		str	r2, [sp, #24]
  50 0010 0792     		str	r2, [sp, #28]
  46:Core/Src/gpio.c **** 
  47:Core/Src/gpio.c ****   /* GPIO Ports Clock Enable */
  48:Core/Src/gpio.c ****   __HAL_RCC_GPIOC_CLK_ENABLE();
  51              		.loc 1 48 3 is_stmt 1 view .LVU3
  52              	.LBB2:
  53              		.loc 1 48 3 view .LVU4
  54 0012 0092     		str	r2, [sp]
  55              		.loc 1 48 3 view .LVU5
  56 0014 174B     		ldr	r3, .L3
  57 0016 196B     		ldr	r1, [r3, #48]
  58 0018 41F00401 		orr	r1, r1, #4
  59 001c 1963     		str	r1, [r3, #48]
  60              		.loc 1 48 3 view .LVU6
  61 001e 196B     		ldr	r1, [r3, #48]
  62 0020 01F00401 		and	r1, r1, #4
  63 0024 0091     		str	r1, [sp]
  64              		.loc 1 48 3 view .LVU7
  65 0026 0099     		ldr	r1, [sp]
  66              	.LBE2:
  67              		.loc 1 48 3 view .LVU8
ARM GAS  C:\Users\TGSPOC~1\AppData\Local\Temp\ccD5tA5s.s 			page 3


  49:Core/Src/gpio.c ****   __HAL_RCC_GPIOH_CLK_ENABLE();
  68              		.loc 1 49 3 view .LVU9
  69              	.LBB3:
  70              		.loc 1 49 3 view .LVU10
  71 0028 0192     		str	r2, [sp, #4]
  72              		.loc 1 49 3 view .LVU11
  73 002a 196B     		ldr	r1, [r3, #48]
  74 002c 41F08001 		orr	r1, r1, #128
  75 0030 1963     		str	r1, [r3, #48]
  76              		.loc 1 49 3 view .LVU12
  77 0032 196B     		ldr	r1, [r3, #48]
  78 0034 01F08001 		and	r1, r1, #128
  79 0038 0191     		str	r1, [sp, #4]
  80              		.loc 1 49 3 view .LVU13
  81 003a 0199     		ldr	r1, [sp, #4]
  82              	.LBE3:
  83              		.loc 1 49 3 view .LVU14
  50:Core/Src/gpio.c ****   __HAL_RCC_GPIOA_CLK_ENABLE();
  84              		.loc 1 50 3 view .LVU15
  85              	.LBB4:
  86              		.loc 1 50 3 view .LVU16
  87 003c 0292     		str	r2, [sp, #8]
  88              		.loc 1 50 3 view .LVU17
  89 003e 196B     		ldr	r1, [r3, #48]
  90 0040 41F00101 		orr	r1, r1, #1
  91 0044 1963     		str	r1, [r3, #48]
  92              		.loc 1 50 3 view .LVU18
  93 0046 1B6B     		ldr	r3, [r3, #48]
  94 0048 03F00103 		and	r3, r3, #1
  95 004c 0293     		str	r3, [sp, #8]
  96              		.loc 1 50 3 view .LVU19
  97 004e 029B     		ldr	r3, [sp, #8]
  98              	.LBE4:
  99              		.loc 1 50 3 view .LVU20
  51:Core/Src/gpio.c **** 
  52:Core/Src/gpio.c ****   /*Configure GPIO pin Output Level */
  53:Core/Src/gpio.c ****   HAL_GPIO_WritePin(led_white_GPIO_Port, led_white_Pin, GPIO_PIN_RESET);
 100              		.loc 1 53 3 view .LVU21
 101 0050 094D     		ldr	r5, .L3+4
 102 0052 0121     		movs	r1, #1
 103 0054 2846     		mov	r0, r5
 104 0056 FFF7FEFF 		bl	HAL_GPIO_WritePin
 105              	.LVL0:
  54:Core/Src/gpio.c **** 
  55:Core/Src/gpio.c ****   /*Configure GPIO pin : led_white_Pin */
  56:Core/Src/gpio.c ****   GPIO_InitStruct.Pin = led_white_Pin;
 106              		.loc 1 56 3 view .LVU22
 107              		.loc 1 56 23 is_stmt 0 view .LVU23
 108 005a 0123     		movs	r3, #1
 109 005c 0393     		str	r3, [sp, #12]
  57:Core/Src/gpio.c ****   GPIO_InitStruct.Mode = GPIO_MODE_OUTPUT_PP;
 110              		.loc 1 57 3 is_stmt 1 view .LVU24
 111              		.loc 1 57 24 is_stmt 0 view .LVU25
 112 005e 0493     		str	r3, [sp, #16]
  58:Core/Src/gpio.c ****   GPIO_InitStruct.Pull = GPIO_PULLUP;
 113              		.loc 1 58 3 is_stmt 1 view .LVU26
 114              		.loc 1 58 24 is_stmt 0 view .LVU27
ARM GAS  C:\Users\TGSPOC~1\AppData\Local\Temp\ccD5tA5s.s 			page 4


 115 0060 0593     		str	r3, [sp, #20]
  59:Core/Src/gpio.c ****   GPIO_InitStruct.Speed = GPIO_SPEED_FREQ_VERY_HIGH;
 116              		.loc 1 59 3 is_stmt 1 view .LVU28
 117              		.loc 1 59 25 is_stmt 0 view .LVU29
 118 0062 0323     		movs	r3, #3
 119 0064 0693     		str	r3, [sp, #24]
  60:Core/Src/gpio.c ****   HAL_GPIO_Init(led_white_GPIO_Port, &GPIO_InitStruct);
 120              		.loc 1 60 3 is_stmt 1 view .LVU30
 121 0066 2146     		mov	r1, r4
 122 0068 2846     		mov	r0, r5
 123 006a FFF7FEFF 		bl	HAL_GPIO_Init
 124              	.LVL1:
  61:Core/Src/gpio.c **** 
  62:Core/Src/gpio.c **** }
 125              		.loc 1 62 1 is_stmt 0 view .LVU31
 126 006e 09B0     		add	sp, sp, #36
 127              	.LCFI2:
 128              		.cfi_def_cfa_offset 12
 129              		@ sp needed
 130 0070 30BD     		pop	{r4, r5, pc}
 131              	.L4:
 132 0072 00BF     		.align	2
 133              	.L3:
 134 0074 00380240 		.word	1073887232
 135 0078 00000240 		.word	1073872896
 136              		.cfi_endproc
 137              	.LFE134:
 139              		.text
 140              	.Letext0:
 141              		.file 2 "C:/gcc_vsc/arm_gcc/14.2 rel1/arm-none-eabi/include/machine/_default_types.h"
 142              		.file 3 "C:/gcc_vsc/arm_gcc/14.2 rel1/arm-none-eabi/include/sys/_stdint.h"
 143              		.file 4 "Drivers/CMSIS/Device/ST/STM32F4xx/Include/stm32f411xe.h"
 144              		.file 5 "Drivers/STM32F4xx_HAL_Driver/Inc/stm32f4xx_hal_gpio.h"
ARM GAS  C:\Users\TGSPOC~1\AppData\Local\Temp\ccD5tA5s.s 			page 5

